                                                                      Page 1
                                                              C:\Users\TIEZHU~1\AppData\Local\Temp\gh_00005js1.si
Command Line: C:\GHS\V800.V2014.1.7\comp_201417\ease850.exe -w -elf -b0 -Ipe1_project\inc -I..\..\..\src -Isrc -Idev -Iinc -Idevice -IC:\GHS\V800.V2014.1.7\comp_201417\lib\rh850 -cg_underscore -cpu=rh850g3m -no_v850_simd -rh850_fpsimd=none -nomacro -patch_dbo=D:\CANFDGwMcuFirmRH850F1x\code\CANFDGwMcuFirmRH850F1x\CANFDGwMcuFirmRH850F1x\prj\GHS MULTI\CAN Gateway\output\obj\pe1\Com.dbo -source=Com.c -o .\output\obj\pe1\gh_00005js1.o -list=.\output\obj\pe1\Com.lst C:\Users\TIEZHU~1\AppData\Local\Temp\gh_00005js1.si 
Original File: C:\Users\TIEZHU~1\AppData\Local\Temp\gh_00005js1.si
Source File: Com.c
Directory: D:\CANFDGwMcuFirmRH850F1x\code\CANFDGwMcuFirmRH850F1x\CANFDGwMcuFirmRH850F1x\prj\GHS MULTI\CAN Gateway
Host OS: Windows 7
EASE: Copyright (C) 1983-2014 Green Hills Software.  All Rights Reversed.
Release: Compiler v2014.1.7
Build Directory: [Directory] BTOWINBOX:c:/build_2014_1_bto/2014-09-04.2200-2014_1_bto/win32-comp-ecom
Revision: [VCInfo] http://toolsvc/branches/release-branch-2014-1-bto/src@515859 (built by build)
Revision Date: Fri Sep 05 14:05:06 2014

Release Date: Fri Sep 05 14:43:29 2014

                           1 --Driver Command: ccv850 -c -MD -Ipe1_project\inc -I..\..\..\src -Isrc -Idev
                           2 --		-Iinc -Idevice -DMY_CLOCK -UMSC_CLOCK -sda -DEMBEDDED
                           3 --		--enable_noinline --restrict --bool -bsp generic -g -list
                           4 --		-passsource -preprocess_assembly_files
                           5 --		--preprocess_linker_directive_full -DDEVICE=F1H -cpu=rh850g3m
                           6 --		-Onone -DCPU1=1 -DCPU2=0 -DCORE1 -object_dir=./output/obj/pe1
                           7 --		-filetype.c ..\..\..\src\Com.c -o .\output\obj\pe1\Com.o
                           8 --Source File:   ..\..\..\src\Com.c
                           9 --Directory:     
                          10 --		D:\CANFDGwMcuFirmRH850F1x\code\CANFDGwMcuFirmRH850F1x\CANFDGwMcuFirmRH850F1x\prj\GHS
                          11 --		MULTI\CAN Gateway
                          12 --Compile Date:  Tue Nov 10 14:51:55 2015
                          13 --Host OS:       Win32
                          14 --Version:       C-RH850 2014.1.7 RELEASE VERSION
                          15 --Release:       Compiler v2014.1.7
                          16 --Revision Date: Fri Sep 05 14:10:46 2014
                          17 --Release Date:  Fri Sep 05 14:44:23 2014
                          18 -- ecom  -g -w
                          19 
                          20 --1: /***********************************************************************************************************************
                          21 --2:  * DISCLAIMER
                          22 --3:  * This software is supplied by Renesas Electronics Corporation and is only intended for use with Renesas products. No
                          23 --4:  * other uses are authorized. This software is owned by Renesas Electronics Corporation and is protected under all
                          24 --5:  * applicable laws, including copyright laws.
                          25 --6:  * THIS SOFTWARE IS PROVIDED "AS IS" AND RENESAS MAKES NO WARRANTIES REGARDING
                          26 --7:  * THIS SOFTWARE, WHETHER EXPRESS, IMPLIED OR STATUTORY, INCLUDING BUT NOT LIMITED TO WARRANTIES OF MERCHANTABILITY,
                          27 --8:  * FITNESS FOR A PARTICULAR PURPOSE AND NON-INFRINGEMENT. ALL SUCH WARRANTIES ARE EXPRESSLY DISCLAIMED. TO THE MAXIMUM
                          28 --9:  * EXTENT PERMITTED NOT PROHIBITED BY LAW, NEITHER RENESAS ELECTRONICS CORPORATION NOR ANY OF ITS AFFILIATED COMPANIES
                          29 --10:  * SHALL BE LIABLE FOR ANY DIRECT, INDIRECT, SPECIAL, INCIDENTAL OR CONSEQUENTIAL DAMAGES FOR ANY REASON RELATED TO THIS
                          30 --11:  * SOFTWARE, EVEN IF RENESAS OR ITS AFFILIATES HAVE BEEN ADVISED OF THE POSSIBILITY OF SUCH DAMAGES.
                          31 --12:  * Renesas reserves the right, without notice, to make changes to this software and to discontinue the availability of
                          32 --13:  * this software. By using this software, you agree to the additional terms and conditions found by accessing the
                          33 --14:  * following link:
                          34 --15:  * (MISRA C:2012 Violation - Rule 3.1
                          35 --16:  * Justification - C comment contains C++ comment can't avoid here.)
                          36 --17:  * http:/ /www.renesas.com/disclaimer
                          37 --18:  *
                          38 --19:  * Copyright (C) 2011 Renesas Electronics Corporation. All rights reserved.
                          39 --20:  ***********************************************************************************************************************/
                          40 --21: /***********************************************************************************************************************
                          41 --22:  * File Name	: Com.c
                          42 --23:  * Version      : 1.0
                          43 --24:  * Description  : This file implements functions in COM module.
                          44 --25:  **********************************************************************************************************************/
                          45 --26: /**********************************************************************************************************************
                          46 --27:  * History : DD.MM.YYYY Version  Description
                          47 --28:  *         : 25.09.2014 1.00     First Release
                          48 --29:  ***********************************************************************************************************************/
                          49 --31: /***********************************************************************************************************************
                          50 --32:  Includes   <System Includes> , "Project Includes"

                                                                      Page 2
                                                              C:\Users\TIEZHU~1\AppData\Local\Temp\gh_00005js1.si
                          51 --33:  ***********************************************************************************************************************/
                          52 --34: #include "Com.h"
                          53 --35: #include "Com_Cfg.h"
                          54 --36: #include "PduR.h"
                          55 --37: #include "User_Callback.h"
                          56 --38: #include "User_App.h"
                          57 --40: /***********************************************************************************************************************
                          58 --41:  Macro definitions
                          59 --42:  ***********************************************************************************************************************/
                          60 --44: /***********************************************************************************************************************
                          61 --45:  Typedef definitions
                          62 --46:  ***********************************************************************************************************************/
                          63 --48: /***********************************************************************************************************************
                          64 --49:  Exported global variables (to be accessed by other files)
                          65 --50:  ***********************************************************************************************************************/
                          66 --51: /* ---- signal pool & I-PDU pool ---- */
                          67 --52: /* MISRA C:2012 Violation - Rule 8.4 */
                          68 --53: /* Justification - the variable will be configured in another file, unavoidable */
                          69 --54: uint8_t g_com_ram_pool[COM_SIGNAL_PDU_POOL_SIZE / 4U];
                          70 --56: /***********************************************************************************************************************
                          71 --57:  Private global variables and functions
                          72 --58:  ***********************************************************************************************************************/
                          73 --59: /* ---- I-PDU related variables  ---- */
                          74 --60: static PduIdType com_num_of_tx_ipdu;
                          75 --61: static uint8_t* const * com_ipdu_obj_tbl;
                          76 --62: static const com_ipdu_cfg_t* com_ipdu_cfg_tbl;
                          77 --64: /* ---- signal related variables  ---- */
                          78 --65: static Com_SignalIdType com_num_of_signal;
                          79 --66: static void* const * com_signal_obj_tbl;
                          80 --67: static void* const * com_old_sig_obj_tbl;
                          81 --68: static const com_signal_cfg_t* com_signal_cfg_tbl;
                          82 --70: /* ---- Pdu gateway related control ---- */
                          83 --71: static boolean com_need_pdu_gw = FALSE;
                          84 --72: static boolean com_need_pdu_gw_with_repetition = FALSE;
                          85 --74: /* ---- local function declaration ---- */
                          86 --75: static void com_unpack_one_signal(uint16_t StartBit, com_signal_endianess_t Endianess,
                          87 --76:                                   const com_signal_cfg_t* SigCfgPtr, const uint8_t* IPduObjPtr, void* SigObjPtr);
                          88 --77: static void com_pack_one_signal(uint16_t StartBit, com_signal_endianess_t Endianess, const com_signal_cfg_t* SigCfgPtr,
                          89 --78:                                 uint8_t* IPduObjPtr, const void* SigObjPtr);
                          90 --79: static boolean com_is_signal_changed(uint8_t BitSize, Com_SignalIdType SigId);
                          91 --80: static void com_set_signal(uint8_t BitSize, void* SigObjPtr, const void* ValuePtr);
                          92 --81: static void com_init_ipdu(PduIdType IPduId);
                          93 --82: static Std_ReturnType com_transmit_ipdu(PduIdType IPduId);
                          94 --84: /***********************************************************************************************************************
                          95 --85:  * Function Name: com_unpack_one_signal
                          96 --86:  * Description  : Unpack one signal from specified IPDU, do necessary endianness conversion and then store to signal
                          97 --87:  *                object.
                          98 --88:  * Arguments    : StartBit -
                          99 --89:  *                  Signal start bit in specified IPDU.
                         100 --90:  *                SigCfgPtr -
                         101 --91:  *                  Pointer to signal config.
                         102 --92:  *                IPduObjPtr -
                         103 --93:  *                  Pointer to specified IPDU object.
                         104 --94:  *                SigObjPtr -
                         105 --95:  *                  Pointer to signal object that stores result.
                         106 --96:  * Return Value : void
                         107 --97:  ***********************************************************************************************************************/
                         108 --98: static void com_unpack_one_signal(uint16_t StartBit, com_signal_endianess_t Endianess,
                         109 	.text
                         110 ..bof.D.3A.5CCANFDGwMcuFirmRH850F1x.5Ccode.5CCANFDGwMcuFirmRH850F1x.5CCANFDGwMcuFirmRH850F1x.5Cprj.5CGHS.20MULTI.5CCAN.20Gateway.5Coutput.5Cobj.5Cpe1.5CCom...44.3A.5CCANFDGwMcuFirmRH850F1x.5Ccode.5CCANFDGwMcuFirmRH850F1x.5CCANFDGwMcuFirmRH850F1x.5Cprj.5CGHS.20MULTI.5CCAN.20Gateway..5641940B..0::
                         111 	.align	2

                                                                      Page 3
                                                              C:\Users\TIEZHU~1\AppData\Local\Temp\gh_00005js1.si
                         112 	.global	_com_unpack_one_signal..D.3A.5CCANFDGwMcuFirmRH850F1x.5Ccode.5CCANFDGwMcuFirmRH850F1x.5CCANFDGwMcuFirmRH850F1x.5Cprj.5CGHS.20MULTI.5CCAN.20Gateway.5Coutput.5Cobj.5Cpe1.5CCom.
                         113 _com_unpack_one_signal..D.3A.5CCANFDGwMcuFirmRH850F1x.5Ccode.5CCANFDGwMcuFirmRH850F1x.5CCANFDGwMcuFirmRH850F1x.5Cprj.5CGHS.20MULTI.5CCAN.20Gateway.5Coutput.5Cobj.5Cpe1.5CCom.:
                         114 _com_unpack_one_signal:
00000000 c600            115 	zxh	r6
00000002 08f0            116 	mov	r8,ep
00000004 239f0100        117 	ld.w	0[sp],r19
                         118 --	    .bf
                         119 .LDW01:
                         120 --99:                                   const com_signal_cfg_t* SigCfgPtr, const uint8_t* IPduObjPtr, void* SigObjPtr)
                         121 --100: {
                         122 --101: 	uint32_t TempLong;
                         123 --102: 	uint32_t TempLong2;
                         124 --103: 	uint32_t Mask;
                         125 --104: 	uint8_t BitLength;
                         126 --105: 	uint8_t StartPduByte;
                         127 --106: 	uint8_t PduBytes;
                         128 --107: 	uint16_t RightShift;
                         129 --108: 	uint8_t SigByteSize;
                         130 --110: 	TempLong = 0UL;
00000008 0012            131 	mov	0,r2
                         132 --111: 	BitLength = SigCfgPtr->BitSize;
0000000a 6290            133 	sld.bu	2[ep],r18
                         134 --113: 	/* ==== Signal is less than 32 bits. ==== */
                         135 --114: 	if (BitLength <= 32U)
0000000c 1206dfff        136 	addi	-33,r18,zero
00000010 e1072f02*       137 	bl	.L4
                         138 --115: 	{
                         139 --116: 		/* ---- Get necessary information. ---- */
                         140 --117: 		RightShift = StartBit & 0x7U;
                         141 --line117
                         142 ..lin.D.3A.5CCANFDGwMcuFirmRH850F1x.5Ccode.5CCANFDGwMcuFirmRH850F1x.5CCANFDGwMcuFirmRH850F1x.5Cprj.5CGHS.20MULTI.5CCAN.20Gateway.5Coutput.5Cobj.5Cpe1.5CCom.1::
                         143 .LDWlin1:
00000014 c60e0700        144 	andi	7,r6,r1
00000018 c100            145 	zxh	r1
0000001a 0188            146 	mov	r1,r17
                         147 --118: 		PduBytes = (uint8_t) ((BitLength + RightShift) >> 3U);
0000001c 1108            148 	mov	r17,r1
0000001e d209            149 	add	r18,r1
00000020 a30a            150 	sar	3,r1
00000022 8100            151 	zxb	r1
00000024 0178            152 	mov	r1,r15
                         153 --119: 		if (((BitLength + RightShift) & 0x7U) != 0U)
00000026 1108            154 	mov	r17,r1
00000028 d209            155 	add	r18,r1
0000002a c10e0700        156 	andi	7,r1,r1
0000002e e009            157 	cmp	zero,r1
00000030 b205*           158 	be	.L6
                         159 --120: 		{
                         160 --121: 			PduBytes = PduBytes + 1U;
                         161 --line121
                         162 ..lin.D.3A.5CCANFDGwMcuFirmRH850F1x.5Ccode.5CCANFDGwMcuFirmRH850F1x.5CCANFDGwMcuFirmRH850F1x.5Cprj.5CGHS.20MULTI.5CCAN.20Gateway.5Coutput.5Cobj.5Cpe1.5CCom.2::
                         163 .LDWlin2:
00000032 417a            164 	add	1,r15
00000034 8f00            165 	zxb	r15
                         166 .L6:
                         167 --122: 		}
                         168 --123: 		StartPduByte = (uint8_t) (StartBit >> 3U);
00000036 0608            169 	mov	r6,r1
00000038 a30a            170 	sar	3,r1
0000003a 8100            171 	zxb	r1
                         172 --124: 		if (BitLength == 32U)

                                                                      Page 4
                                                              C:\Users\TIEZHU~1\AppData\Local\Temp\gh_00005js1.si
0000003c 1206e0ff        173 	addi	-32,r18,zero
00000040 ba05*           174 	bne	.L8
                         175 --125: 		{
                         176 --126: 			Mask = 0xffffffffUL;
                         177 --line126
                         178 ..lin.D.3A.5CCANFDGwMcuFirmRH850F1x.5Ccode.5CCANFDGwMcuFirmRH850F1x.5CCANFDGwMcuFirmRH850F1x.5Cprj.5CGHS.20MULTI.5CCAN.20Gateway.5Coutput.5Cobj.5Cpe1.5CCom.3::
                         179 .LDWlin3:
00000042 1f82            180 	mov	-1,r16
00000044 e505*           181 	br	.L10
                         182 .L8:
                         183 --127: 		}
                         184 --128: 		else
                         185 --129: 		{
                         186 --130: 			Mask = (uint32_t) ((1UL << BitLength) - 1UL);
                         187 --line130
                         188 ..lin.D.3A.5CCANFDGwMcuFirmRH850F1x.5Ccode.5CCANFDGwMcuFirmRH850F1x.5CCANFDGwMcuFirmRH850F1x.5Cprj.5CGHS.20MULTI.5CCAN.20Gateway.5Coutput.5Cobj.5Cpe1.5CCom.4::
                         189 .LDWlin4:
00000046 0182            190 	mov	1,r16
00000048 f287c280        191 	shl	r18,r16,r16
0000004c 1086ffff        192 	addi	-1,r16,r16
                         193 .L10:
                         194 --131: 		}
                         195 --133: 		/* ---- Extract signal ---- */
                         196 --134: 		switch (PduBytes)
00000050 637a            197 	cmp	3,r15
00000052 f905*           198 	bnl	.L191
00000054 617a            199 	cmp	1,r15
00000056 d20d*           200 	be	.L13
00000058 627a            201 	cmp	2,r15
0000005a c215*           202 	be	.L14
0000005c 8007e201*       203 	br	.L4
                         204 .L191:
00000060 647a            205 	cmp	4,r15
00000062 f12d*           206 	bl	.L18
00000064 d25d*           207 	be	.L22
00000066 657a            208 	cmp	5,r15
00000068 e2072b01*       209 	be	.L26
0000006c 8007d201*       210 	br	.L4
                         211 .L13:
                         212 --135: 		{
                         213 --136: 			case 1U:
                         214 --137: 				TempLong = IPduObjPtr[StartPduByte];
                         215 --line137
                         216 ..lin.D.3A.5CCANFDGwMcuFirmRH850F1x.5Ccode.5CCANFDGwMcuFirmRH850F1x.5CCANFDGwMcuFirmRH850F1x.5Cprj.5CGHS.20MULTI.5CCAN.20Gateway.5Coutput.5Cobj.5Cpe1.5CCom.5::
                         217 .LDWlin5:
00000070 01f0            218 	mov	r1,ep
00000072 c9f1            219 	add	r9,ep
00000074 6010            220 	sld.bu	0[ep],r2
                         221 --138: 				TempLong = (TempLong >> RightShift) & Mask;
00000076 f1178208        222 	shr	r17,r2,r1
0000007a 1010            223 	mov	r16,r2
0000007c 4111            224 	and	r1,r2
0000007e 8007c001*       225 	br	.L4
                         226 .L14:
                         227 --139: 				break;
                         228 --140: 			case 2U:
                         229 --141: 				if (Endianess == COM_SIG_BIG_ENDIAN)
                         230 --line141
                         231 ..lin.D.3A.5CCANFDGwMcuFirmRH850F1x.5Ccode.5CCANFDGwMcuFirmRH850F1x.5CCANFDGwMcuFirmRH850F1x.5Cprj.5CGHS.20MULTI.5CCAN.20Gateway.5Coutput.5Cobj.5Cpe1.5CCom.6::
                         232 .LDWlin6:
00000082 e039            233 	cmp	zero,r7

                                                                      Page 5
                                                              C:\Users\TIEZHU~1\AppData\Local\Temp\gh_00005js1.si
00000084 da0d*           234 	bne	.L15
                         235 --142: 				{
                         236 --143: 					TempLong = IPduObjPtr[StartPduByte] + ((uint32_t) IPduObjPtr[StartPduByte - 1U] << 8U);
                         237 --line143
                         238 ..lin.D.3A.5CCANFDGwMcuFirmRH850F1x.5Ccode.5CCANFDGwMcuFirmRH850F1x.5CCANFDGwMcuFirmRH850F1x.5Cprj.5CGHS.20MULTI.5CCAN.20Gateway.5Coutput.5Cobj.5Cpe1.5CCom.7::
                         239 .LDWlin7:
00000086 01f0            240 	mov	r1,ep
00000088 c9f1            241 	add	r9,ep
0000008a 010effff        242 	addi	-1,r1,r1
0000008e c909            243 	add	r9,r1
00000090 810f0100        244 	ld.bu	0[r1],r1
00000094 c80a            245 	shl	8,r1
00000096 6078            246 	sld.bu	0[ep],r15
00000098 0110            247 	mov	r1,r2
0000009a cf11            248 	add	r15,r2
0000009c c50d*           249 	br	.L17
                         250 .L15:
                         251 --144: 				}
                         252 --145: 				else
                         253 --146: 				{
                         254 --147: 					TempLong = IPduObjPtr[StartPduByte] + ((uint32_t) IPduObjPtr[StartPduByte + 1U] << 8U);
                         255 --line147
                         256 ..lin.D.3A.5CCANFDGwMcuFirmRH850F1x.5Ccode.5CCANFDGwMcuFirmRH850F1x.5CCANFDGwMcuFirmRH850F1x.5Cprj.5CGHS.20MULTI.5CCAN.20Gateway.5Coutput.5Cobj.5Cpe1.5CCom.8::
                         257 .LDWlin8:
0000009e 01f0            258 	mov	r1,ep
000000a0 c9f1            259 	add	r9,ep
000000a2 010e0100        260 	addi	1,r1,r1
000000a6 c909            261 	add	r9,r1
000000a8 810f0100        262 	ld.bu	0[r1],r1
000000ac c80a            263 	shl	8,r1
000000ae 6078            264 	sld.bu	0[ep],r15
000000b0 0110            265 	mov	r1,r2
000000b2 cf11            266 	add	r15,r2
                         267 .L17:
                         268 --148: 				}
                         269 --149: 				TempLong = (TempLong >> RightShift) & Mask;
000000b4 f1178208        270 	shr	r17,r2,r1
000000b8 1010            271 	mov	r16,r2
000000ba 4111            272 	and	r1,r2
000000bc 80078201*       273 	br	.L4
                         274 .L18:
                         275 --151: 				break;
                         276 --152: 			case 3U:
                         277 --153: 				if (Endianess == COM_SIG_BIG_ENDIAN)
                         278 --line153
                         279 ..lin.D.3A.5CCANFDGwMcuFirmRH850F1x.5Ccode.5CCANFDGwMcuFirmRH850F1x.5CCANFDGwMcuFirmRH850F1x.5Cprj.5CGHS.20MULTI.5CCAN.20Gateway.5Coutput.5Cobj.5Cpe1.5CCom.9::
                         280 .LDWlin9:
000000c0 e039            281 	cmp	zero,r7
000000c2 da15*           282 	bne	.L19
                         283 --154: 				{
                         284 --155: 					TempLong = IPduObjPtr[StartPduByte] + ((uint32_t) IPduObjPtr[StartPduByte - 1U] << 8U)
                         285 --line155
                         286 ..lin.D.3A.5CCANFDGwMcuFirmRH850F1x.5Ccode.5CCANFDGwMcuFirmRH850F1x.5CCANFDGwMcuFirmRH850F1x.5Cprj.5CGHS.20MULTI.5CCAN.20Gateway.5Coutput.5Cobj.5Cpe1.5CCom.10::
                         287 .LDWlin10:
000000c4 01f0            288 	mov	r1,ep
000000c6 c9f1            289 	add	r9,ep
000000c8 0116ffff        290 	addi	-1,r1,r2
000000cc c911            291 	add	r9,r2
000000ce 82170100        292 	ld.bu	0[r2],r2
000000d2 c812            293 	shl	8,r2
000000d4 6070            294 	sld.bu	0[ep],r14

                                                                      Page 6
                                                              C:\Users\TIEZHU~1\AppData\Local\Temp\gh_00005js1.si
000000d6 0278            295 	mov	r2,r15
000000d8 ce79            296 	add	r14,r15
000000da 010efeff        297 	addi	-2,r1,r1
000000de 01f0            298 	mov	r1,ep
000000e0 c9f1            299 	add	r9,ep
000000e2 6008            300 	sld.bu	0[ep],r1
000000e4 d00a            301 	shl	16,r1
000000e6 0110            302 	mov	r1,r2
000000e8 cf11            303 	add	r15,r2
000000ea c515*           304 	br	.L21
                         305 .L19:
                         306 --156: 					    + ((uint32_t) IPduObjPtr[StartPduByte - 2U] << 16U);
                         307 --157: 				}
                         308 --158: 				else
                         309 --159: 				{
                         310 --160: 					TempLong = IPduObjPtr[StartPduByte] + ((uint32_t) IPduObjPtr[StartPduByte + 1U] << 8U)
                         311 --line160
                         312 ..lin.D.3A.5CCANFDGwMcuFirmRH850F1x.5Ccode.5CCANFDGwMcuFirmRH850F1x.5CCANFDGwMcuFirmRH850F1x.5Cprj.5CGHS.20MULTI.5CCAN.20Gateway.5Coutput.5Cobj.5Cpe1.5CCom.11::
                         313 .LDWlin11:
000000ec 01f0            314 	mov	r1,ep
000000ee c9f1            315 	add	r9,ep
000000f0 01160100        316 	addi	1,r1,r2
000000f4 c911            317 	add	r9,r2
000000f6 82170100        318 	ld.bu	0[r2],r2
000000fa c812            319 	shl	8,r2
000000fc 6070            320 	sld.bu	0[ep],r14
000000fe 0278            321 	mov	r2,r15
00000100 ce79            322 	add	r14,r15
00000102 010e0200        323 	addi	2,r1,r1
00000106 01f0            324 	mov	r1,ep
00000108 c9f1            325 	add	r9,ep
0000010a 6008            326 	sld.bu	0[ep],r1
0000010c d00a            327 	shl	16,r1
0000010e 0110            328 	mov	r1,r2
00000110 cf11            329 	add	r15,r2
                         330 .L21:
                         331 --161: 					    + ((uint32_t) IPduObjPtr[StartPduByte + 2U] << 16U);
                         332 --162: 				}
                         333 --163: 				TempLong = (TempLong >> RightShift) & Mask;
00000112 f1178208        334 	shr	r17,r2,r1
00000116 1010            335 	mov	r16,r2
00000118 4111            336 	and	r1,r2
0000011a 80072401*       337 	br	.L4
                         338 .L22:
                         339 --164: 				break;
                         340 --165: 			case 4U:
                         341 --166: 				if (Endianess == COM_SIG_BIG_ENDIAN)
                         342 --line166
                         343 ..lin.D.3A.5CCANFDGwMcuFirmRH850F1x.5Ccode.5CCANFDGwMcuFirmRH850F1x.5CCANFDGwMcuFirmRH850F1x.5Cprj.5CGHS.20MULTI.5CCAN.20Gateway.5Coutput.5Cobj.5Cpe1.5CCom.12::
                         344 .LDWlin12:
0000011e e039            345 	cmp	zero,r7
00000120 ba1d*           346 	bne	.L23
                         347 --167: 				{
                         348 --168: 					TempLong = IPduObjPtr[StartPduByte] + ((uint32_t) IPduObjPtr[StartPduByte - 1U] << 8U)
                         349 --line168
                         350 ..lin.D.3A.5CCANFDGwMcuFirmRH850F1x.5Ccode.5CCANFDGwMcuFirmRH850F1x.5CCANFDGwMcuFirmRH850F1x.5Cprj.5CGHS.20MULTI.5CCAN.20Gateway.5Coutput.5Cobj.5Cpe1.5CCom.13::
                         351 .LDWlin13:
00000122 01f0            352 	mov	r1,ep
00000124 c9f1            353 	add	r9,ep
00000126 0116ffff        354 	addi	-1,r1,r2
0000012a c911            355 	add	r9,r2

                                                                      Page 7
                                                              C:\Users\TIEZHU~1\AppData\Local\Temp\gh_00005js1.si
0000012c 82170100        356 	ld.bu	0[r2],r2
00000130 c812            357 	shl	8,r2
00000132 6078            358 	sld.bu	0[ep],r15
00000134 cf11            359 	add	r15,r2
00000136 017efeff        360 	addi	-2,r1,r15
0000013a 0ff0            361 	mov	r15,ep
0000013c c9f1            362 	add	r9,ep
0000013e 6078            363 	sld.bu	0[ep],r15
00000140 d07a            364 	shl	16,r15
00000142 c279            365 	add	r2,r15
00000144 010efdff        366 	addi	-3,r1,r1
00000148 01f0            367 	mov	r1,ep
0000014a c9f1            368 	add	r9,ep
0000014c 6008            369 	sld.bu	0[ep],r1
0000014e d80a            370 	shl	24,r1
00000150 0110            371 	mov	r1,r2
00000152 cf11            372 	add	r15,r2
00000154 a51d*           373 	br	.L25
                         374 .L23:
                         375 --169: 					    + ((uint32_t) IPduObjPtr[StartPduByte - 2U] << 16U)
                         376 --170: 					    + ((uint32_t) IPduObjPtr[StartPduByte - 3U] << 24U);
                         377 --171: 				}
                         378 --172: 				else
                         379 --173: 				{
                         380 --174: 					TempLong = IPduObjPtr[StartPduByte] + ((uint32_t) IPduObjPtr[StartPduByte + 1U] << 8U)
                         381 --line174
                         382 ..lin.D.3A.5CCANFDGwMcuFirmRH850F1x.5Ccode.5CCANFDGwMcuFirmRH850F1x.5CCANFDGwMcuFirmRH850F1x.5Cprj.5CGHS.20MULTI.5CCAN.20Gateway.5Coutput.5Cobj.5Cpe1.5CCom.14::
                         383 .LDWlin14:
00000156 01f0            384 	mov	r1,ep
00000158 c9f1            385 	add	r9,ep
0000015a 01160100        386 	addi	1,r1,r2
0000015e c911            387 	add	r9,r2
00000160 82170100        388 	ld.bu	0[r2],r2
00000164 c812            389 	shl	8,r2
00000166 6078            390 	sld.bu	0[ep],r15
00000168 cf11            391 	add	r15,r2
0000016a 017e0200        392 	addi	2,r1,r15
0000016e 0ff0            393 	mov	r15,ep
00000170 c9f1            394 	add	r9,ep
00000172 6078            395 	sld.bu	0[ep],r15
00000174 d07a            396 	shl	16,r15
00000176 c279            397 	add	r2,r15
00000178 010e0300        398 	addi	3,r1,r1
0000017c 01f0            399 	mov	r1,ep
0000017e c9f1            400 	add	r9,ep
00000180 6008            401 	sld.bu	0[ep],r1
00000182 d80a            402 	shl	24,r1
00000184 0110            403 	mov	r1,r2
00000186 cf11            404 	add	r15,r2
                         405 .L25:
                         406 --175: 					    + ((uint32_t) IPduObjPtr[StartPduByte + 2U] << 16U)
                         407 --176: 					    + ((uint32_t) IPduObjPtr[StartPduByte + 3U] << 24U);
                         408 --177: 				}
                         409 --178: 				TempLong = (TempLong >> RightShift) & Mask;
00000188 f1178208        410 	shr	r17,r2,r1
0000018c 1010            411 	mov	r16,r2
0000018e 4111            412 	and	r1,r2
00000190 f555*           413 	br	.L4
                         414 .L26:
                         415 --179: 				break;
                         416 --180: 			case 5U:

                                                                      Page 8
                                                              C:\Users\TIEZHU~1\AppData\Local\Temp\gh_00005js1.si
                         417 --181: 				if (Endianess == COM_SIG_BIG_ENDIAN)
                         418 --line181
                         419 ..lin.D.3A.5CCANFDGwMcuFirmRH850F1x.5Ccode.5CCANFDGwMcuFirmRH850F1x.5CCANFDGwMcuFirmRH850F1x.5Cprj.5CGHS.20MULTI.5CCAN.20Gateway.5Coutput.5Cobj.5Cpe1.5CCom.15::
                         420 .LDWlin15:
00000192 e039            421 	cmp	zero,r7
00000194 ea25*           422 	bne	.L27
                         423 --182: 				{
                         424 --183: 					TempLong = IPduObjPtr[StartPduByte] + ((uint32_t) IPduObjPtr[StartPduByte - 1U] << 8U)
                         425 --line183
                         426 ..lin.D.3A.5CCANFDGwMcuFirmRH850F1x.5Ccode.5CCANFDGwMcuFirmRH850F1x.5CCANFDGwMcuFirmRH850F1x.5Cprj.5CGHS.20MULTI.5CCAN.20Gateway.5Coutput.5Cobj.5Cpe1.5CCom.16::
                         427 .LDWlin16:
00000196 01f0            428 	mov	r1,ep
00000198 c9f1            429 	add	r9,ep
0000019a 0116ffff        430 	addi	-1,r1,r2
0000019e c911            431 	add	r9,r2
000001a0 82170100        432 	ld.bu	0[r2],r2
000001a4 c812            433 	shl	8,r2
000001a6 6078            434 	sld.bu	0[ep],r15
000001a8 cf11            435 	add	r15,r2
000001aa 017efeff        436 	addi	-2,r1,r15
000001ae 0ff0            437 	mov	r15,ep
000001b0 c9f1            438 	add	r9,ep
000001b2 6078            439 	sld.bu	0[ep],r15
000001b4 d07a            440 	shl	16,r15
000001b6 c279            441 	add	r2,r15
000001b8 0116fdff        442 	addi	-3,r1,r2
000001bc 02f0            443 	mov	r2,ep
000001be c9f1            444 	add	r9,ep
000001c0 6010            445 	sld.bu	0[ep],r2
000001c2 d812            446 	shl	24,r2
000001c4 cf11            447 	add	r15,r2
                         448 --184: 					    + ((uint32_t) IPduObjPtr[StartPduByte - 2U] << 16U)
                         449 --185: 					    + ((uint32_t) IPduObjPtr[StartPduByte - 3U] << 24U);
                         450 --186: 					TempLong2 = IPduObjPtr[StartPduByte - 3U] + ((uint32_t) IPduObjPtr[StartPduByte - 4U] << 8U);
000001c6 017efdff        451 	addi	-3,r1,r15
000001ca 0ff0            452 	mov	r15,ep
000001cc c9f1            453 	add	r9,ep
000001ce 010efcff        454 	addi	-4,r1,r1
000001d2 c909            455 	add	r9,r1
000001d4 810f0100        456 	ld.bu	0[r1],r1
000001d8 c80a            457 	shl	8,r1
000001da 6078            458 	sld.bu	0[ep],r15
000001dc cf09            459 	add	r15,r1
000001de d525*           460 	br	.L29
                         461 .L27:
                         462 --187: 				}
                         463 --188: 				else
                         464 --189: 				{
                         465 --190: 					TempLong = IPduObjPtr[StartPduByte] + ((uint32_t) IPduObjPtr[StartPduByte + 1U] << 8U)
                         466 --line190
                         467 ..lin.D.3A.5CCANFDGwMcuFirmRH850F1x.5Ccode.5CCANFDGwMcuFirmRH850F1x.5CCANFDGwMcuFirmRH850F1x.5Cprj.5CGHS.20MULTI.5CCAN.20Gateway.5Coutput.5Cobj.5Cpe1.5CCom.17::
                         468 .LDWlin17:
000001e0 01f0            469 	mov	r1,ep
000001e2 c9f1            470 	add	r9,ep
000001e4 01160100        471 	addi	1,r1,r2
000001e8 c911            472 	add	r9,r2
000001ea 82170100        473 	ld.bu	0[r2],r2
000001ee c812            474 	shl	8,r2
000001f0 6078            475 	sld.bu	0[ep],r15
000001f2 cf11            476 	add	r15,r2
000001f4 017e0200        477 	addi	2,r1,r15

                                                                      Page 9
                                                              C:\Users\TIEZHU~1\AppData\Local\Temp\gh_00005js1.si
000001f8 0ff0            478 	mov	r15,ep
000001fa c9f1            479 	add	r9,ep
000001fc 6078            480 	sld.bu	0[ep],r15
000001fe d07a            481 	shl	16,r15
00000200 c279            482 	add	r2,r15
00000202 01160300        483 	addi	3,r1,r2
00000206 02f0            484 	mov	r2,ep
00000208 c9f1            485 	add	r9,ep
0000020a 6010            486 	sld.bu	0[ep],r2
0000020c d812            487 	shl	24,r2
0000020e cf11            488 	add	r15,r2
                         489 --191: 					    + ((uint32_t) IPduObjPtr[StartPduByte + 2U] << 16U)
                         490 --192: 					    + ((uint32_t) IPduObjPtr[StartPduByte + 3U] << 24U);
                         491 --193: 					TempLong2 = IPduObjPtr[StartPduByte + 3U] + ((uint32_t) IPduObjPtr[StartPduByte + 4U] << 8U);
00000210 017e0300        492 	addi	3,r1,r15
00000214 0ff0            493 	mov	r15,ep
00000216 c9f1            494 	add	r9,ep
00000218 010e0400        495 	addi	4,r1,r1
0000021c c909            496 	add	r9,r1
0000021e 810f0100        497 	ld.bu	0[r1],r1
00000222 c80a            498 	shl	8,r1
00000224 6078            499 	sld.bu	0[ep],r15
00000226 cf09            500 	add	r15,r1
                         501 .L29:
                         502 --194: 				}
                         503 --195: 				TempLong = (TempLong >> RightShift) & Mask;
00000228 f1178278        504 	shr	r17,r2,r15
0000022c 1010            505 	mov	r16,r2
0000022e 4f11            506 	and	r15,r2
                         507 --196: 				TempLong2 = (TempLong2 >> RightShift) & (Mask >> 24U);
00000230 f10f8288        508 	shr	r17,r1,r17
00000234 1008            509 	mov	r16,r1
00000236 980a            510 	shr	24,r1
00000238 5109            511 	and	r17,r1
                         512 --197: 				TempLong = TempLong | (TempLong2 << 24U);
0000023a d80a            513 	shl	24,r1
0000023c 0111            514 	or	r1,r2
                         515 .L4:
                         516 --198: 				break;
                         517 --199: 			default:
                         518 --200: 				/* Nothing here */
                         519 --201: 				break;
                         520 --202: 		}
                         521 --203: 	}
                         522 --205: 	/* ---- Convert to local signal's byte order ---- */
                         523 --206: 	SigByteSize = (BitLength >> 3U);
0000023e 1208            524 	mov	r18,r1
00000240 a30a            525 	sar	3,r1
00000242 8100            526 	zxb	r1
                         527 --207: 	if ((BitLength & 7U) != 0U)
00000244 d2960700        528 	andi	7,r18,r18
00000248 e091            529 	cmp	zero,r18
0000024a b205*           530 	be	.L31
                         531 --208: 	{
                         532 --209: 		SigByteSize += 1U;
                         533 --line209
                         534 ..lin.D.3A.5CCANFDGwMcuFirmRH850F1x.5Ccode.5CCANFDGwMcuFirmRH850F1x.5CCANFDGwMcuFirmRH850F1x.5Cprj.5CGHS.20MULTI.5CCAN.20Gateway.5Coutput.5Cobj.5Cpe1.5CCom.18::
                         535 .LDWlin18:
0000024c 410a            536 	add	1,r1
0000024e 8100            537 	zxb	r1
                         538 .L31:

                                                                      Page 10
                                                              C:\Users\TIEZHU~1\AppData\Local\Temp\gh_00005js1.si
                         539 --210: 	}
                         540 --211: 	/* Local CPU is little endian. */
                         541 --212: 	/* MISRA C:2012 Violation - Rule 11.5 */
                         542 --213: 	/* Justification - conversion on pointer is unavoidable */
                         543 --214: #if (CPU_BYTE_ORDER == LOW_BYTE_FIRST)
                         544 --215: 	switch (SigByteSize)
00000250 610a            545 	cmp	1,r1
00000252 f135*           546 	bl	.L38
00000254 e205*           547 	be	.L35
00000256 620a            548 	cmp	2,r1
00000258 b20d*           549 	be	.L36
0000025a 640a            550 	cmp	4,r1
0000025c f315*           551 	bnh	.L37
0000025e 9535*           552 	br	.L38
                         553 .L35:
                         554 --216: 	{
                         555 --217: 		case 1U:
                         556 --218: 			((uint8_t*) SigObjPtr)[0] = (uint8_t) (TempLong & 0xffUL);
                         557 --line218
                         558 ..lin.D.3A.5CCANFDGwMcuFirmRH850F1x.5Ccode.5CCANFDGwMcuFirmRH850F1x.5CCANFDGwMcuFirmRH850F1x.5Cprj.5CGHS.20MULTI.5CCAN.20Gateway.5Coutput.5Cobj.5Cpe1.5CCom.19::
                         559 .LDWlin19:
00000260 c20eff00        560 	andi	255,r2,r1
00000264 8100            561 	zxb	r1
00000266 530f0000        562 	st.b	r1,0[r19]
0000026a 80072e01*       563 	br	.L2
                         564 .L36:
                         565 --219: 			break;
                         566 --220: 		case 2U:
                         567 --221: 			((uint8_t*) SigObjPtr)[0] = (uint8_t) (TempLong & 0xffUL);
                         568 --line221
                         569 ..lin.D.3A.5CCANFDGwMcuFirmRH850F1x.5Ccode.5CCANFDGwMcuFirmRH850F1x.5CCANFDGwMcuFirmRH850F1x.5Cprj.5CGHS.20MULTI.5CCAN.20Gateway.5Coutput.5Cobj.5Cpe1.5CCom.20::
                         570 .LDWlin20:
0000026e c20eff00        571 	andi	255,r2,r1
00000272 8100            572 	zxb	r1
00000274 530f0000        573 	st.b	r1,0[r19]
                         574 --222: 			((uint8_t*) SigObjPtr)[1] = (uint8_t) ((TempLong >> 8U) & 0xffUL);
00000278 13f60100        575 	addi	1,r19,ep
0000027c 0208            576 	mov	r2,r1
0000027e 880a            577 	shr	8,r1
00000280 8100            578 	zxb	r1
00000282 8100            579 	zxb	r1
00000284 800b            580 	sst.b	r1,0[ep]
00000286 80071201*       581 	br	.L2
                         582 .L37:
                         583 --223: 			break;
                         584 --224: 		case 3U:
                         585 --225: 		case 4U:
                         586 --226: 			((uint8_t*) SigObjPtr)[0] = (uint8_t) (TempLong & 0xffUL);
                         587 --line226
                         588 ..lin.D.3A.5CCANFDGwMcuFirmRH850F1x.5Ccode.5CCANFDGwMcuFirmRH850F1x.5CCANFDGwMcuFirmRH850F1x.5Cprj.5CGHS.20MULTI.5CCAN.20Gateway.5Coutput.5Cobj.5Cpe1.5CCom.21::
                         589 .LDWlin21:
0000028a c20eff00        590 	andi	255,r2,r1
0000028e 8100            591 	zxb	r1
00000290 530f0000        592 	st.b	r1,0[r19]
                         593 --227: 			((uint8_t*) SigObjPtr)[1] = (uint8_t) ((TempLong >> 8U) & 0xffUL);
00000294 13f60100        594 	addi	1,r19,ep
00000298 0208            595 	mov	r2,r1
0000029a 880a            596 	shr	8,r1
0000029c 8100            597 	zxb	r1
0000029e 8100            598 	zxb	r1
000002a0 800b            599 	sst.b	r1,0[ep]

                                                                      Page 11
                                                              C:\Users\TIEZHU~1\AppData\Local\Temp\gh_00005js1.si
                         600 --228: 			((uint8_t*) SigObjPtr)[2] = (uint8_t) ((TempLong >> 16U) & 0xffUL);
000002a2 13f60200        601 	addi	2,r19,ep
000002a6 0208            602 	mov	r2,r1
000002a8 900a            603 	shr	16,r1
000002aa 8100            604 	zxb	r1
000002ac 8100            605 	zxb	r1
000002ae 800b            606 	sst.b	r1,0[ep]
                         607 --229: 			((uint8_t*) SigObjPtr)[3] = (uint8_t) ((TempLong >> 24U) & 0xffUL);
000002b0 13f60300        608 	addi	3,r19,ep
000002b4 0208            609 	mov	r2,r1
000002b6 980a            610 	shr	24,r1
000002b8 8100            611 	zxb	r1
000002ba 8100            612 	zxb	r1
000002bc 800b            613 	sst.b	r1,0[ep]
000002be d56d*           614 	br	.L2
                         615 .L38:
                         616 --230: 			break;
                         617 --231: 		default:
                         618 --232: 			if (Endianess == COM_SIG_BIG_ENDIAN)
                         619 --line232
                         620 ..lin.D.3A.5CCANFDGwMcuFirmRH850F1x.5Ccode.5CCANFDGwMcuFirmRH850F1x.5CCANFDGwMcuFirmRH850F1x.5Cprj.5CGHS.20MULTI.5CCAN.20Gateway.5Coutput.5Cobj.5Cpe1.5CCom.22::
                         621 .LDWlin22:
000002c0 e039            622 	cmp	zero,r7
000002c2 ea35*           623 	bne	.L39
                         624 --233: 			{
                         625 --234: 				((uint8_t*) SigObjPtr)[0] = IPduObjPtr[7];
                         626 --line234
                         627 ..lin.D.3A.5CCANFDGwMcuFirmRH850F1x.5Ccode.5CCANFDGwMcuFirmRH850F1x.5CCANFDGwMcuFirmRH850F1x.5Cprj.5CGHS.20MULTI.5CCAN.20Gateway.5Coutput.5Cobj.5Cpe1.5CCom.23::
                         628 .LDWlin23:
000002c4 09f60700        629 	addi	7,r9,ep
000002c8 6008            630 	sld.bu	0[ep],r1
000002ca 530f0000        631 	st.b	r1,0[r19]
                         632 --235: 				((uint8_t*) SigObjPtr)[1] = IPduObjPtr[6];
000002ce 13f60100        633 	addi	1,r19,ep
000002d2 090e0600        634 	addi	6,r9,r1
000002d6 810f0100        635 	ld.bu	0[r1],r1
000002da 800b            636 	sst.b	r1,0[ep]
                         637 --236: 				((uint8_t*) SigObjPtr)[2] = IPduObjPtr[5];
000002dc 13f60200        638 	addi	2,r19,ep
000002e0 090e0500        639 	addi	5,r9,r1
000002e4 810f0100        640 	ld.bu	0[r1],r1
000002e8 800b            641 	sst.b	r1,0[ep]
                         642 --237: 				((uint8_t*) SigObjPtr)[3] = IPduObjPtr[4];
000002ea 13f60300        643 	addi	3,r19,ep
000002ee 090e0400        644 	addi	4,r9,r1
000002f2 810f0100        645 	ld.bu	0[r1],r1
000002f6 800b            646 	sst.b	r1,0[ep]
                         647 --238: 				((uint8_t*) SigObjPtr)[4] = IPduObjPtr[3];
000002f8 13f60400        648 	addi	4,r19,ep
000002fc 090e0300        649 	addi	3,r9,r1
00000300 810f0100        650 	ld.bu	0[r1],r1
00000304 800b            651 	sst.b	r1,0[ep]
                         652 --239: 				((uint8_t*) SigObjPtr)[5] = IPduObjPtr[2];
00000306 13f60500        653 	addi	5,r19,ep
0000030a 090e0200        654 	addi	2,r9,r1
0000030e 810f0100        655 	ld.bu	0[r1],r1
00000312 800b            656 	sst.b	r1,0[ep]
                         657 --240: 				((uint8_t*) SigObjPtr)[6] = IPduObjPtr[1];
00000314 13f60600        658 	addi	6,r19,ep
00000318 090e0100        659 	addi	1,r9,r1
0000031c 810f0100        660 	ld.bu	0[r1],r1

                                                                      Page 12
                                                              C:\Users\TIEZHU~1\AppData\Local\Temp\gh_00005js1.si
00000320 800b            661 	sst.b	r1,0[ep]
                         662 --241: 				((uint8_t*) SigObjPtr)[7] = IPduObjPtr[0];
00000322 13f60700        663 	addi	7,r19,ep
00000326 890f0100        664 	ld.bu	0[r9],r1
0000032a 800b            665 	sst.b	r1,0[ep]
0000032c e535*           666 	br	.L2
                         667 .L39:
                         668 --242: 			}
                         669 --243: 			else
                         670 --244: 			{
                         671 --245: 				((uint8_t*) SigObjPtr)[0] = IPduObjPtr[0];
                         672 --line245
                         673 ..lin.D.3A.5CCANFDGwMcuFirmRH850F1x.5Ccode.5CCANFDGwMcuFirmRH850F1x.5CCANFDGwMcuFirmRH850F1x.5Cprj.5CGHS.20MULTI.5CCAN.20Gateway.5Coutput.5Cobj.5Cpe1.5CCom.24::
                         674 .LDWlin24:
0000032e 890f0100        675 	ld.bu	0[r9],r1
00000332 530f0000        676 	st.b	r1,0[r19]
                         677 --246: 				((uint8_t*) SigObjPtr)[1] = IPduObjPtr[1];
00000336 13f60100        678 	addi	1,r19,ep
0000033a 090e0100        679 	addi	1,r9,r1
0000033e 810f0100        680 	ld.bu	0[r1],r1
00000342 800b            681 	sst.b	r1,0[ep]
                         682 --247: 				((uint8_t*) SigObjPtr)[2] = IPduObjPtr[2];
00000344 13f60200        683 	addi	2,r19,ep
00000348 090e0200        684 	addi	2,r9,r1
0000034c 810f0100        685 	ld.bu	0[r1],r1
00000350 800b            686 	sst.b	r1,0[ep]
                         687 --248: 				((uint8_t*) SigObjPtr)[3] = IPduObjPtr[3];
00000352 13f60300        688 	addi	3,r19,ep
00000356 090e0300        689 	addi	3,r9,r1
0000035a 810f0100        690 	ld.bu	0[r1],r1
0000035e 800b            691 	sst.b	r1,0[ep]
                         692 --249: 				((uint8_t*) SigObjPtr)[4] = IPduObjPtr[4];
00000360 13f60400        693 	addi	4,r19,ep
00000364 090e0400        694 	addi	4,r9,r1
00000368 810f0100        695 	ld.bu	0[r1],r1
0000036c 800b            696 	sst.b	r1,0[ep]
                         697 --250: 				((uint8_t*) SigObjPtr)[5] = IPduObjPtr[5];
0000036e 13f60500        698 	addi	5,r19,ep
00000372 090e0500        699 	addi	5,r9,r1
00000376 810f0100        700 	ld.bu	0[r1],r1
0000037a 800b            701 	sst.b	r1,0[ep]
                         702 --251: 				((uint8_t*) SigObjPtr)[6] = IPduObjPtr[6];
0000037c 13f60600        703 	addi	6,r19,ep
00000380 090e0600        704 	addi	6,r9,r1
00000384 810f0100        705 	ld.bu	0[r1],r1
00000388 800b            706 	sst.b	r1,0[ep]
                         707 --252: 				((uint8_t*) SigObjPtr)[7] = IPduObjPtr[7];
0000038a 130e0700        708 	addi	7,r19,r1
0000038e 09f60700        709 	addi	7,r9,ep
00000392 6010            710 	sld.bu	0[ep],r2
00000394 41170000        711 	st.b	r2,0[r1]
                         712 .L2:
                         713 --253: 			}
                         714 --254: 			break;
                         715 --255: 	}
                         716 --256: #else
                         717 --257: 	/* Local CPU is big endian. */
                         718 --258: 	switch (SigByteSize)
                         719 --259: 	{
                         720 --260: 		case 1U:
                         721 --261: 		((uint8_t*) SigObjPtr)[0] = (uint8_t) (TempLong & 0xffUL);

                                                                      Page 13
                                                              C:\Users\TIEZHU~1\AppData\Local\Temp\gh_00005js1.si
                         722 --262: 		break;
                         723 --263: 		case 2U:
                         724 --264: 		((uint8_t*) SigObjPtr)[0] = (uint8_t)((TempLong >> 8U) & 0xffUL);
                         725 --265: 		((uint8_t*) SigObjPtr)[1] = (uint8_t)(TempLong & 0xffUL);
                         726 --266: 		break;
                         727 --267: 		case 3U:
                         728 --268: 		case 4U:
                         729 --269: 		((uint8_t*) SigObjPtr)[0] = (uint8_t)((TempLong >> 24U) & 0xffUL);
                         730 --270: 		((uint8_t*) SigObjPtr)[1] = (uint8_t)((TempLong >> 16U) & 0xffUL);
                         731 --271: 		((uint8_t*) SigObjPtr)[2] = (uint8_t)((TempLong >> 8U) & 0xffUL);
                         732 --272: 		((uint8_t*) SigObjPtr)[3] = (uint8_t)(TempLong & 0xffUL);
                         733 --273: 		break;
                         734 --274: 		default:
                         735 --275: 		if(Endianess == COM_SIG_BIG_ENDIAN)
                         736 --276: 		{
                         737 --277: 			((uint8_t*)SigObjPtr)[0] = IPduObjPtr[0];
                         738 --278: 			((uint8_t*)SigObjPtr)[1] = IPduObjPtr[1];
                         739 --279: 			((uint8_t*)SigObjPtr)[2] = IPduObjPtr[2];
                         740 --280: 			((uint8_t*)SigObjPtr)[3] = IPduObjPtr[3];
                         741 --281: 			((uint8_t*)SigObjPtr)[4] = IPduObjPtr[4];
                         742 --282: 			((uint8_t*)SigObjPtr)[5] = IPduObjPtr[5];
                         743 --283: 			((uint8_t*)SigObjPtr)[6] = IPduObjPtr[6];
                         744 --284: 			((uint8_t*)SigObjPtr)[7] = IPduObjPtr[7];
                         745 --285: 		}
                         746 --286: 		else
                         747 --287: 		{
                         748 --288: 			((uint8_t*)SigObjPtr)[0] = IPduObjPtr[7];
                         749 --289: 			((uint8_t*)SigObjPtr)[1] = IPduObjPtr[6];
                         750 --290: 			((uint8_t*)SigObjPtr)[2] = IPduObjPtr[5];
                         751 --291: 			((uint8_t*)SigObjPtr)[3] = IPduObjPtr[4];
                         752 --292: 			((uint8_t*)SigObjPtr)[4] = IPduObjPtr[3];
                         753 --293: 			((uint8_t*)SigObjPtr)[5] = IPduObjPtr[2];
                         754 --294: 			((uint8_t*)SigObjPtr)[6] = IPduObjPtr[1];
                         755 --295: 			((uint8_t*)SigObjPtr)[7] = IPduObjPtr[0];
                         756 --296: 		}
                         757 --297: 		break;
                         758 --298: 	}
                         759 --299: #endif
                         760 --300: } /* End of com_unpack_one_signal() */
                         761 --	    .ef
                         762 .LDW11:
00000398 7f00            763 	jmp	[lp]
                         764 	.type	_com_unpack_one_signal,@function
                         765 	.size	_com_unpack_one_signal,.-_com_unpack_one_signal
                         766 	.type	_com_unpack_one_signal..D.3A.5CCANFDGwMcuFirmRH850F1x.5Ccode.5CCANFDGwMcuFirmRH850F1x.5CCANFDGwMcuFirmRH850F1x.5Cprj.5CGHS.20MULTI.5CCAN.20Gateway.5Coutput.5Cobj.5Cpe1.5CCom.,@function
                         767 	.size	_com_unpack_one_signal..D.3A.5CCANFDGwMcuFirmRH850F1x.5Ccode.5CCANFDGwMcuFirmRH850F1x.5CCANFDGwMcuFirmRH850F1x.5Cprj.5CGHS.20MULTI.5CCAN.20Gateway.5Coutput.5Cobj.5Cpe1.5CCom.,.-_com_unpack_one_signal..D.3A.5CCANFDGwMcuFirmRH850F1x.5Ccode.5CCANFDGwMcuFirmRH850F1x.5CCANFDGwMcuFirmRH850F1x.5Cprj.5CGHS.20MULTI.5CCAN.20Gateway.5Coutput.5Cobj.5Cpe1.5CCom.
                         768 	.align	2
                         769 .LDW21:
                         770 --_TempLong	r2	local
                         771 --_TempLong2	r1	local
                         772 --_Mask	r16	local
                         773 --_BitLength	r18	local
                         774 --_StartPduByte	r1	local
                         775 --_PduBytes	r15	local
                         776 --_RightShift	r17	local
                         777 --_SigByteSize	r1	local
                         778 
                         779 --_StartBit	r6	param
                         780 --_Endianess	r7	param
                         781 --_SigCfgPtr	ep	param
                         782 --_IPduObjPtr	r9	param

                                                                      Page 14
                                                              C:\Users\TIEZHU~1\AppData\Local\Temp\gh_00005js1.si
                         783 --_SigObjPtr	r19	param
                         784 
                         785 	.data
                         786 	.text
                         787 
                         788 
                         789 --302: /***********************************************************************************************************************
                         790 --303:  * Function Name: com_pack_one_signal
                         791 --304:  * Description  : Pack one signal into specified IPDU and do necessary endianness conversion.
                         792 --305:  * Arguments    : StartBit -
                         793 --306:  *                  Signal start bit in specified IPDU.
                         794 --307:  *                SigCfgPtr -
                         795 --308:  *                  Pointer to signal config.
                         796 --309:  *                IPduObjPtr -
                         797 --310:  *                  Pointer to specified IPDU object.
                         798 --311:  *                SigObjPtr -
                         799 --312:  *                  Pointer to signal object that stores result.
                         800 --313:  * Return Value : void
                         801 --314:  ***********************************************************************************************************************/
                         802 --315: static void com_pack_one_signal(uint16_t StartBit, com_signal_endianess_t Endianess, const com_signal_cfg_t* SigCfgPtr,
                         803 	.align	2
                         804 	.align	2
                         805 	.global	_com_pack_one_signal..D.3A.5CCANFDGwMcuFirmRH850F1x.5Ccode.5CCANFDGwMcuFirmRH850F1x.5CCANFDGwMcuFirmRH850F1x.5Cprj.5CGHS.20MULTI.5CCAN.20Gateway.5Coutput.5Cobj.5Cpe1.5CCom.
                         806 _com_pack_one_signal..D.3A.5CCANFDGwMcuFirmRH850F1x.5Ccode.5CCANFDGwMcuFirmRH850F1x.5CCANFDGwMcuFirmRH850F1x.5Cprj.5CGHS.20MULTI.5CCAN.20Gateway.5Coutput.5Cobj.5Cpe1.5CCom.:
                         807 _com_pack_one_signal:
0000039a c600            808 	zxh	r6
0000039c 08f0            809 	mov	r8,ep
0000039e 239f0100        810 	ld.w	0[sp],r19
                         811 --	    .bf
                         812 .LDW31:
                         813 --316:                                 uint8_t* IPduObjPtr, const void* SigObjPtr)
                         814 --317: {
                         815 --318: 	uint32_t TempLong;
                         816 --319: 	uint32_t TempLong2;
                         817 --320: 	uint32_t SigLong;
                         818 --321: 	uint32_t SigLong2;
                         819 --322: 	uint32_t Mask;
                         820 --323: 	uint32_t Mask2;
                         821 --324: 	uint8_t BitLength;
                         822 --325: 	uint8_t StartPduByte;
                         823 --326: 	uint8_t PduBytes;
                         824 --327: 	uint16_t BitOffset;
                         825 --328: 	uint8_t SigByteSize;
                         826 --330: 	TempLong = 0UL;
000003a2 0012            827 	mov	0,r2
                         828 --331: 	TempLong2 = 0UL;
000003a4 0082            829 	mov	0,r16
                         830 --332: 	SigLong = 0UL;
000003a6 0092            831 	mov	0,r18
                         832 --333: 	SigLong2 = 0UL;
000003a8 007a            833 	mov	0,r15
                         834 --334: 	BitLength = SigCfgPtr->BitSize;
000003aa 6210            835 	sld.bu	2[ep],r2
                         836 --336: 	if (BitLength > 32U)
000003ac 0206dfff        837 	addi	-33,r2,zero
000003b0 8975*           838 	bnl	.L248
                         839 --337: 	{
                         840 --338: 		/* MISRA C:2012 Violation - Rule 11.5 */
                         841 --339: 		/* Justification - conversion on pointer is unavoidable */
                         842 --340: #if (CPU_BYTE_ORDER == LOW_BYTE_FIRST)
                         843 --341: 		if (Endianess == COM_SIG_BIG_ENDIAN)

                                                                      Page 15
                                                              C:\Users\TIEZHU~1\AppData\Local\Temp\gh_00005js1.si
                         844 --line341
                         845 ..lin.D.3A.5CCANFDGwMcuFirmRH850F1x.5Ccode.5CCANFDGwMcuFirmRH850F1x.5CCANFDGwMcuFirmRH850F1x.5Cprj.5CGHS.20MULTI.5CCAN.20Gateway.5Coutput.5Cobj.5Cpe1.5CCom.25::
                         846 .LDWlin25:
000003b2 e039            847 	cmp	zero,r7
000003b4 fa35*           848 	bne	.L250
                         849 --342: 		{
                         850 --343: 			IPduObjPtr[7] = ((const uint8_t*) SigObjPtr)[0];
                         851 --line343
                         852 ..lin.D.3A.5CCANFDGwMcuFirmRH850F1x.5Ccode.5CCANFDGwMcuFirmRH850F1x.5CCANFDGwMcuFirmRH850F1x.5Cprj.5CGHS.20MULTI.5CCAN.20Gateway.5Coutput.5Cobj.5Cpe1.5CCom.26::
                         853 .LDWlin26:
000003b6 09f60700        854 	addi	7,r9,ep
000003ba 930f0100        855 	ld.bu	0[r19],r1
000003be 800b            856 	sst.b	r1,0[ep]
                         857 --344: 			IPduObjPtr[6] = ((const uint8_t*) SigObjPtr)[1];
000003c0 09f60600        858 	addi	6,r9,ep
000003c4 130e0100        859 	addi	1,r19,r1
000003c8 810f0100        860 	ld.bu	0[r1],r1
000003cc 800b            861 	sst.b	r1,0[ep]
                         862 --345: 			IPduObjPtr[5] = ((const uint8_t*) SigObjPtr)[2];
000003ce 09f60500        863 	addi	5,r9,ep
000003d2 130e0200        864 	addi	2,r19,r1
000003d6 810f0100        865 	ld.bu	0[r1],r1
000003da 800b            866 	sst.b	r1,0[ep]
                         867 --346: 			IPduObjPtr[4] = ((const uint8_t*) SigObjPtr)[3];
000003dc 09f60400        868 	addi	4,r9,ep
000003e0 130e0300        869 	addi	3,r19,r1
000003e4 810f0100        870 	ld.bu	0[r1],r1
000003e8 800b            871 	sst.b	r1,0[ep]
                         872 --347: 			IPduObjPtr[3] = ((const uint8_t*) SigObjPtr)[4];
000003ea 09f60300        873 	addi	3,r9,ep
000003ee 130e0400        874 	addi	4,r19,r1
000003f2 810f0100        875 	ld.bu	0[r1],r1
000003f6 800b            876 	sst.b	r1,0[ep]
                         877 --348: 			IPduObjPtr[2] = ((const uint8_t*) SigObjPtr)[5];
000003f8 09f60200        878 	addi	2,r9,ep
000003fc 130e0500        879 	addi	5,r19,r1
00000400 810f0100        880 	ld.bu	0[r1],r1
00000404 800b            881 	sst.b	r1,0[ep]
                         882 --349: 			IPduObjPtr[1] = ((const uint8_t*) SigObjPtr)[6];
00000406 09f60100        883 	addi	1,r9,ep
0000040a 130e0600        884 	addi	6,r19,r1
0000040e 810f0100        885 	ld.bu	0[r1],r1
00000412 800b            886 	sst.b	r1,0[ep]
                         887 --350: 			IPduObjPtr[0] = ((const uint8_t*) SigObjPtr)[7];
00000414 13f60700        888 	addi	7,r19,ep
00000418 6008            889 	sld.bu	0[ep],r1
0000041a 490f0000        890 	st.b	r1,0[r9]
0000041e 8007e004*       891 	br	.L246
                         892 .L250:
                         893 --351: 		}
                         894 --352: 		else
                         895 --353: 		{
                         896 --354: 			IPduObjPtr[0] = ((const uint8_t*) SigObjPtr)[0];
                         897 --line354
                         898 ..lin.D.3A.5CCANFDGwMcuFirmRH850F1x.5Ccode.5CCANFDGwMcuFirmRH850F1x.5CCANFDGwMcuFirmRH850F1x.5Cprj.5CGHS.20MULTI.5CCAN.20Gateway.5Coutput.5Cobj.5Cpe1.5CCom.27::
                         899 .LDWlin27:
00000422 930f0100        900 	ld.bu	0[r19],r1
00000426 490f0000        901 	st.b	r1,0[r9]
                         902 --355: 			IPduObjPtr[1] = ((const uint8_t*) SigObjPtr)[1];
0000042a 09f60100        903 	addi	1,r9,ep
0000042e 130e0100        904 	addi	1,r19,r1

                                                                      Page 16
                                                              C:\Users\TIEZHU~1\AppData\Local\Temp\gh_00005js1.si
00000432 810f0100        905 	ld.bu	0[r1],r1
00000436 800b            906 	sst.b	r1,0[ep]
                         907 --356: 			IPduObjPtr[2] = ((const uint8_t*) SigObjPtr)[2];
00000438 09f60200        908 	addi	2,r9,ep
0000043c 130e0200        909 	addi	2,r19,r1
00000440 810f0100        910 	ld.bu	0[r1],r1
00000444 800b            911 	sst.b	r1,0[ep]
                         912 --357: 			IPduObjPtr[3] = ((const uint8_t*) SigObjPtr)[3];
00000446 09f60300        913 	addi	3,r9,ep
0000044a 130e0300        914 	addi	3,r19,r1
0000044e 810f0100        915 	ld.bu	0[r1],r1
00000452 800b            916 	sst.b	r1,0[ep]
                         917 --358: 			IPduObjPtr[4] = ((const uint8_t*) SigObjPtr)[4];
00000454 09f60400        918 	addi	4,r9,ep
00000458 130e0400        919 	addi	4,r19,r1
0000045c 810f0100        920 	ld.bu	0[r1],r1
00000460 800b            921 	sst.b	r1,0[ep]
                         922 --359: 			IPduObjPtr[5] = ((const uint8_t*) SigObjPtr)[5];
00000462 09f60500        923 	addi	5,r9,ep
00000466 130e0500        924 	addi	5,r19,r1
0000046a 810f0100        925 	ld.bu	0[r1],r1
0000046e 800b            926 	sst.b	r1,0[ep]
                         927 --360: 			IPduObjPtr[6] = ((const uint8_t*) SigObjPtr)[6];
00000470 09f60600        928 	addi	6,r9,ep
00000474 130e0600        929 	addi	6,r19,r1
00000478 810f0100        930 	ld.bu	0[r1],r1
0000047c 800b            931 	sst.b	r1,0[ep]
                         932 --361: 			IPduObjPtr[7] = ((const uint8_t*) SigObjPtr)[7];
0000047e 090e0700        933 	addi	7,r9,r1
00000482 13f60700        934 	addi	7,r19,ep
00000486 6010            935 	sld.bu	0[ep],r2
00000488 41170000        936 	st.b	r2,0[r1]
0000048c 80077204*       937 	br	.L246
                         938 .L248:
                         939 --362: 		}
                         940 --363: #else
                         941 --364: 		if(Endianess == COM_SIG_BIG_ENDIAN)
                         942 --365: 		{
                         943 --366: 			IPduObjPtr[0] = ((const uint8_t*) SigObjPtr)[0];
                         944 --367: 			IPduObjPtr[1] = ((const uint8_t*) SigObjPtr)[1];
                         945 --368: 			IPduObjPtr[2] = ((const uint8_t*) SigObjPtr)[2];
                         946 --369: 			IPduObjPtr[3] = ((const uint8_t*) SigObjPtr)[3];
                         947 --370: 			IPduObjPtr[4] = ((const uint8_t*) SigObjPtr)[4];
                         948 --371: 			IPduObjPtr[5] = ((const uint8_t*) SigObjPtr)[5];
                         949 --372: 			IPduObjPtr[6] = ((const uint8_t*) SigObjPtr)[6];
                         950 --373: 			IPduObjPtr[7] = ((const uint8_t*) SigObjPtr)[7];
                         951 --374: 		}
                         952 --375: 		else
                         953 --376: 		{
                         954 --377: 			IPduObjPtr[7] = ((const uint8_t*) SigObjPtr)[0];
                         955 --378: 			IPduObjPtr[6] = ((const uint8_t*) SigObjPtr)[1];
                         956 --379: 			IPduObjPtr[5] = ((const uint8_t*) SigObjPtr)[2];
                         957 --380: 			IPduObjPtr[4] = ((const uint8_t*) SigObjPtr)[3];
                         958 --381: 			IPduObjPtr[3] = ((const uint8_t*) SigObjPtr)[4];
                         959 --382: 			IPduObjPtr[2] = ((const uint8_t*) SigObjPtr)[5];
                         960 --383: 			IPduObjPtr[1] = ((const uint8_t*) SigObjPtr)[6];
                         961 --384: 			IPduObjPtr[0] = ((const uint8_t*) SigObjPtr)[7];
                         962 --385: 		}
                         963 --386: #endif
                         964 --387: 	}
                         965 --388: 	else

                                                                      Page 17
                                                              C:\Users\TIEZHU~1\AppData\Local\Temp\gh_00005js1.si
                         966 --389: 	{
                         967 --390: 		/* ---- Get necessary information. ---- */
                         968 --391: 		BitOffset = StartBit & 0x7U;
                         969 --line391
                         970 ..lin.D.3A.5CCANFDGwMcuFirmRH850F1x.5Ccode.5CCANFDGwMcuFirmRH850F1x.5CCANFDGwMcuFirmRH850F1x.5Cprj.5CGHS.20MULTI.5CCAN.20Gateway.5Coutput.5Cobj.5Cpe1.5CCom.28::
                         971 .LDWlin28:
00000490 c60e0700        972 	andi	7,r6,r1
00000494 c100            973 	zxh	r1
00000496 0180            974 	mov	r1,r16
                         975 --392: 		PduBytes = (uint8_t) ((BitLength + BitOffset) >> 3U);
00000498 1008            976 	mov	r16,r1
0000049a c209            977 	add	r2,r1
0000049c a30a            978 	sar	3,r1
0000049e 8100            979 	zxb	r1
000004a0 0170            980 	mov	r1,r14
                         981 --393: 		if (((BitLength + BitOffset) & 0x7U) != 0U)
000004a2 1008            982 	mov	r16,r1
000004a4 c209            983 	add	r2,r1
000004a6 c10e0700        984 	andi	7,r1,r1
000004aa e009            985 	cmp	zero,r1
000004ac b205*           986 	be	.L254
                         987 --394: 		{
                         988 --395: 			PduBytes = PduBytes + 1U;
                         989 --line395
                         990 ..lin.D.3A.5CCANFDGwMcuFirmRH850F1x.5Ccode.5CCANFDGwMcuFirmRH850F1x.5CCANFDGwMcuFirmRH850F1x.5Cprj.5CGHS.20MULTI.5CCAN.20Gateway.5Coutput.5Cobj.5Cpe1.5CCom.29::
                         991 .LDWlin29:
000004ae 4172            992 	add	1,r14
000004b0 8e00            993 	zxb	r14
                         994 .L254:
                         995 --396: 		}
                         996 --397: 		StartPduByte = (uint8_t) (StartBit >> 3U);
000004b2 0608            997 	mov	r6,r1
000004b4 a30a            998 	sar	3,r1
000004b6 8100            999 	zxb	r1
                        1000 --398: 		if (BitLength == 32U)
000004b8 0206e0ff       1001 	addi	-32,r2,zero
000004bc ba05*          1002 	bne	.L256
                        1003 --399: 		{
                        1004 --400: 			Mask = 0xffffffffUL;
                        1005 --line400
                        1006 ..lin.D.3A.5CCANFDGwMcuFirmRH850F1x.5Ccode.5CCANFDGwMcuFirmRH850F1x.5CCANFDGwMcuFirmRH850F1x.5Cprj.5CGHS.20MULTI.5CCAN.20Gateway.5Coutput.5Cobj.5Cpe1.5CCom.30::
                        1007 .LDWlin30:
000004be 1f8a           1008 	mov	-1,r17
000004c0 e505*          1009 	br	.L258
                        1010 .L256:
                        1011 --401: 		}
                        1012 --402: 		else
                        1013 --403: 		{
                        1014 --404: 			Mask = (uint32_t) ((1UL << BitLength) - 1UL);
                        1015 --line404
                        1016 ..lin.D.3A.5CCANFDGwMcuFirmRH850F1x.5Ccode.5CCANFDGwMcuFirmRH850F1x.5CCANFDGwMcuFirmRH850F1x.5Cprj.5CGHS.20MULTI.5CCAN.20Gateway.5Coutput.5Cobj.5Cpe1.5CCom.31::
                        1017 .LDWlin31:
000004c2 018a           1018 	mov	1,r17
000004c4 e28fc288       1019 	shl	r2,r17,r17
000004c8 118effff       1020 	addi	-1,r17,r17
                        1021 .L258:
                        1022 --405: 		}
                        1023 --406: 		Mask2 = ((Mask >> 24U) << BitOffset) >> 8U;
000004cc 1168           1024 	mov	r17,r13
000004ce 986a           1025 	shr	24,r13
000004d0 f06fc268       1026 	shl	r16,r13,r13

                                                                      Page 18
                                                              C:\Users\TIEZHU~1\AppData\Local\Temp\gh_00005js1.si
000004d4 0d60           1027 	mov	r13,r12
000004d6 8862           1028 	shr	8,r12
                        1029 --407: 		Mask = Mask << BitOffset;
000004d8 f08fc288       1030 	shl	r16,r17,r17
                        1031 --409: 		/* ---- Get and offset signal. ---- */
                        1032 --410: 		SigByteSize = (BitLength >> 3U);
000004dc 0268           1033 	mov	r2,r13
000004de a36a           1034 	sar	3,r13
000004e0 8d00           1035 	zxb	r13
                        1036 --411: 		if ((BitLength & 7U) != 0U)
000004e2 c2160700       1037 	andi	7,r2,r2
000004e6 e011           1038 	cmp	zero,r2
000004e8 b205*          1039 	be	.L259
                        1040 --412: 		{
                        1041 --413: 			SigByteSize += 1U;
                        1042 --line413
                        1043 ..lin.D.3A.5CCANFDGwMcuFirmRH850F1x.5Ccode.5CCANFDGwMcuFirmRH850F1x.5CCANFDGwMcuFirmRH850F1x.5Cprj.5CGHS.20MULTI.5CCAN.20Gateway.5Coutput.5Cobj.5Cpe1.5CCom.32::
                        1044 .LDWlin32:
000004ea 416a           1045 	add	1,r13
000004ec 8d00           1046 	zxb	r13
                        1047 .L259:
                        1048 --414: 		}
                        1049 --415: 		/* MISRA C:2012 Violation - Rule 11.5 */
                        1050 --416: 		/* Justification - conversion on pointer is unavoidable */
                        1051 --417: #if (CPU_BYTE_ORDER == LOW_BYTE_FIRST)
                        1052 --418: 		switch (SigByteSize)
000004ee 0d10           1053 	mov	r13,r2
000004f0 6112           1054 	cmp	1,r2
000004f2 a135*          1055 	bl	.L261
000004f4 e205*          1056 	be	.L263
000004f6 6212           1057 	cmp	2,r2
000004f8 920d*          1058 	be	.L264
000004fa 6412           1059 	cmp	4,r2
000004fc a315*          1060 	bnh	.L265
000004fe c52d*          1061 	br	.L261
                        1062 .L263:
                        1063 --419: 		{
                        1064 --420: 			case 1U:
                        1065 --421: 				SigLong = (uint32_t) ((const uint8_t*) SigObjPtr)[0];
                        1066 --line421
                        1067 ..lin.D.3A.5CCANFDGwMcuFirmRH850F1x.5Ccode.5CCANFDGwMcuFirmRH850F1x.5CCANFDGwMcuFirmRH850F1x.5Cprj.5CGHS.20MULTI.5CCAN.20Gateway.5Coutput.5Cobj.5Cpe1.5CCom.33::
                        1068 .LDWlin33:
00000500 93970100       1069 	ld.bu	0[r19],r18
                        1070 --422: 				SigLong = SigLong << BitOffset;
00000504 f097c290       1071 	shl	r16,r18,r18
00000508 f525*          1072 	br	.L261
                        1073 .L264:
                        1074 --423: 				break;
                        1075 --424: 			case 2U:
                        1076 --425: 				SigLong = (uint32_t) ((const uint8_t*) SigObjPtr)[0]
                        1077 --line425
                        1078 ..lin.D.3A.5CCANFDGwMcuFirmRH850F1x.5Ccode.5CCANFDGwMcuFirmRH850F1x.5CCANFDGwMcuFirmRH850F1x.5Cprj.5CGHS.20MULTI.5CCAN.20Gateway.5Coutput.5Cobj.5Cpe1.5CCom.34::
                        1079 .LDWlin34:
0000050a 13f60100       1080 	addi	1,r19,ep
0000050e 6010           1081 	sld.bu	0[ep],r2
00000510 c812           1082 	shl	8,r2
00000512 939f0100       1083 	ld.bu	0[r19],r19
00000516 0290           1084 	mov	r2,r18
00000518 d391           1085 	add	r19,r18
                        1086 --426: 				    + ((uint32_t) ((const uint8_t*) SigObjPtr)[1] << 8U);
                        1087 --427: 				SigLong = SigLong << BitOffset;

                                                                      Page 19
                                                              C:\Users\TIEZHU~1\AppData\Local\Temp\gh_00005js1.si
0000051a f097c290       1088 	shl	r16,r18,r18
0000051e c51d*          1089 	br	.L261
                        1090 .L265:
                        1091 --428: 				break;
                        1092 --429: 			case 3U:
                        1093 --430: 			case 4U:
                        1094 --431: 				SigLong = (uint32_t) ((const uint8_t*) SigObjPtr)[0]
                        1095 --line431
                        1096 ..lin.D.3A.5CCANFDGwMcuFirmRH850F1x.5Ccode.5CCANFDGwMcuFirmRH850F1x.5CCANFDGwMcuFirmRH850F1x.5Cprj.5CGHS.20MULTI.5CCAN.20Gateway.5Coutput.5Cobj.5Cpe1.5CCom.35::
                        1097 .LDWlin35:
00000520 13f60100       1098 	addi	1,r19,ep
00000524 6010           1099 	sld.bu	0[ep],r2
00000526 c812           1100 	shl	8,r2
00000528 93970100       1101 	ld.bu	0[r19],r18
0000052c d211           1102 	add	r18,r2
0000052e 13f60200       1103 	addi	2,r19,ep
00000532 6090           1104 	sld.bu	0[ep],r18
00000534 d092           1105 	shl	16,r18
00000536 1278           1106 	mov	r18,r15
00000538 c279           1107 	add	r2,r15
0000053a 13f60300       1108 	addi	3,r19,ep
0000053e 6010           1109 	sld.bu	0[ep],r2
00000540 d812           1110 	shl	24,r2
00000542 0290           1111 	mov	r2,r18
00000544 cf91           1112 	add	r15,r18
                        1113 --432: 				    + ((uint32_t) ((const uint8_t*) SigObjPtr)[1] << 8U)
                        1114 --433: 				    + ((uint32_t) ((const uint8_t*) SigObjPtr)[2] << 16U)
                        1115 --434: 				    + ((uint32_t) ((const uint8_t*) SigObjPtr)[3] << 24U);
                        1116 --435: 				SigLong2 = ((SigLong >> 24U) << BitOffset) >> 8U;
00000546 1210           1117 	mov	r18,r2
00000548 9812           1118 	shr	24,r2
0000054a f017c210       1119 	shl	r16,r2,r2
0000054e 0278           1120 	mov	r2,r15
00000550 887a           1121 	shr	8,r15
                        1122 --436: 				SigLong = SigLong << BitOffset;
00000552 f097c290       1123 	shl	r16,r18,r18
                        1124 .L261:
                        1125 --437: 				break;
                        1126 --438: 			default:
                        1127 --439: 				/* ignore */
                        1128 --440: 				break;
                        1129 --441: 		}
                        1130 --442: #else
                        1131 --443: 		switch (SigByteSize)
                        1132 --444: 		{
                        1133 --445: 			case 1U:
                        1134 --446: 			SigLong = (uint32_t) ((const uint8_t*) SigObjPtr)[0];
                        1135 --447: 			SigLong = SigLong << BitOffset;
                        1136 --448: 			break;
                        1137 --449: 			case 2U:
                        1138 --450: 			SigLong = (uint32_t) ((const uint8_t*) SigObjPtr)[1]
                        1139 --451: 			+ ((uint32_t) ((const uint8_t*) SigObjPtr)[0] << 8U);
                        1140 --452: 			SigLong = SigLong << BitOffset;
                        1141 --453: 			break;
                        1142 --454: 			case 3U:
                        1143 --455: 			case 4U:
                        1144 --456: 			SigLong = (uint32_t) ((const uint8_t*) SigObjPtr)[3]
                        1145 --457: 			+ ((uint32_t) ((const uint8_t*) SigObjPtr)[2] << 8U)
                        1146 --458: 			+ ((uint32_t) ((const uint8_t*) SigObjPtr)[1] << 16U)
                        1147 --459: 			+ ((uint32_t) ((const uint8_t*) SigObjPtr)[0] << 24U);
                        1148 --460: 			SigLong2 = ((SigLong >> 24U) << BitOffset) >> 8U;

                                                                      Page 20
                                                              C:\Users\TIEZHU~1\AppData\Local\Temp\gh_00005js1.si
                        1149 --461: 			SigLong = SigLong << BitOffset;
                        1150 --462: 			break;
                        1151 --463: 			default:
                        1152 --464: 			break;
                        1153 --465: 		}
                        1154 --466: #endif
                        1155 --468: 		/* ---- Pack signal to PDU. ---- */
                        1156 --469: 		switch (PduBytes)
00000556 0e10           1157 	mov	r14,r2
00000558 6312           1158 	cmp	3,r2
0000055a f905*          1159 	bnl	.L418
0000055c 6112           1160 	cmp	1,r2
0000055e e20d*          1161 	be	.L269
00000560 6212           1162 	cmp	2,r2
00000562 921d*          1163 	be	.L270
00000564 80079a03*      1164 	br	.L246
                        1165 .L418:
00000568 6412           1166 	cmp	4,r2
0000056a b155*          1167 	bl	.L274
0000056c e2076501*      1168 	be	.L278
00000570 6512           1169 	cmp	5,r2
00000572 e2075b02*      1170 	be	.L282
00000576 80078803*      1171 	br	.L246
                        1172 .L269:
                        1173 --470: 		{
                        1174 --471: 			case 1U:
                        1175 --472: 				TempLong = IPduObjPtr[StartPduByte];
                        1176 --line472
                        1177 ..lin.D.3A.5CCANFDGwMcuFirmRH850F1x.5Ccode.5CCANFDGwMcuFirmRH850F1x.5CCANFDGwMcuFirmRH850F1x.5Cprj.5CGHS.20MULTI.5CCAN.20Gateway.5Coutput.5Cobj.5Cpe1.5CCom.36::
                        1178 .LDWlin36:
0000057a 01f0           1179 	mov	r1,ep
0000057c c9f1           1180 	add	r9,ep
0000057e 6010           1181 	sld.bu	0[ep],r2
                        1182 --473: 				TempLong = TempLong & (~Mask);
00000580 3198           1183 	not	r17,r19
00000582 5311           1184 	and	r19,r2
                        1185 --474: 				IPduObjPtr[StartPduByte] = (uint8_t) (TempLong | SigLong);
00000584 01f0           1186 	mov	r1,ep
00000586 c9f1           1187 	add	r9,ep
00000588 1208           1188 	mov	r18,r1
0000058a 0209           1189 	or	r2,r1
0000058c 8100           1190 	zxb	r1
0000058e 800b           1191 	sst.b	r1,0[ep]
00000590 80076e03*      1192 	br	.L246
                        1193 .L270:
                        1194 --475: 				break;
                        1195 --476: 			case 2U:
                        1196 --477: 				if (Endianess == COM_SIG_BIG_ENDIAN)
                        1197 --line477
                        1198 ..lin.D.3A.5CCANFDGwMcuFirmRH850F1x.5Ccode.5CCANFDGwMcuFirmRH850F1x.5CCANFDGwMcuFirmRH850F1x.5Cprj.5CGHS.20MULTI.5CCAN.20Gateway.5Coutput.5Cobj.5Cpe1.5CCom.37::
                        1199 .LDWlin37:
00000594 e039           1200 	cmp	zero,r7
00000596 fa1d*          1201 	bne	.L271
                        1202 --478: 				{
                        1203 --479: 					TempLong = IPduObjPtr[StartPduByte] + ((uint32_t) IPduObjPtr[StartPduByte - 1U] << 8U);
                        1204 --line479
                        1205 ..lin.D.3A.5CCANFDGwMcuFirmRH850F1x.5Ccode.5CCANFDGwMcuFirmRH850F1x.5CCANFDGwMcuFirmRH850F1x.5Cprj.5CGHS.20MULTI.5CCAN.20Gateway.5Coutput.5Cobj.5Cpe1.5CCom.38::
                        1206 .LDWlin38:
00000598 01f0           1207 	mov	r1,ep
0000059a c9f1           1208 	add	r9,ep
0000059c 0116ffff       1209 	addi	-1,r1,r2

                                                                      Page 21
                                                              C:\Users\TIEZHU~1\AppData\Local\Temp\gh_00005js1.si
000005a0 c911           1210 	add	r9,r2
000005a2 82170100       1211 	ld.bu	0[r2],r2
000005a6 c812           1212 	shl	8,r2
000005a8 6098           1213 	sld.bu	0[ep],r19
000005aa d311           1214 	add	r19,r2
                        1215 --480: 					TempLong = TempLong & (~Mask);
000005ac 3198           1216 	not	r17,r19
000005ae 5311           1217 	and	r19,r2
                        1218 --481: 					TempLong = TempLong | SigLong;
000005b0 1211           1219 	or	r18,r2
                        1220 --482: 					IPduObjPtr[StartPduByte] = (uint8_t) (TempLong & 0xffUL);
000005b2 01f0           1221 	mov	r1,ep
000005b4 c9f1           1222 	add	r9,ep
000005b6 c29eff00       1223 	andi	255,r2,r19
000005ba 9300           1224 	zxb	r19
000005bc 809b           1225 	sst.b	r19,0[ep]
                        1226 --483: 					IPduObjPtr[StartPduByte - 1U] = (uint8_t) ((TempLong >> 8U) & 0xffUL);
000005be 010effff       1227 	addi	-1,r1,r1
000005c2 01f0           1228 	mov	r1,ep
000005c4 c9f1           1229 	add	r9,ep
000005c6 0208           1230 	mov	r2,r1
000005c8 880a           1231 	shr	8,r1
000005ca 8100           1232 	zxb	r1
000005cc 8100           1233 	zxb	r1
000005ce 800b           1234 	sst.b	r1,0[ep]
000005d0 80072e03*      1235 	br	.L246
                        1236 .L271:
                        1237 --484: 				}
                        1238 --485: 				else
                        1239 --486: 				{
                        1240 --487: 					TempLong = IPduObjPtr[StartPduByte] + ((uint32_t) IPduObjPtr[StartPduByte + 1U] << 8U);
                        1241 --line487
                        1242 ..lin.D.3A.5CCANFDGwMcuFirmRH850F1x.5Ccode.5CCANFDGwMcuFirmRH850F1x.5CCANFDGwMcuFirmRH850F1x.5Cprj.5CGHS.20MULTI.5CCAN.20Gateway.5Coutput.5Cobj.5Cpe1.5CCom.39::
                        1243 .LDWlin39:
000005d4 01f0           1244 	mov	r1,ep
000005d6 c9f1           1245 	add	r9,ep
000005d8 01160100       1246 	addi	1,r1,r2
000005dc c911           1247 	add	r9,r2
000005de 82170100       1248 	ld.bu	0[r2],r2
000005e2 c812           1249 	shl	8,r2
000005e4 6098           1250 	sld.bu	0[ep],r19
000005e6 d311           1251 	add	r19,r2
                        1252 --488: 					TempLong = TempLong & (~Mask);
000005e8 3198           1253 	not	r17,r19
000005ea 5311           1254 	and	r19,r2
                        1255 --489: 					TempLong = TempLong | SigLong;
000005ec 1211           1256 	or	r18,r2
                        1257 --490: 					IPduObjPtr[StartPduByte] = (uint8_t) (TempLong & 0xffUL);
000005ee 01f0           1258 	mov	r1,ep
000005f0 c9f1           1259 	add	r9,ep
000005f2 c29eff00       1260 	andi	255,r2,r19
000005f6 9300           1261 	zxb	r19
000005f8 809b           1262 	sst.b	r19,0[ep]
                        1263 --491: 					IPduObjPtr[StartPduByte + 1U] = (uint8_t) ((TempLong >> 8U) & 0xffUL);
000005fa 010e0100       1264 	addi	1,r1,r1
000005fe 01f0           1265 	mov	r1,ep
00000600 c9f1           1266 	add	r9,ep
00000602 0208           1267 	mov	r2,r1
00000604 880a           1268 	shr	8,r1
00000606 8100           1269 	zxb	r1
00000608 8100           1270 	zxb	r1

                                                                      Page 22
                                                              C:\Users\TIEZHU~1\AppData\Local\Temp\gh_00005js1.si
0000060a 800b           1271 	sst.b	r1,0[ep]
0000060c 8007f202*      1272 	br	.L246
                        1273 .L274:
                        1274 --492: 				}
                        1275 --493: 				break;
                        1276 --494: 			case 3U:
                        1277 --495: 				if (Endianess == COM_SIG_BIG_ENDIAN)
                        1278 --line495
                        1279 ..lin.D.3A.5CCANFDGwMcuFirmRH850F1x.5Ccode.5CCANFDGwMcuFirmRH850F1x.5CCANFDGwMcuFirmRH850F1x.5Cprj.5CGHS.20MULTI.5CCAN.20Gateway.5Coutput.5Cobj.5Cpe1.5CCom.40::
                        1280 .LDWlin40:
00000610 e039           1281 	cmp	zero,r7
00000612 8a35*          1282 	bne	.L275
                        1283 --496: 				{
                        1284 --497: 					TempLong = IPduObjPtr[StartPduByte] + ((uint32_t) IPduObjPtr[StartPduByte - 1U] << 8U)
                        1285 --line497
                        1286 ..lin.D.3A.5CCANFDGwMcuFirmRH850F1x.5Ccode.5CCANFDGwMcuFirmRH850F1x.5CCANFDGwMcuFirmRH850F1x.5Cprj.5CGHS.20MULTI.5CCAN.20Gateway.5Coutput.5Cobj.5Cpe1.5CCom.41::
                        1287 .LDWlin41:
00000614 01f0           1288 	mov	r1,ep
00000616 c9f1           1289 	add	r9,ep
00000618 0116ffff       1290 	addi	-1,r1,r2
0000061c c911           1291 	add	r9,r2
0000061e 82170100       1292 	ld.bu	0[r2],r2
00000622 c812           1293 	shl	8,r2
00000624 6080           1294 	sld.bu	0[ep],r16
00000626 0298           1295 	mov	r2,r19
00000628 d099           1296 	add	r16,r19
0000062a 0116feff       1297 	addi	-2,r1,r2
0000062e 02f0           1298 	mov	r2,ep
00000630 c9f1           1299 	add	r9,ep
00000632 6010           1300 	sld.bu	0[ep],r2
00000634 d012           1301 	shl	16,r2
00000636 d311           1302 	add	r19,r2
                        1303 --498: 					    + ((uint32_t) IPduObjPtr[StartPduByte - 2U] << 16U);
                        1304 --499: 					TempLong = TempLong & (~Mask);
00000638 3198           1305 	not	r17,r19
0000063a 5311           1306 	and	r19,r2
                        1307 --500: 					TempLong = TempLong | SigLong;
0000063c 1211           1308 	or	r18,r2
                        1309 --501: 					IPduObjPtr[StartPduByte] = (uint8_t) (TempLong & 0xffUL);
0000063e 01f0           1310 	mov	r1,ep
00000640 c9f1           1311 	add	r9,ep
00000642 c29eff00       1312 	andi	255,r2,r19
00000646 9300           1313 	zxb	r19
00000648 809b           1314 	sst.b	r19,0[ep]
                        1315 --502: 					IPduObjPtr[StartPduByte - 1U] = (uint8_t) ((TempLong >> 8U) & 0xffUL);
0000064a 019effff       1316 	addi	-1,r1,r19
0000064e 13f0           1317 	mov	r19,ep
00000650 c9f1           1318 	add	r9,ep
00000652 0298           1319 	mov	r2,r19
00000654 889a           1320 	shr	8,r19
00000656 9300           1321 	zxb	r19
00000658 9300           1322 	zxb	r19
0000065a 809b           1323 	sst.b	r19,0[ep]
                        1324 --503: 					IPduObjPtr[StartPduByte - 2U] = (uint8_t) ((TempLong >> 16U) & 0xffUL);
0000065c 010efeff       1325 	addi	-2,r1,r1
00000660 01f0           1326 	mov	r1,ep
00000662 c9f1           1327 	add	r9,ep
00000664 0208           1328 	mov	r2,r1
00000666 900a           1329 	shr	16,r1
00000668 8100           1330 	zxb	r1
0000066a 8100           1331 	zxb	r1

                                                                      Page 23
                                                              C:\Users\TIEZHU~1\AppData\Local\Temp\gh_00005js1.si
0000066c 800b           1332 	sst.b	r1,0[ep]
0000066e 80079002*      1333 	br	.L246
                        1334 .L275:
                        1335 --504: 				}
                        1336 --505: 				else
                        1337 --506: 				{
                        1338 --507: 					TempLong = IPduObjPtr[StartPduByte] + ((uint32_t) IPduObjPtr[StartPduByte + 1U] << 8U)
                        1339 --line507
                        1340 ..lin.D.3A.5CCANFDGwMcuFirmRH850F1x.5Ccode.5CCANFDGwMcuFirmRH850F1x.5CCANFDGwMcuFirmRH850F1x.5Cprj.5CGHS.20MULTI.5CCAN.20Gateway.5Coutput.5Cobj.5Cpe1.5CCom.42::
                        1341 .LDWlin42:
00000672 01f0           1342 	mov	r1,ep
00000674 c9f1           1343 	add	r9,ep
00000676 01160100       1344 	addi	1,r1,r2
0000067a c911           1345 	add	r9,r2
0000067c 82170100       1346 	ld.bu	0[r2],r2
00000680 c812           1347 	shl	8,r2
00000682 6080           1348 	sld.bu	0[ep],r16
00000684 0298           1349 	mov	r2,r19
00000686 d099           1350 	add	r16,r19
00000688 01160200       1351 	addi	2,r1,r2
0000068c 02f0           1352 	mov	r2,ep
0000068e c9f1           1353 	add	r9,ep
00000690 6010           1354 	sld.bu	0[ep],r2
00000692 d012           1355 	shl	16,r2
00000694 d311           1356 	add	r19,r2
                        1357 --508: 					    + ((uint32_t) IPduObjPtr[StartPduByte + 2U] << 16U);
                        1358 --509: 					TempLong = TempLong & (~Mask);
00000696 3198           1359 	not	r17,r19
00000698 5311           1360 	and	r19,r2
                        1361 --510: 					TempLong = TempLong | SigLong;
0000069a 1211           1362 	or	r18,r2
                        1363 --511: 					IPduObjPtr[StartPduByte] = (uint8_t) (TempLong & 0xffUL);
0000069c 01f0           1364 	mov	r1,ep
0000069e c9f1           1365 	add	r9,ep
000006a0 c29eff00       1366 	andi	255,r2,r19
000006a4 9300           1367 	zxb	r19
000006a6 809b           1368 	sst.b	r19,0[ep]
                        1369 --512: 					IPduObjPtr[StartPduByte + 1U] = (uint8_t) ((TempLong >> 8U) & 0xffUL);
000006a8 019e0100       1370 	addi	1,r1,r19
000006ac 13f0           1371 	mov	r19,ep
000006ae c9f1           1372 	add	r9,ep
000006b0 0298           1373 	mov	r2,r19
000006b2 889a           1374 	shr	8,r19
000006b4 9300           1375 	zxb	r19
000006b6 9300           1376 	zxb	r19
000006b8 809b           1377 	sst.b	r19,0[ep]
                        1378 --513: 					IPduObjPtr[StartPduByte + 2U] = (uint8_t) ((TempLong >> 16U) & 0xffUL);
000006ba 010e0200       1379 	addi	2,r1,r1
000006be 01f0           1380 	mov	r1,ep
000006c0 c9f1           1381 	add	r9,ep
000006c2 0208           1382 	mov	r2,r1
000006c4 900a           1383 	shr	16,r1
000006c6 8100           1384 	zxb	r1
000006c8 8100           1385 	zxb	r1
000006ca 800b           1386 	sst.b	r1,0[ep]
000006cc 80073202*      1387 	br	.L246
                        1388 .L278:
                        1389 --514: 				}
                        1390 --515: 				break;
                        1391 --516: 			case 4U:
                        1392 --517: 				if (Endianess == COM_SIG_BIG_ENDIAN)

                                                                      Page 24
                                                              C:\Users\TIEZHU~1\AppData\Local\Temp\gh_00005js1.si
                        1393 --line517
                        1394 ..lin.D.3A.5CCANFDGwMcuFirmRH850F1x.5Ccode.5CCANFDGwMcuFirmRH850F1x.5CCANFDGwMcuFirmRH850F1x.5Cprj.5CGHS.20MULTI.5CCAN.20Gateway.5Coutput.5Cobj.5Cpe1.5CCom.43::
                        1395 .LDWlin43:
000006d0 e039           1396 	cmp	zero,r7
000006d2 fa3d*          1397 	bne	.L279
                        1398 --518: 				{
                        1399 --519: 					TempLong = IPduObjPtr[StartPduByte] + ((uint32_t) IPduObjPtr[StartPduByte - 1U] << 8U)
                        1400 --line519
                        1401 ..lin.D.3A.5CCANFDGwMcuFirmRH850F1x.5Ccode.5CCANFDGwMcuFirmRH850F1x.5CCANFDGwMcuFirmRH850F1x.5Cprj.5CGHS.20MULTI.5CCAN.20Gateway.5Coutput.5Cobj.5Cpe1.5CCom.44::
                        1402 .LDWlin44:
000006d4 01f0           1403 	mov	r1,ep
000006d6 c9f1           1404 	add	r9,ep
000006d8 0116ffff       1405 	addi	-1,r1,r2
000006dc c911           1406 	add	r9,r2
000006de 82170100       1407 	ld.bu	0[r2],r2
000006e2 c812           1408 	shl	8,r2
000006e4 6098           1409 	sld.bu	0[ep],r19
000006e6 d311           1410 	add	r19,r2
000006e8 019efeff       1411 	addi	-2,r1,r19
000006ec 13f0           1412 	mov	r19,ep
000006ee c9f1           1413 	add	r9,ep
000006f0 6098           1414 	sld.bu	0[ep],r19
000006f2 d09a           1415 	shl	16,r19
000006f4 c299           1416 	add	r2,r19
000006f6 0116fdff       1417 	addi	-3,r1,r2
000006fa 02f0           1418 	mov	r2,ep
000006fc c9f1           1419 	add	r9,ep
000006fe 6010           1420 	sld.bu	0[ep],r2
00000700 d812           1421 	shl	24,r2
00000702 d311           1422 	add	r19,r2
                        1423 --520: 					    + ((uint32_t) IPduObjPtr[StartPduByte - 2U] << 16U)
                        1424 --521: 					    + ((uint32_t) IPduObjPtr[StartPduByte - 3U] << 24U);
                        1425 --522: 					TempLong = TempLong & (~Mask);
00000704 3198           1426 	not	r17,r19
00000706 5311           1427 	and	r19,r2
                        1428 --523: 					TempLong = TempLong | SigLong;
00000708 1211           1429 	or	r18,r2
                        1430 --524: 					IPduObjPtr[StartPduByte] = (uint8_t) (TempLong & 0xffUL);
0000070a 01f0           1431 	mov	r1,ep
0000070c c9f1           1432 	add	r9,ep
0000070e c29eff00       1433 	andi	255,r2,r19
00000712 9300           1434 	zxb	r19
00000714 809b           1435 	sst.b	r19,0[ep]
                        1436 --525: 					IPduObjPtr[StartPduByte - 1U] = (uint8_t) ((TempLong >> 8U) & 0xffUL);
00000716 019effff       1437 	addi	-1,r1,r19
0000071a 13f0           1438 	mov	r19,ep
0000071c c9f1           1439 	add	r9,ep
0000071e 0298           1440 	mov	r2,r19
00000720 889a           1441 	shr	8,r19
00000722 9300           1442 	zxb	r19
00000724 9300           1443 	zxb	r19
00000726 809b           1444 	sst.b	r19,0[ep]
                        1445 --526: 					IPduObjPtr[StartPduByte - 2U] = (uint8_t) ((TempLong >> 16U) & 0xffUL);
00000728 019efeff       1446 	addi	-2,r1,r19
0000072c 13f0           1447 	mov	r19,ep
0000072e c9f1           1448 	add	r9,ep
00000730 0298           1449 	mov	r2,r19
00000732 909a           1450 	shr	16,r19
00000734 9300           1451 	zxb	r19
00000736 9300           1452 	zxb	r19
00000738 809b           1453 	sst.b	r19,0[ep]

                                                                      Page 25
                                                              C:\Users\TIEZHU~1\AppData\Local\Temp\gh_00005js1.si
                        1454 --527: 					IPduObjPtr[StartPduByte - 3U] = (uint8_t) ((TempLong >> 24U) & 0xffUL);
0000073a 010efdff       1455 	addi	-3,r1,r1
0000073e 01f0           1456 	mov	r1,ep
00000740 c9f1           1457 	add	r9,ep
00000742 0208           1458 	mov	r2,r1
00000744 980a           1459 	shr	24,r1
00000746 8100           1460 	zxb	r1
00000748 8100           1461 	zxb	r1
0000074a 800b           1462 	sst.b	r1,0[ep]
0000074c 8007b201*      1463 	br	.L246
                        1464 .L279:
                        1465 --528: 				}
                        1466 --529: 				else
                        1467 --530: 				{
                        1468 --531: 					TempLong = IPduObjPtr[StartPduByte] + ((uint32_t) IPduObjPtr[StartPduByte + 1U] << 8U)
                        1469 --line531
                        1470 ..lin.D.3A.5CCANFDGwMcuFirmRH850F1x.5Ccode.5CCANFDGwMcuFirmRH850F1x.5CCANFDGwMcuFirmRH850F1x.5Cprj.5CGHS.20MULTI.5CCAN.20Gateway.5Coutput.5Cobj.5Cpe1.5CCom.45::
                        1471 .LDWlin45:
00000750 01f0           1472 	mov	r1,ep
00000752 c9f1           1473 	add	r9,ep
00000754 01160100       1474 	addi	1,r1,r2
00000758 c911           1475 	add	r9,r2
0000075a 82170100       1476 	ld.bu	0[r2],r2
0000075e c812           1477 	shl	8,r2
00000760 6098           1478 	sld.bu	0[ep],r19
00000762 d311           1479 	add	r19,r2
00000764 019e0200       1480 	addi	2,r1,r19
00000768 13f0           1481 	mov	r19,ep
0000076a c9f1           1482 	add	r9,ep
0000076c 6098           1483 	sld.bu	0[ep],r19
0000076e d09a           1484 	shl	16,r19
00000770 c299           1485 	add	r2,r19
00000772 01160300       1486 	addi	3,r1,r2
00000776 02f0           1487 	mov	r2,ep
00000778 c9f1           1488 	add	r9,ep
0000077a 6010           1489 	sld.bu	0[ep],r2
0000077c d812           1490 	shl	24,r2
0000077e d311           1491 	add	r19,r2
                        1492 --532: 					    + ((uint32_t) IPduObjPtr[StartPduByte + 2U] << 16U)
                        1493 --533: 					    + ((uint32_t) IPduObjPtr[StartPduByte + 3U] << 24U);
                        1494 --534: 					TempLong = TempLong & (~Mask);
00000780 3198           1495 	not	r17,r19
00000782 5311           1496 	and	r19,r2
                        1497 --535: 					TempLong = TempLong | SigLong;
00000784 1211           1498 	or	r18,r2
                        1499 --536: 					IPduObjPtr[StartPduByte] = (uint8_t) (TempLong & 0xffUL);
00000786 01f0           1500 	mov	r1,ep
00000788 c9f1           1501 	add	r9,ep
0000078a c29eff00       1502 	andi	255,r2,r19
0000078e 9300           1503 	zxb	r19
00000790 809b           1504 	sst.b	r19,0[ep]
                        1505 --537: 					IPduObjPtr[StartPduByte + 1U] = (uint8_t) ((TempLong >> 8U) & 0xffUL);
00000792 019e0100       1506 	addi	1,r1,r19
00000796 13f0           1507 	mov	r19,ep
00000798 c9f1           1508 	add	r9,ep
0000079a 0298           1509 	mov	r2,r19
0000079c 889a           1510 	shr	8,r19
0000079e 9300           1511 	zxb	r19
000007a0 9300           1512 	zxb	r19
000007a2 809b           1513 	sst.b	r19,0[ep]
                        1514 --538: 					IPduObjPtr[StartPduByte + 2U] = (uint8_t) ((TempLong >> 16U) & 0xffUL);

                                                                      Page 26
                                                              C:\Users\TIEZHU~1\AppData\Local\Temp\gh_00005js1.si
000007a4 019e0200       1515 	addi	2,r1,r19
000007a8 13f0           1516 	mov	r19,ep
000007aa c9f1           1517 	add	r9,ep
000007ac 0298           1518 	mov	r2,r19
000007ae 909a           1519 	shr	16,r19
000007b0 9300           1520 	zxb	r19
000007b2 9300           1521 	zxb	r19
000007b4 809b           1522 	sst.b	r19,0[ep]
                        1523 --539: 					IPduObjPtr[StartPduByte + 3U] = (uint8_t) ((TempLong >> 24U) & 0xffUL);
000007b6 010e0300       1524 	addi	3,r1,r1
000007ba 01f0           1525 	mov	r1,ep
000007bc c9f1           1526 	add	r9,ep
000007be 0208           1527 	mov	r2,r1
000007c0 980a           1528 	shr	24,r1
000007c2 8100           1529 	zxb	r1
000007c4 8100           1530 	zxb	r1
000007c6 800b           1531 	sst.b	r1,0[ep]
000007c8 80073601*      1532 	br	.L246
                        1533 .L282:
                        1534 --540: 				}
                        1535 --541: 				break;
                        1536 --542: 			case 5U:
                        1537 --543: 				if (Endianess == COM_SIG_BIG_ENDIAN)
                        1538 --line543
                        1539 ..lin.D.3A.5CCANFDGwMcuFirmRH850F1x.5Ccode.5CCANFDGwMcuFirmRH850F1x.5CCANFDGwMcuFirmRH850F1x.5Cprj.5CGHS.20MULTI.5CCAN.20Gateway.5Coutput.5Cobj.5Cpe1.5CCom.46::
                        1540 .LDWlin46:
000007cc e039           1541 	cmp	zero,r7
000007ce da4d*          1542 	bne	.L283
                        1543 --544: 				{
                        1544 --545: 					TempLong = IPduObjPtr[StartPduByte] + ((uint32_t) IPduObjPtr[StartPduByte - 1U] << 8U)
                        1545 --line545
                        1546 ..lin.D.3A.5CCANFDGwMcuFirmRH850F1x.5Ccode.5CCANFDGwMcuFirmRH850F1x.5CCANFDGwMcuFirmRH850F1x.5Cprj.5CGHS.20MULTI.5CCAN.20Gateway.5Coutput.5Cobj.5Cpe1.5CCom.47::
                        1547 .LDWlin47:
000007d0 01f0           1548 	mov	r1,ep
000007d2 c9f1           1549 	add	r9,ep
000007d4 0116ffff       1550 	addi	-1,r1,r2
000007d8 c911           1551 	add	r9,r2
000007da 82170100       1552 	ld.bu	0[r2],r2
000007de c812           1553 	shl	8,r2
000007e0 6098           1554 	sld.bu	0[ep],r19
000007e2 d311           1555 	add	r19,r2
000007e4 019efeff       1556 	addi	-2,r1,r19
000007e8 13f0           1557 	mov	r19,ep
000007ea c9f1           1558 	add	r9,ep
000007ec 6098           1559 	sld.bu	0[ep],r19
000007ee d09a           1560 	shl	16,r19
000007f0 c299           1561 	add	r2,r19
000007f2 0116fdff       1562 	addi	-3,r1,r2
000007f6 02f0           1563 	mov	r2,ep
000007f8 c9f1           1564 	add	r9,ep
000007fa 6010           1565 	sld.bu	0[ep],r2
000007fc d812           1566 	shl	24,r2
000007fe d311           1567 	add	r19,r2
                        1568 --546: 					    + ((uint32_t) IPduObjPtr[StartPduByte - 2U] << 16U)
                        1569 --547: 					    + ((uint32_t) IPduObjPtr[StartPduByte - 3U] << 24U);
                        1570 --548: 					TempLong2 = IPduObjPtr[StartPduByte - 4U];
00000800 019efcff       1571 	addi	-4,r1,r19
00000804 13f0           1572 	mov	r19,ep
00000806 c9f1           1573 	add	r9,ep
00000808 6080           1574 	sld.bu	0[ep],r16
                        1575 --549: 					TempLong = TempLong & (~Mask);

                                                                      Page 27
                                                              C:\Users\TIEZHU~1\AppData\Local\Temp\gh_00005js1.si
0000080a 3198           1576 	not	r17,r19
0000080c 5311           1577 	and	r19,r2
                        1578 --550: 					TempLong2 = TempLong2 & (~Mask2);
0000080e 2c98           1579 	not	r12,r19
00000810 5381           1580 	and	r19,r16
                        1581 --551: 					TempLong = TempLong | SigLong;
00000812 1211           1582 	or	r18,r2
                        1583 --552: 					TempLong2 = TempLong2 | SigLong2;
00000814 0f81           1584 	or	r15,r16
                        1585 --553: 					IPduObjPtr[StartPduByte] = (uint8_t) (TempLong & 0xffUL);
00000816 01f0           1586 	mov	r1,ep
00000818 c9f1           1587 	add	r9,ep
0000081a c29eff00       1588 	andi	255,r2,r19
0000081e 9300           1589 	zxb	r19
00000820 809b           1590 	sst.b	r19,0[ep]
                        1591 --554: 					IPduObjPtr[StartPduByte - 1U] = (uint8_t) ((TempLong >> 8U) & 0xffUL);
00000822 019effff       1592 	addi	-1,r1,r19
00000826 13f0           1593 	mov	r19,ep
00000828 c9f1           1594 	add	r9,ep
0000082a 0298           1595 	mov	r2,r19
0000082c 889a           1596 	shr	8,r19
0000082e 9300           1597 	zxb	r19
00000830 9300           1598 	zxb	r19
00000832 809b           1599 	sst.b	r19,0[ep]
                        1600 --555: 					IPduObjPtr[StartPduByte - 2U] = (uint8_t) ((TempLong >> 16U) & 0xffUL);
00000834 019efeff       1601 	addi	-2,r1,r19
00000838 13f0           1602 	mov	r19,ep
0000083a c9f1           1603 	add	r9,ep
0000083c 0298           1604 	mov	r2,r19
0000083e 909a           1605 	shr	16,r19
00000840 9300           1606 	zxb	r19
00000842 9300           1607 	zxb	r19
00000844 809b           1608 	sst.b	r19,0[ep]
                        1609 --556: 					IPduObjPtr[StartPduByte - 3U] = (uint8_t) ((TempLong >> 24U) & 0xffUL);
00000846 019efdff       1610 	addi	-3,r1,r19
0000084a 13f0           1611 	mov	r19,ep
0000084c c9f1           1612 	add	r9,ep
0000084e 9812           1613 	shr	24,r2
00000850 8200           1614 	zxb	r2
00000852 8200           1615 	zxb	r2
00000854 8013           1616 	sst.b	r2,0[ep]
                        1617 --557: 					IPduObjPtr[StartPduByte - 4U] = (uint8_t) (TempLong2 & 0xffUL);
00000856 010efcff       1618 	addi	-4,r1,r1
0000085a 01f0           1619 	mov	r1,ep
0000085c c9f1           1620 	add	r9,ep
0000085e d00eff00       1621 	andi	255,r16,r1
00000862 8100           1622 	zxb	r1
00000864 800b           1623 	sst.b	r1,0[ep]
00000866 c54d*          1624 	br	.L246
                        1625 .L283:
                        1626 --558: 				}
                        1627 --559: 				else
                        1628 --560: 				{
                        1629 --561: 					TempLong = IPduObjPtr[StartPduByte] + ((uint32_t) IPduObjPtr[StartPduByte + 1U] << 8U)
                        1630 --line561
                        1631 ..lin.D.3A.5CCANFDGwMcuFirmRH850F1x.5Ccode.5CCANFDGwMcuFirmRH850F1x.5CCANFDGwMcuFirmRH850F1x.5Cprj.5CGHS.20MULTI.5CCAN.20Gateway.5Coutput.5Cobj.5Cpe1.5CCom.48::
                        1632 .LDWlin48:
00000868 01f0           1633 	mov	r1,ep
0000086a c9f1           1634 	add	r9,ep
0000086c 01160100       1635 	addi	1,r1,r2
00000870 c911           1636 	add	r9,r2

                                                                      Page 28
                                                              C:\Users\TIEZHU~1\AppData\Local\Temp\gh_00005js1.si
00000872 82170100       1637 	ld.bu	0[r2],r2
00000876 c812           1638 	shl	8,r2
00000878 6098           1639 	sld.bu	0[ep],r19
0000087a d311           1640 	add	r19,r2
0000087c 019e0200       1641 	addi	2,r1,r19
00000880 13f0           1642 	mov	r19,ep
00000882 c9f1           1643 	add	r9,ep
00000884 6098           1644 	sld.bu	0[ep],r19
00000886 d09a           1645 	shl	16,r19
00000888 c299           1646 	add	r2,r19
0000088a 01160300       1647 	addi	3,r1,r2
0000088e 02f0           1648 	mov	r2,ep
00000890 c9f1           1649 	add	r9,ep
00000892 6010           1650 	sld.bu	0[ep],r2
00000894 d812           1651 	shl	24,r2
00000896 d311           1652 	add	r19,r2
                        1653 --562: 					    + ((uint32_t) IPduObjPtr[StartPduByte + 2U] << 16U)
                        1654 --563: 					    + ((uint32_t) IPduObjPtr[StartPduByte + 3U] << 24U);
                        1655 --564: 					TempLong2 = IPduObjPtr[StartPduByte + 4U];
00000898 019e0400       1656 	addi	4,r1,r19
0000089c 13f0           1657 	mov	r19,ep
0000089e c9f1           1658 	add	r9,ep
000008a0 6080           1659 	sld.bu	0[ep],r16
                        1660 --565: 					TempLong = TempLong & (~Mask);
000008a2 3198           1661 	not	r17,r19
000008a4 5311           1662 	and	r19,r2
                        1663 --566: 					TempLong2 = TempLong2 & (~Mask2);
000008a6 2c98           1664 	not	r12,r19
000008a8 5381           1665 	and	r19,r16
                        1666 --567: 					TempLong = TempLong | SigLong;
000008aa 1211           1667 	or	r18,r2
                        1668 --568: 					TempLong2 = TempLong2 | SigLong2;
000008ac 0f81           1669 	or	r15,r16
                        1670 --569: 					IPduObjPtr[StartPduByte] = (uint8_t) (TempLong & 0xffUL);
000008ae 01f0           1671 	mov	r1,ep
000008b0 c9f1           1672 	add	r9,ep
000008b2 c29eff00       1673 	andi	255,r2,r19
000008b6 9300           1674 	zxb	r19
000008b8 809b           1675 	sst.b	r19,0[ep]
                        1676 --570: 					IPduObjPtr[StartPduByte + 1U] = (uint8_t) ((TempLong >> 8U) & 0xffUL);
000008ba 019e0100       1677 	addi	1,r1,r19
000008be 13f0           1678 	mov	r19,ep
000008c0 c9f1           1679 	add	r9,ep
000008c2 0298           1680 	mov	r2,r19
000008c4 889a           1681 	shr	8,r19
000008c6 9300           1682 	zxb	r19
000008c8 9300           1683 	zxb	r19
000008ca 809b           1684 	sst.b	r19,0[ep]
                        1685 --571: 					IPduObjPtr[StartPduByte + 2U] = (uint8_t) ((TempLong >> 16U) & 0xffUL);
000008cc 019e0200       1686 	addi	2,r1,r19
000008d0 13f0           1687 	mov	r19,ep
000008d2 c9f1           1688 	add	r9,ep
000008d4 0298           1689 	mov	r2,r19
000008d6 909a           1690 	shr	16,r19
000008d8 9300           1691 	zxb	r19
000008da 9300           1692 	zxb	r19
000008dc 809b           1693 	sst.b	r19,0[ep]
                        1694 --572: 					IPduObjPtr[StartPduByte + 3U] = (uint8_t) ((TempLong >> 24U) & 0xffUL);
000008de 019e0300       1695 	addi	3,r1,r19
000008e2 13f0           1696 	mov	r19,ep
000008e4 c9f1           1697 	add	r9,ep

                                                                      Page 29
                                                              C:\Users\TIEZHU~1\AppData\Local\Temp\gh_00005js1.si
000008e6 9812           1698 	shr	24,r2
000008e8 8200           1699 	zxb	r2
000008ea 8200           1700 	zxb	r2
000008ec 8013           1701 	sst.b	r2,0[ep]
                        1702 --573: 					IPduObjPtr[StartPduByte + 4U] = (uint8_t) (TempLong2 & 0xffUL);
000008ee 010e0400       1703 	addi	4,r1,r1
000008f2 01f0           1704 	mov	r1,ep
000008f4 c9f1           1705 	add	r9,ep
000008f6 1008           1706 	mov	r16,r1
000008f8 8100           1707 	zxb	r1
000008fa 8100           1708 	zxb	r1
000008fc 800b           1709 	sst.b	r1,0[ep]
                        1710 .L246:
                        1711 --574: 					;
                        1712 --575: 				}
                        1713 --576: 				break;
                        1714 --577: 			default:
                        1715 --578: 				/* ignore */
                        1716 --579: 				break;
                        1717 --580: 		}
                        1718 --581: 	}
                        1719 --582: } /* End of com_pack_one_signal() */
                        1720 --	    .ef
                        1721 .LDW41:
000008fe 7f00           1722 	jmp	[lp]
                        1723 	.type	_com_pack_one_signal,@function
                        1724 	.size	_com_pack_one_signal,.-_com_pack_one_signal
                        1725 	.type	_com_pack_one_signal..D.3A.5CCANFDGwMcuFirmRH850F1x.5Ccode.5CCANFDGwMcuFirmRH850F1x.5CCANFDGwMcuFirmRH850F1x.5Cprj.5CGHS.20MULTI.5CCAN.20Gateway.5Coutput.5Cobj.5Cpe1.5CCom.,@function
                        1726 	.size	_com_pack_one_signal..D.3A.5CCANFDGwMcuFirmRH850F1x.5Ccode.5CCANFDGwMcuFirmRH850F1x.5CCANFDGwMcuFirmRH850F1x.5Cprj.5CGHS.20MULTI.5CCAN.20Gateway.5Coutput.5Cobj.5Cpe1.5CCom.,.-_com_pack_one_signal..D.3A.5CCANFDGwMcuFirmRH850F1x.5Ccode.5CCANFDGwMcuFirmRH850F1x.5CCANFDGwMcuFirmRH850F1x.5Cprj.5CGHS.20MULTI.5CCAN.20Gateway.5Coutput.5Cobj.5Cpe1.5CCom.
                        1727 	.align	2
                        1728 .LDW51:
                        1729 --_TempLong	r2	local
                        1730 --_TempLong2	r16	local
                        1731 --_SigLong	r18	local
                        1732 --_SigLong2	r15	local
                        1733 --_Mask	r17	local
                        1734 --_Mask2	r12	local
                        1735 --_BitLength	r2	local
                        1736 --_StartPduByte	r1	local
                        1737 --_PduBytes	r14	local
                        1738 --_BitOffset	r16	local
                        1739 --_SigByteSize	r13	local
                        1740 
                        1741 --_StartBit	r6	param
                        1742 --_Endianess	r7	param
                        1743 --_SigCfgPtr	ep	param
                        1744 --_IPduObjPtr	r9	param
                        1745 --_SigObjPtr	r19	param
                        1746 
                        1747 	.data
                        1748 	.text
                        1749 
                        1750 
                        1751 --584: /***********************************************************************************************************************
                        1752 --585:  * Function Name: com_is_signal_changed
                        1753 --586:  * Description  : Check if signal's value is changed.
                        1754 --587:  * Arguments    : BitSize -
                        1755 --588:  *                  Signal bit size.
                        1756 --589:  *                SigId -
                        1757 --590:  *                  ID of signal.
                        1758 --591:  * Return Value : void

                                                                      Page 30
                                                              C:\Users\TIEZHU~1\AppData\Local\Temp\gh_00005js1.si
                        1759 --592:  ***********************************************************************************************************************/
                        1760 --593: static boolean com_is_signal_changed(uint8_t BitSize, Com_SignalIdType SigId)
                        1761 	.align	2
                        1762 	.align	2
                        1763 	.align	2
                        1764 	.global	_com_is_signal_changed..D.3A.5CCANFDGwMcuFirmRH850F1x.5Ccode.5CCANFDGwMcuFirmRH850F1x.5CCANFDGwMcuFirmRH850F1x.5Cprj.5CGHS.20MULTI.5CCAN.20Gateway.5Coutput.5Cobj.5Cpe1.5CCom.
                        1765 _com_is_signal_changed..D.3A.5CCANFDGwMcuFirmRH850F1x.5Ccode.5CCANFDGwMcuFirmRH850F1x.5CCANFDGwMcuFirmRH850F1x.5Cprj.5CGHS.20MULTI.5CCAN.20Gateway.5Coutput.5Cobj.5Cpe1.5CCom.:
                        1766 _com_is_signal_changed:
00000900 8600           1767 	zxb	r6
00000902 c700           1768 	zxh	r7
                        1769 --	    .bf
                        1770 .LDW61:
                        1771 --594: {
                        1772 --595: 	uint8_t ByteSize;
                        1773 --596: 	const void* CurSigRef;
                        1774 --597: 	const void* OldSigRef;
                        1775 --598: 	boolean IsChanged;
                        1776 --600: 	/* ---- Calculate signal's byte size. ---- */
                        1777 --601: 	ByteSize = (BitSize >> 3U);
00000904 0608           1778 	mov	r6,r1
00000906 a30a           1779 	sar	3,r1
00000908 8100           1780 	zxb	r1
0000090a 0110           1781 	mov	r1,r2
                        1782 --602: 	if ((BitSize & 7U) != 0U)
0000090c c60e0700       1783 	andi	7,r6,r1
00000910 e009           1784 	cmp	zero,r1
00000912 b205*          1785 	be	.L468
                        1786 --603: 	{
                        1787 --604: 		ByteSize += 1U;
                        1788 --line604
                        1789 ..lin.D.3A.5CCANFDGwMcuFirmRH850F1x.5Ccode.5CCANFDGwMcuFirmRH850F1x.5CCANFDGwMcuFirmRH850F1x.5Cprj.5CGHS.20MULTI.5CCAN.20Gateway.5Coutput.5Cobj.5Cpe1.5CCom.49::
                        1790 .LDWlin49:
00000914 4112           1791 	add	1,r2
00000916 8200           1792 	zxb	r2
                        1793 .L468:
                        1794 --605: 	}
                        1795 --607: 	/* ---- Compare signal's current value with old one. ---- */
                        1796 --608: 	CurSigRef = com_signal_obj_tbl[SigId];
00000918 0708           1797 	mov	r7,r1
0000091a c20a           1798 	shl	2,r1
0000091c 249f0100*      1799 	ld.w	sdaoff(_com_signal_obj_tbl)[gp],r19
00000920 01f0           1800 	mov	r1,ep
00000922 d3f1           1801 	add	r19,ep
00000924 00f5           1802 	sld.w	0[ep],ep
                        1803 --609: 	OldSigRef = com_old_sig_obj_tbl[SigId];
00000926 0708           1804 	mov	r7,r1
00000928 c20a           1805 	shl	2,r1
0000092a 249f0100*      1806 	ld.w	sdaoff(_com_old_sig_obj_tbl)[gp],r19
0000092e d309           1807 	add	r19,r1
00000930 219f0100       1808 	ld.w	0[r1],r19
                        1809 --610: 	IsChanged = FALSE;
00000934 000a           1810 	mov	0,r1
                        1811 --611: 	/* MISRA C:2012 Violation - Rule 11.5, 11.8 */
                        1812 --612: 	/* Justification - conversion on pointer is unavoidable */
                        1813 --613: 	switch (ByteSize)
00000936 6112           1814 	cmp	1,r2
00000938 c11d*          1815 	bl	.L481
0000093a e205*          1816 	be	.L472
0000093c 6212           1817 	cmp	2,r2
0000093e b20d*          1818 	be	.L475
00000940 6412           1819 	cmp	4,r2

                                                                      Page 31
                                                              C:\Users\TIEZHU~1\AppData\Local\Temp\gh_00005js1.si
00000942 8315*          1820 	bnh	.L478
00000944 e515*          1821 	br	.L481
                        1822 .L472:
                        1823 --614: 	{
                        1824 --615: 		case 1U:
                        1825 --616: 			if ((*(uint8_t*) CurSigRef) != (*(uint8_t*) OldSigRef))
                        1826 --line616
                        1827 ..lin.D.3A.5CCANFDGwMcuFirmRH850F1x.5Ccode.5CCANFDGwMcuFirmRH850F1x.5CCANFDGwMcuFirmRH850F1x.5Cprj.5CGHS.20MULTI.5CCAN.20Gateway.5Coutput.5Cobj.5Cpe1.5CCom.50::
                        1828 .LDWlin50:
00000946 93170100       1829 	ld.bu	0[r19],r2
0000094a 6098           1830 	sld.bu	0[ep],r19
0000094c e299           1831 	cmp	r2,r19
0000094e 9225*          1832 	be	.L484
                        1833 --617: 			{
                        1834 --618: 				IsChanged = TRUE;
                        1835 --line618
                        1836 ..lin.D.3A.5CCANFDGwMcuFirmRH850F1x.5Ccode.5CCANFDGwMcuFirmRH850F1x.5CCANFDGwMcuFirmRH850F1x.5Cprj.5CGHS.20MULTI.5CCAN.20Gateway.5Coutput.5Cobj.5Cpe1.5CCom.51::
                        1837 .LDWlin51:
00000950 010a           1838 	mov	1,r1
00000952 f51d*          1839 	br	.L484
                        1840 .L475:
                        1841 --619: 			}
                        1842 --620: 			break;
                        1843 --621: 		case 2U:
                        1844 --622: 			if ((*(uint16_t*) CurSigRef) != (*(uint16_t*) OldSigRef))
                        1845 --line622
                        1846 ..lin.D.3A.5CCANFDGwMcuFirmRH850F1x.5Ccode.5CCANFDGwMcuFirmRH850F1x.5CCANFDGwMcuFirmRH850F1x.5Cprj.5CGHS.20MULTI.5CCAN.20Gateway.5Coutput.5Cobj.5Cpe1.5CCom.52::
                        1847 .LDWlin52:
00000954 f3170100       1848 	ld.hu	0[r19],r2
00000958 7098           1849 	sld.hu	0[ep],r19
0000095a e299           1850 	cmp	r2,r19
0000095c a21d*          1851 	be	.L484
                        1852 --623: 			{
                        1853 --624: 				IsChanged = TRUE;
                        1854 --line624
                        1855 ..lin.D.3A.5CCANFDGwMcuFirmRH850F1x.5Ccode.5CCANFDGwMcuFirmRH850F1x.5CCANFDGwMcuFirmRH850F1x.5Cprj.5CGHS.20MULTI.5CCAN.20Gateway.5Coutput.5Cobj.5Cpe1.5CCom.53::
                        1856 .LDWlin53:
0000095e 010a           1857 	mov	1,r1
00000960 851d*          1858 	br	.L484
                        1859 .L478:
                        1860 --625: 			}
                        1861 --626: 			break;
                        1862 --627: 		case 3U:
                        1863 --628: 		case 4U:
                        1864 --629: 			if ((*(uint32_t*) CurSigRef) != (*(uint32_t*) OldSigRef))
                        1865 --line629
                        1866 ..lin.D.3A.5CCANFDGwMcuFirmRH850F1x.5Ccode.5CCANFDGwMcuFirmRH850F1x.5CCANFDGwMcuFirmRH850F1x.5Cprj.5CGHS.20MULTI.5CCAN.20Gateway.5Coutput.5Cobj.5Cpe1.5CCom.54::
                        1867 .LDWlin54:
00000962 33170100       1868 	ld.w	0[r19],r2
00000966 009d           1869 	sld.w	0[ep],r19
00000968 e299           1870 	cmp	r2,r19
0000096a b215*          1871 	be	.L484
                        1872 --630: 			{
                        1873 --631: 				IsChanged = TRUE;
                        1874 --line631
                        1875 ..lin.D.3A.5CCANFDGwMcuFirmRH850F1x.5Ccode.5CCANFDGwMcuFirmRH850F1x.5CCANFDGwMcuFirmRH850F1x.5Cprj.5CGHS.20MULTI.5CCAN.20Gateway.5Coutput.5Cobj.5Cpe1.5CCom.55::
                        1876 .LDWlin55:
0000096c 010a           1877 	mov	1,r1
0000096e 9515*          1878 	br	.L484
                        1879 .L481:
                        1880 --632: 			}

                                                                      Page 32
                                                              C:\Users\TIEZHU~1\AppData\Local\Temp\gh_00005js1.si
                        1881 --633: 			break;
                        1882 --634: 		default:
                        1883 --635: 			if (((uint32_t*) CurSigRef)[0] != ((uint32_t*) CurSigRef)[0])
                        1884 --line635
                        1885 ..lin.D.3A.5CCANFDGwMcuFirmRH850F1x.5Ccode.5CCANFDGwMcuFirmRH850F1x.5CCANFDGwMcuFirmRH850F1x.5Cprj.5CGHS.20MULTI.5CCAN.20Gateway.5Coutput.5Cobj.5Cpe1.5CCom.56::
                        1886 .LDWlin56:
00000970 0015           1887 	sld.w	0[ep],r2
00000972 009d           1888 	sld.w	0[ep],r19
00000974 e299           1889 	cmp	r2,r19
00000976 b205*          1890 	be	.L482
                        1891 --636: 			{
                        1892 --637: 				IsChanged = TRUE;
                        1893 --line637
                        1894 ..lin.D.3A.5CCANFDGwMcuFirmRH850F1x.5Ccode.5CCANFDGwMcuFirmRH850F1x.5CCANFDGwMcuFirmRH850F1x.5Cprj.5CGHS.20MULTI.5CCAN.20Gateway.5Coutput.5Cobj.5Cpe1.5CCom.57::
                        1895 .LDWlin57:
00000978 010a           1896 	mov	1,r1
                        1897 --638: 				break;
0000097a b50d*          1898 	br	.L484
                        1899 .L482:
                        1900 --639: 			}
                        1901 --640: 			if (((uint32_t*) CurSigRef)[1] != ((uint32_t*) CurSigRef)[1])
                        1902 --line640
                        1903 ..lin.D.3A.5CCANFDGwMcuFirmRH850F1x.5Ccode.5CCANFDGwMcuFirmRH850F1x.5CCANFDGwMcuFirmRH850F1x.5Cprj.5CGHS.20MULTI.5CCAN.20Gateway.5Coutput.5Cobj.5Cpe1.5CCom.58::
                        1904 .LDWlin58:
0000097c 1e160400       1905 	addi	4,ep,r2
00000980 1ef60400       1906 	addi	4,ep,ep
00000984 009d           1907 	sld.w	0[ep],r19
00000986 22170100       1908 	ld.w	0[r2],r2
0000098a f311           1909 	cmp	r19,r2
0000098c a205*          1910 	be	.L484
                        1911 --641: 			{
                        1912 --642: 				IsChanged = TRUE;
                        1913 --line642
                        1914 ..lin.D.3A.5CCANFDGwMcuFirmRH850F1x.5Ccode.5CCANFDGwMcuFirmRH850F1x.5CCANFDGwMcuFirmRH850F1x.5Cprj.5CGHS.20MULTI.5CCAN.20Gateway.5Coutput.5Cobj.5Cpe1.5CCom.59::
                        1915 .LDWlin59:
0000098e 010a           1916 	mov	1,r1
                        1917 .L484:
                        1918 --643: 			}
                        1919 --644: 			break;
                        1920 --645: 	}
                        1921 --647: 	return IsChanged;
00000990 0150           1922 	mov	r1,r10
                        1923 --	    .ef
                        1924 .LDW71:
00000992 7f00           1925 	jmp	[lp]
                        1926 	.type	_com_is_signal_changed,@function
                        1927 	.size	_com_is_signal_changed,.-_com_is_signal_changed
                        1928 	.type	_com_is_signal_changed..D.3A.5CCANFDGwMcuFirmRH850F1x.5Ccode.5CCANFDGwMcuFirmRH850F1x.5CCANFDGwMcuFirmRH850F1x.5Cprj.5CGHS.20MULTI.5CCAN.20Gateway.5Coutput.5Cobj.5Cpe1.5CCom.,@function
                        1929 	.size	_com_is_signal_changed..D.3A.5CCANFDGwMcuFirmRH850F1x.5Ccode.5CCANFDGwMcuFirmRH850F1x.5CCANFDGwMcuFirmRH850F1x.5Cprj.5CGHS.20MULTI.5CCAN.20Gateway.5Coutput.5Cobj.5Cpe1.5CCom.,.-_com_is_signal_changed..D.3A.5CCANFDGwMcuFirmRH850F1x.5Ccode.5CCANFDGwMcuFirmRH850F1x.5CCANFDGwMcuFirmRH850F1x.5Cprj.5CGHS.20MULTI.5CCAN.20Gateway.5Coutput.5Cobj.5Cpe1.5CCom.
                        1930 	.align	2
                        1931 .LDW81:
                        1932 --_ByteSize	r2	local
                        1933 --_CurSigRef	ep	local
                        1934 --_OldSigRef	r19	local
                        1935 --_IsChanged	r1	local
                        1936 
                        1937 --_BitSize	r6	param
                        1938 --_SigId	r7	param
                        1939 
                        1940 	.section ".sbss","awb"
                        1941 	.align	4

                                                                      Page 33
                                                              C:\Users\TIEZHU~1\AppData\Local\Temp\gh_00005js1.si
                        1942 	.global	_com_ipdu_obj_tbl..D.3A.5CCANFDGwMcuFirmRH850F1x.5Ccode.5CCANFDGwMcuFirmRH850F1x.5CCANFDGwMcuFirmRH850F1x.5Cprj.5CGHS.20MULTI.5CCAN.20Gateway.5Coutput.5Cobj.5Cpe1.5CCom.
                        1943 _com_ipdu_obj_tbl..D.3A.5CCANFDGwMcuFirmRH850F1x.5Ccode.5CCANFDGwMcuFirmRH850F1x.5CCANFDGwMcuFirmRH850F1x.5Cprj.5CGHS.20MULTI.5CCAN.20Gateway.5Coutput.5Cobj.5Cpe1.5CCom.:
00000000 00000000       1944 _com_ipdu_obj_tbl:	.space	4
                        1945 	.type	_com_ipdu_obj_tbl..D.3A.5CCANFDGwMcuFirmRH850F1x.5Ccode.5CCANFDGwMcuFirmRH850F1x.5CCANFDGwMcuFirmRH850F1x.5Cprj.5CGHS.20MULTI.5CCAN.20Gateway.5Coutput.5Cobj.5Cpe1.5CCom.,@object
                        1946 	.size	_com_ipdu_obj_tbl..D.3A.5CCANFDGwMcuFirmRH850F1x.5Ccode.5CCANFDGwMcuFirmRH850F1x.5CCANFDGwMcuFirmRH850F1x.5Cprj.5CGHS.20MULTI.5CCAN.20Gateway.5Coutput.5Cobj.5Cpe1.5CCom.,4
                        1947 	.type	_com_ipdu_obj_tbl,@object
                        1948 	.size	_com_ipdu_obj_tbl,4
                        1949 	.global	_com_ipdu_cfg_tbl..D.3A.5CCANFDGwMcuFirmRH850F1x.5Ccode.5CCANFDGwMcuFirmRH850F1x.5CCANFDGwMcuFirmRH850F1x.5Cprj.5CGHS.20MULTI.5CCAN.20Gateway.5Coutput.5Cobj.5Cpe1.5CCom.
                        1950 _com_ipdu_cfg_tbl..D.3A.5CCANFDGwMcuFirmRH850F1x.5Ccode.5CCANFDGwMcuFirmRH850F1x.5CCANFDGwMcuFirmRH850F1x.5Cprj.5CGHS.20MULTI.5CCAN.20Gateway.5Coutput.5Cobj.5Cpe1.5CCom.:
00000004 00000000       1951 _com_ipdu_cfg_tbl:	.space	4
                        1952 	.type	_com_ipdu_cfg_tbl..D.3A.5CCANFDGwMcuFirmRH850F1x.5Ccode.5CCANFDGwMcuFirmRH850F1x.5CCANFDGwMcuFirmRH850F1x.5Cprj.5CGHS.20MULTI.5CCAN.20Gateway.5Coutput.5Cobj.5Cpe1.5CCom.,@object
                        1953 	.size	_com_ipdu_cfg_tbl..D.3A.5CCANFDGwMcuFirmRH850F1x.5Ccode.5CCANFDGwMcuFirmRH850F1x.5CCANFDGwMcuFirmRH850F1x.5Cprj.5CGHS.20MULTI.5CCAN.20Gateway.5Coutput.5Cobj.5Cpe1.5CCom.,4
                        1954 	.type	_com_ipdu_cfg_tbl,@object
                        1955 	.size	_com_ipdu_cfg_tbl,4
                        1956 	.global	_com_signal_obj_tbl..D.3A.5CCANFDGwMcuFirmRH850F1x.5Ccode.5CCANFDGwMcuFirmRH850F1x.5CCANFDGwMcuFirmRH850F1x.5Cprj.5CGHS.20MULTI.5CCAN.20Gateway.5Coutput.5Cobj.5Cpe1.5CCom.
                        1957 _com_signal_obj_tbl..D.3A.5CCANFDGwMcuFirmRH850F1x.5Ccode.5CCANFDGwMcuFirmRH850F1x.5CCANFDGwMcuFirmRH850F1x.5Cprj.5CGHS.20MULTI.5CCAN.20Gateway.5Coutput.5Cobj.5Cpe1.5CCom.:
00000008 00000000       1958 _com_signal_obj_tbl:	.space	4
                        1959 	.type	_com_signal_obj_tbl..D.3A.5CCANFDGwMcuFirmRH850F1x.5Ccode.5CCANFDGwMcuFirmRH850F1x.5CCANFDGwMcuFirmRH850F1x.5Cprj.5CGHS.20MULTI.5CCAN.20Gateway.5Coutput.5Cobj.5Cpe1.5CCom.,@object
                        1960 	.size	_com_signal_obj_tbl..D.3A.5CCANFDGwMcuFirmRH850F1x.5Ccode.5CCANFDGwMcuFirmRH850F1x.5CCANFDGwMcuFirmRH850F1x.5Cprj.5CGHS.20MULTI.5CCAN.20Gateway.5Coutput.5Cobj.5Cpe1.5CCom.,4
                        1961 	.type	_com_signal_obj_tbl,@object
                        1962 	.size	_com_signal_obj_tbl,4
                        1963 	.global	_com_old_sig_obj_tbl..D.3A.5CCANFDGwMcuFirmRH850F1x.5Ccode.5CCANFDGwMcuFirmRH850F1x.5CCANFDGwMcuFirmRH850F1x.5Cprj.5CGHS.20MULTI.5CCAN.20Gateway.5Coutput.5Cobj.5Cpe1.5CCom.
                        1964 _com_old_sig_obj_tbl..D.3A.5CCANFDGwMcuFirmRH850F1x.5Ccode.5CCANFDGwMcuFirmRH850F1x.5CCANFDGwMcuFirmRH850F1x.5Cprj.5CGHS.20MULTI.5CCAN.20Gateway.5Coutput.5Cobj.5Cpe1.5CCom.:
0000000c 00000000       1965 _com_old_sig_obj_tbl:	.space	4
                        1966 	.type	_com_old_sig_obj_tbl..D.3A.5CCANFDGwMcuFirmRH850F1x.5Ccode.5CCANFDGwMcuFirmRH850F1x.5CCANFDGwMcuFirmRH850F1x.5Cprj.5CGHS.20MULTI.5CCAN.20Gateway.5Coutput.5Cobj.5Cpe1.5CCom.,@object
                        1967 	.size	_com_old_sig_obj_tbl..D.3A.5CCANFDGwMcuFirmRH850F1x.5Ccode.5CCANFDGwMcuFirmRH850F1x.5CCANFDGwMcuFirmRH850F1x.5Cprj.5CGHS.20MULTI.5CCAN.20Gateway.5Coutput.5Cobj.5Cpe1.5CCom.,4
                        1968 	.type	_com_old_sig_obj_tbl,@object
                        1969 	.size	_com_old_sig_obj_tbl,4
                        1970 	.global	_com_signal_cfg_tbl..D.3A.5CCANFDGwMcuFirmRH850F1x.5Ccode.5CCANFDGwMcuFirmRH850F1x.5CCANFDGwMcuFirmRH850F1x.5Cprj.5CGHS.20MULTI.5CCAN.20Gateway.5Coutput.5Cobj.5Cpe1.5CCom.
                        1971 _com_signal_cfg_tbl..D.3A.5CCANFDGwMcuFirmRH850F1x.5Ccode.5CCANFDGwMcuFirmRH850F1x.5CCANFDGwMcuFirmRH850F1x.5Cprj.5CGHS.20MULTI.5CCAN.20Gateway.5Coutput.5Cobj.5Cpe1.5CCom.:
00000010 00000000       1972 _com_signal_cfg_tbl:	.space	4
                        1973 	.type	_com_signal_cfg_tbl..D.3A.5CCANFDGwMcuFirmRH850F1x.5Ccode.5CCANFDGwMcuFirmRH850F1x.5CCANFDGwMcuFirmRH850F1x.5Cprj.5CGHS.20MULTI.5CCAN.20Gateway.5Coutput.5Cobj.5Cpe1.5CCom.,@object
                        1974 	.size	_com_signal_cfg_tbl..D.3A.5CCANFDGwMcuFirmRH850F1x.5Ccode.5CCANFDGwMcuFirmRH850F1x.5CCANFDGwMcuFirmRH850F1x.5Cprj.5CGHS.20MULTI.5CCAN.20Gateway.5Coutput.5Cobj.5Cpe1.5CCom.,4
                        1975 	.type	_com_signal_cfg_tbl,@object
                        1976 	.size	_com_signal_cfg_tbl,4
                        1977 	.global	_com_num_of_tx_ipdu..D.3A.5CCANFDGwMcuFirmRH850F1x.5Ccode.5CCANFDGwMcuFirmRH850F1x.5CCANFDGwMcuFirmRH850F1x.5Cprj.5CGHS.20MULTI.5CCAN.20Gateway.5Coutput.5Cobj.5Cpe1.5CCom.
                        1978 _com_num_of_tx_ipdu..D.3A.5CCANFDGwMcuFirmRH850F1x.5Ccode.5CCANFDGwMcuFirmRH850F1x.5CCANFDGwMcuFirmRH850F1x.5Cprj.5CGHS.20MULTI.5CCAN.20Gateway.5Coutput.5Cobj.5Cpe1.5CCom.:
00000014 0000           1979 _com_num_of_tx_ipdu:	.space	2
                        1980 	.type	_com_num_of_tx_ipdu..D.3A.5CCANFDGwMcuFirmRH850F1x.5Ccode.5CCANFDGwMcuFirmRH850F1x.5CCANFDGwMcuFirmRH850F1x.5Cprj.5CGHS.20MULTI.5CCAN.20Gateway.5Coutput.5Cobj.5Cpe1.5CCom.,@object
                        1981 	.size	_com_num_of_tx_ipdu..D.3A.5CCANFDGwMcuFirmRH850F1x.5Ccode.5CCANFDGwMcuFirmRH850F1x.5CCANFDGwMcuFirmRH850F1x.5Cprj.5CGHS.20MULTI.5CCAN.20Gateway.5Coutput.5Cobj.5Cpe1.5CCom.,2
                        1982 	.type	_com_num_of_tx_ipdu,@object
                        1983 	.size	_com_num_of_tx_ipdu,2
                        1984 	.global	_com_num_of_signal..D.3A.5CCANFDGwMcuFirmRH850F1x.5Ccode.5CCANFDGwMcuFirmRH850F1x.5CCANFDGwMcuFirmRH850F1x.5Cprj.5CGHS.20MULTI.5CCAN.20Gateway.5Coutput.5Cobj.5Cpe1.5CCom.
                        1985 _com_num_of_signal..D.3A.5CCANFDGwMcuFirmRH850F1x.5Ccode.5CCANFDGwMcuFirmRH850F1x.5CCANFDGwMcuFirmRH850F1x.5Cprj.5CGHS.20MULTI.5CCAN.20Gateway.5Coutput.5Cobj.5Cpe1.5CCom.:
00000016 0000           1986 _com_num_of_signal:	.space	2
                        1987 	.type	_com_num_of_signal..D.3A.5CCANFDGwMcuFirmRH850F1x.5Ccode.5CCANFDGwMcuFirmRH850F1x.5CCANFDGwMcuFirmRH850F1x.5Cprj.5CGHS.20MULTI.5CCAN.20Gateway.5Coutput.5Cobj.5Cpe1.5CCom.,@object
                        1988 	.size	_com_num_of_signal..D.3A.5CCANFDGwMcuFirmRH850F1x.5Ccode.5CCANFDGwMcuFirmRH850F1x.5CCANFDGwMcuFirmRH850F1x.5Cprj.5CGHS.20MULTI.5CCAN.20Gateway.5Coutput.5Cobj.5Cpe1.5CCom.,2
                        1989 	.type	_com_num_of_signal,@object
                        1990 	.size	_com_num_of_signal,2
                        1991 	.section ".sdata","aw"
                        1992 	.global	_com_need_pdu_gw..D.3A.5CCANFDGwMcuFirmRH850F1x.5Ccode.5CCANFDGwMcuFirmRH850F1x.5CCANFDGwMcuFirmRH850F1x.5Cprj.5CGHS.20MULTI.5CCAN.20Gateway.5Coutput.5Cobj.5Cpe1.5CCom.
                        1993 _com_need_pdu_gw..D.3A.5CCANFDGwMcuFirmRH850F1x.5Ccode.5CCANFDGwMcuFirmRH850F1x.5CCANFDGwMcuFirmRH850F1x.5Cprj.5CGHS.20MULTI.5CCAN.20Gateway.5Coutput.5Cobj.5Cpe1.5CCom.:
00000000 00             1994 _com_need_pdu_gw:	.byte	0
                        1995 	.type	_com_need_pdu_gw..D.3A.5CCANFDGwMcuFirmRH850F1x.5Ccode.5CCANFDGwMcuFirmRH850F1x.5CCANFDGwMcuFirmRH850F1x.5Cprj.5CGHS.20MULTI.5CCAN.20Gateway.5Coutput.5Cobj.5Cpe1.5CCom.,@object
                        1996 	.size	_com_need_pdu_gw..D.3A.5CCANFDGwMcuFirmRH850F1x.5Ccode.5CCANFDGwMcuFirmRH850F1x.5CCANFDGwMcuFirmRH850F1x.5Cprj.5CGHS.20MULTI.5CCAN.20Gateway.5Coutput.5Cobj.5Cpe1.5CCom.,1
                        1997 	.type	_com_need_pdu_gw,@object
                        1998 	.size	_com_need_pdu_gw,1
                        1999 	.global	_com_need_pdu_gw_with_repetition..D.3A.5CCANFDGwMcuFirmRH850F1x.5Ccode.5CCANFDGwMcuFirmRH850F1x.5CCANFDGwMcuFirmRH850F1x.5Cprj.5CGHS.20MULTI.5CCAN.20Gateway.5Coutput.5Cobj.5Cpe1.5CCom.
                        2000 _com_need_pdu_gw_with_repetition..D.3A.5CCANFDGwMcuFirmRH850F1x.5Ccode.5CCANFDGwMcuFirmRH850F1x.5CCANFDGwMcuFirmRH850F1x.5Cprj.5CGHS.20MULTI.5CCAN.20Gateway.5Coutput.5Cobj.5Cpe1.5CCom.:
00000001 00             2001 _com_need_pdu_gw_with_repetition:	.byte	0
                        2002 	.type	_com_need_pdu_gw_with_repetition..D.3A.5CCANFDGwMcuFirmRH850F1x.5Ccode.5CCANFDGwMcuFirmRH850F1x.5CCANFDGwMcuFirmRH850F1x.5Cprj.5CGHS.20MULTI.5CCAN.20Gateway.5Coutput.5Cobj.5Cpe1.5CCom.,@object

                                                                      Page 34
                                                              C:\Users\TIEZHU~1\AppData\Local\Temp\gh_00005js1.si
                        2003 	.size	_com_need_pdu_gw_with_repetition..D.3A.5CCANFDGwMcuFirmRH850F1x.5Ccode.5CCANFDGwMcuFirmRH850F1x.5CCANFDGwMcuFirmRH850F1x.5Cprj.5CGHS.20MULTI.5CCAN.20Gateway.5Coutput.5Cobj.5Cpe1.5CCom.,1
                        2004 	.type	_com_need_pdu_gw_with_repetition,@object
                        2005 	.size	_com_need_pdu_gw_with_repetition,1
                        2006 	.data
                        2007 	.text
                        2008 
                        2009 --648: } /* End of com_is_signal_changed() */
                        2010 
                        2011 --650: /***********************************************************************************************************************
                        2012 --651:  * Function Name: com_set_signal
                        2013 --652:  * Description  : Set specified value to signal's object.
                        2014 --653:  * Arguments    : BitSize -
                        2015 --654:  *                  Signal bit size.
                        2016 --655:  *                SigObjPtr -
                        2017 --656:  *                  Pointer to signal's object.
                        2018 --657:  *                ValuePtr-
                        2019 --658:  *                  Pointer to new value.
                        2020 --659:  * Return Value : void
                        2021 --660:  ***********************************************************************************************************************/
                        2022 --661: static void com_set_signal(uint8_t BitSize, void* SigObjPtr, const void* ValuePtr)
                        2023 	.align	2
                        2024 	.align	2
                        2025 	.global	_com_set_signal..D.3A.5CCANFDGwMcuFirmRH850F1x.5Ccode.5CCANFDGwMcuFirmRH850F1x.5CCANFDGwMcuFirmRH850F1x.5Cprj.5CGHS.20MULTI.5CCAN.20Gateway.5Coutput.5Cobj.5Cpe1.5CCom.
                        2026 _com_set_signal..D.3A.5CCANFDGwMcuFirmRH850F1x.5Ccode.5CCANFDGwMcuFirmRH850F1x.5CCANFDGwMcuFirmRH850F1x.5Cprj.5CGHS.20MULTI.5CCAN.20Gateway.5Coutput.5Cobj.5Cpe1.5CCom.:
                        2027 _com_set_signal:
00000994 8600           2028 	zxb	r6
00000996 07f0           2029 	mov	r7,ep
                        2030 --	    .bf
                        2031 .LDW91:
                        2032 --662: {
                        2033 --663: 	uint8_t ByteSize;
                        2034 --665: 	/* ---- Calculate signal's byte size. ---- */
                        2035 --666: 	ByteSize = (BitSize >> 3U);
00000998 0608           2036 	mov	r6,r1
0000099a a30a           2037 	sar	3,r1
0000099c 8100           2038 	zxb	r1
                        2039 --667: 	if ((BitSize & 7U) != 0U)
0000099e c6160700       2040 	andi	7,r6,r2
000009a2 e011           2041 	cmp	zero,r2
000009a4 b205*          2042 	be	.L588
                        2043 --668: 	{
                        2044 --669: 		ByteSize += 1U;
                        2045 --line669
                        2046 ..lin.D.3A.5CCANFDGwMcuFirmRH850F1x.5Ccode.5CCANFDGwMcuFirmRH850F1x.5CCANFDGwMcuFirmRH850F1x.5Cprj.5CGHS.20MULTI.5CCAN.20Gateway.5Coutput.5Cobj.5Cpe1.5CCom.60::
                        2047 .LDWlin60:
000009a6 410a           2048 	add	1,r1
000009a8 8100           2049 	zxb	r1
                        2050 .L588:
                        2051 --670: 	}
                        2052 --672: 	/* ---- Copy signal's content. ---- */
                        2053 --673: 	/* MISRA C:2012 Violation - Rule 11.5, 11.8 */
                        2054 --674: 	/* Justification - conversion on pointer is unavoidable */
                        2055 --675: 	switch (ByteSize)
000009aa 610a           2056 	cmp	1,r1
000009ac b115*          2057 	bl	.L595
000009ae e205*          2058 	be	.L592
000009b0 620a           2059 	cmp	2,r1
000009b2 820d*          2060 	be	.L593
000009b4 640a           2061 	cmp	4,r1
000009b6 a30d*          2062 	bnh	.L594
000009b8 d50d*          2063 	br	.L595

                                                                      Page 35
                                                              C:\Users\TIEZHU~1\AppData\Local\Temp\gh_00005js1.si
                        2064 .L592:
                        2065 --676: 	{
                        2066 --677: 		case 1U:
                        2067 --678: 			*(uint8_t*) SigObjPtr = *(const uint8_t*) ValuePtr;
                        2068 --line678
                        2069 ..lin.D.3A.5CCANFDGwMcuFirmRH850F1x.5Ccode.5CCANFDGwMcuFirmRH850F1x.5CCANFDGwMcuFirmRH850F1x.5Cprj.5CGHS.20MULTI.5CCAN.20Gateway.5Coutput.5Cobj.5Cpe1.5CCom.61::
                        2070 .LDWlin61:
000009ba 880f0100       2071 	ld.bu	0[r8],r1
000009be 800b           2072 	sst.b	r1,0[ep]
000009c0 f50d*          2073 	br	.L586
                        2074 .L593:
                        2075 --679: 			break;
                        2076 --680: 		case 2U:
                        2077 --681: 			*(uint16_t*) SigObjPtr = *(const uint16_t*) ValuePtr;
                        2078 --line681
                        2079 ..lin.D.3A.5CCANFDGwMcuFirmRH850F1x.5Ccode.5CCANFDGwMcuFirmRH850F1x.5CCANFDGwMcuFirmRH850F1x.5Cprj.5CGHS.20MULTI.5CCAN.20Gateway.5Coutput.5Cobj.5Cpe1.5CCom.62::
                        2080 .LDWlin62:
000009c2 e80f0100       2081 	ld.hu	0[r8],r1
000009c6 800c           2082 	sst.h	r1,0[ep]
000009c8 b50d*          2083 	br	.L586
                        2084 .L594:
                        2085 --682: 			break;
                        2086 --683: 		case 3U:
                        2087 --684: 		case 4U:
                        2088 --685: 			*(uint32_t*) SigObjPtr = *(const uint32_t*) ValuePtr;
                        2089 --line685
                        2090 ..lin.D.3A.5CCANFDGwMcuFirmRH850F1x.5Ccode.5CCANFDGwMcuFirmRH850F1x.5CCANFDGwMcuFirmRH850F1x.5Cprj.5CGHS.20MULTI.5CCAN.20Gateway.5Coutput.5Cobj.5Cpe1.5CCom.63::
                        2091 .LDWlin63:
000009ca 280f0100       2092 	ld.w	0[r8],r1
000009ce 010d           2093 	sst.w	r1,0[ep]
000009d0 f505*          2094 	br	.L586
                        2095 .L595:
                        2096 --686: 			break;
                        2097 --687: 		default:
                        2098 --688: 			*(float64_t*) SigObjPtr = *(const float64_t*) ValuePtr;
                        2099 --line688
                        2100 ..lin.D.3A.5CCANFDGwMcuFirmRH850F1x.5Ccode.5CCANFDGwMcuFirmRH850F1x.5CCANFDGwMcuFirmRH850F1x.5Cprj.5CGHS.20MULTI.5CCAN.20Gateway.5Coutput.5Cobj.5Cpe1.5CCom.64::
                        2101 .LDWlin64:
000009d2 a80709900000   2102 	ld.dw	0[r8],r18
000009d8 be070f900000   2103 	st.dw	r18,0[ep]
                        2104 .L586:
                        2105 --689: 			break;
                        2106 --690: 	}
                        2107 --691: } /* End of com_set_signal() */
                        2108 --	    .ef
                        2109 .LDW02:
000009de 7f00           2110 	jmp	[lp]
                        2111 	.type	_com_set_signal,@function
                        2112 	.size	_com_set_signal,.-_com_set_signal
                        2113 	.type	_com_set_signal..D.3A.5CCANFDGwMcuFirmRH850F1x.5Ccode.5CCANFDGwMcuFirmRH850F1x.5CCANFDGwMcuFirmRH850F1x.5Cprj.5CGHS.20MULTI.5CCAN.20Gateway.5Coutput.5Cobj.5Cpe1.5CCom.,@function
                        2114 	.size	_com_set_signal..D.3A.5CCANFDGwMcuFirmRH850F1x.5Ccode.5CCANFDGwMcuFirmRH850F1x.5CCANFDGwMcuFirmRH850F1x.5Cprj.5CGHS.20MULTI.5CCAN.20Gateway.5Coutput.5Cobj.5Cpe1.5CCom.,.-_com_set_signal..D.3A.5CCANFDGwMcuFirmRH850F1x.5Ccode.5CCANFDGwMcuFirmRH850F1x.5CCANFDGwMcuFirmRH850F1x.5Cprj.5CGHS.20MULTI.5CCAN.20Gateway.5Coutput.5Cobj.5Cpe1.5CCom.
                        2115 	.align	2
                        2116 .LDW12:
                        2117 --_ByteSize	r1	local
                        2118 
                        2119 --_BitSize	r6	param
                        2120 --_SigObjPtr	ep	param
                        2121 --_ValuePtr	r8	param
                        2122 
                        2123 	.data
                        2124 	.text

                                                                      Page 36
                                                              C:\Users\TIEZHU~1\AppData\Local\Temp\gh_00005js1.si
                        2125 
                        2126 
                        2127 --693: /***********************************************************************************************************************
                        2128 --694:  * Function Name: com_init_ipdu
                        2129 --695:  * Description  : Initialize I-PDU relevant information.
                        2130 --696:  * Arguments    : IPduId -
                        2131 --697:  *                  ID of specified IPDU.
                        2132 --698:  * Return Value : void
                        2133 --699:  ***********************************************************************************************************************/
                        2134 --700: static void com_init_ipdu(PduIdType IPduId)
                        2135 	.align	2
                        2136 	.align	2
                        2137 	.global	_com_init_ipdu..D.3A.5CCANFDGwMcuFirmRH850F1x.5Ccode.5CCANFDGwMcuFirmRH850F1x.5CCANFDGwMcuFirmRH850F1x.5Cprj.5CGHS.20MULTI.5CCAN.20Gateway.5Coutput.5Cobj.5Cpe1.5CCom.
                        2138 _com_init_ipdu..D.3A.5CCANFDGwMcuFirmRH850F1x.5Ccode.5CCANFDGwMcuFirmRH850F1x.5CCANFDGwMcuFirmRH850F1x.5Cprj.5CGHS.20MULTI.5CCAN.20Gateway.5Coutput.5Cobj.5Cpe1.5CCom.:
                        2139 _com_init_ipdu:
000009e0 031edcff       2140 	addi	-36,sp,sp
000009e4 63ff2100       2141 	st.w	lp,32[sp]
000009e8 63bf1d00       2142 	st.w	r23,28[sp]
000009ec 63c71900       2143 	st.w	r24,24[sp]
000009f0 63cf1500       2144 	st.w	r25,20[sp]
000009f4 63d71100       2145 	st.w	r26,16[sp]
000009f8 63df0d00       2146 	st.w	r27,12[sp]
000009fc 63e70900       2147 	st.w	r28,8[sp]
00000a00 63ef0500       2148 	st.w	r29,4[sp]
00000a04 c600           2149 	zxh	r6
                        2150 --	    .bf
                        2151 .LDW22:
                        2152 --701: {
                        2153 --702: 	const com_ipdu_cfg_t* IPduCfgPtr;
                        2154 --703: 	const com_signal_cfg_t* SigCfgPtr;
                        2155 --704: 	uint8_t Index;
                        2156 --705: 	uint8_t* PduObjPtr;
                        2157 --706: 	Com_SignalIdType SigId;
                        2158 --707: 	void* SigObjPtr;
                        2159 --708: 	uint16_t StarBit;
                        2160 --709: 	com_signal_endianess_t Endianess;
                        2161 --710: 	com_tx_ctrl_info_t* TxCtrlInfoPtr;
                        2162 --712: 	/* ---- Get reference of IPDU ---- */
                        2163 --713: 	IPduCfgPtr = &com_ipdu_cfg_tbl[IPduId];
00000a06 0608           2164 	mov	r6,r1
00000a08 fc0f4002       2165 	mul	28,r1,zero
00000a0c 24170100*      2166 	ld.w	sdaoff(_com_ipdu_cfg_tbl)[gp],r2
00000a10 01e0           2167 	mov	r1,r28
00000a12 c2e1           2168 	add	r2,r28
                        2169 --715: 	if (IPduCfgPtr->Direction == COM_IPDU_DIR_SEND)
00000a14 3c0f0500       2170 	ld.w	4[r28],r1
00000a18 610a           2171 	cmp	1,r1
00000a1a ba75*          2172 	bne	.L663
                        2173 --716: 	{
                        2174 --718: 		PduObjPtr = com_ipdu_obj_tbl[IPduId];
                        2175 --line718
                        2176 ..lin.D.3A.5CCANFDGwMcuFirmRH850F1x.5Ccode.5CCANFDGwMcuFirmRH850F1x.5CCANFDGwMcuFirmRH850F1x.5Cprj.5CGHS.20MULTI.5CCAN.20Gateway.5Coutput.5Cobj.5Cpe1.5CCom.65::
                        2177 .LDWlin65:
00000a1c 0608           2178 	mov	r6,r1
00000a1e c20a           2179 	shl	2,r1
00000a20 24170100*      2180 	ld.w	sdaoff(_com_ipdu_obj_tbl)[gp],r2
00000a24 01f0           2181 	mov	r1,ep
00000a26 c2f1           2182 	add	r2,ep
00000a28 00d5           2183 	sld.w	0[ep],r26
                        2184 --720: 		/* ---- Initialize transmission IPDU ---- */
                        2185 --721: 		for (Index = (uint8_t) 0U; Index < IPduCfgPtr->Size; Index++)

                                                                      Page 37
                                                              C:\Users\TIEZHU~1\AppData\Local\Temp\gh_00005js1.si
00000a2a 00ea           2186 	mov	0,r29
00000a2c e505*          2187 	br	.L670
                        2188 .L669:
                        2189 --722: 		{
                        2190 --723: 			PduObjPtr[Index] = (uint8_t) 0U;
                        2191 --line723
                        2192 ..lin.D.3A.5CCANFDGwMcuFirmRH850F1x.5Ccode.5CCANFDGwMcuFirmRH850F1x.5CCANFDGwMcuFirmRH850F1x.5Cprj.5CGHS.20MULTI.5CCAN.20Gateway.5Coutput.5Cobj.5Cpe1.5CCom.66::
                        2193 .LDWlin66:
00000a2e 1df0           2194 	mov	r29,ep
00000a30 daf1           2195 	add	r26,ep
00000a32 8003           2196 	sst.b	zero,0[ep]
00000a34 41ea           2197 	add	1,r29
00000a36 9d00           2198 	zxb	r29
                        2199 .L670:
00000a38 9c0f0300       2200 	ld.bu	2[r28],r1
00000a3c e1e9           2201 	cmp	r1,r29
00000a3e 81fd*          2202 	bl	.L669
                        2203 --724: 		}
                        2204 --726: 		/* ---- Initialize related signals ---- */
                        2205 --727: 		for (Index = (uint8_t) 0U; Index < IPduCfgPtr->NumberOfIPduSignal; Index++)
                        2206 --line727
                        2207 ..lin.D.3A.5CCANFDGwMcuFirmRH850F1x.5Ccode.5CCANFDGwMcuFirmRH850F1x.5CCANFDGwMcuFirmRH850F1x.5Cprj.5CGHS.20MULTI.5CCAN.20Gateway.5Coutput.5Cobj.5Cpe1.5CCom.67::
                        2208 .LDWlin67:
00000a40 00ea           2209 	mov	0,r29
00000a42 b555*          2210 	br	.L674
                        2211 .L673:
                        2212 --728: 		{
                        2213 --730: 			SigId = IPduCfgPtr->IPduSignalTable[Index]->SignalId;
                        2214 --line730
                        2215 ..lin.D.3A.5CCANFDGwMcuFirmRH850F1x.5Ccode.5CCANFDGwMcuFirmRH850F1x.5CCANFDGwMcuFirmRH850F1x.5Cprj.5CGHS.20MULTI.5CCAN.20Gateway.5Coutput.5Cobj.5Cpe1.5CCom.68::
                        2216 .LDWlin68:
00000a44 1d08           2217 	mov	r29,r1
00000a46 c20a           2218 	shl	2,r1
00000a48 3c170d00       2219 	ld.w	12[r28],r2
00000a4c 01f0           2220 	mov	r1,ep
00000a4e c2f1           2221 	add	r2,ep
00000a50 00f5           2222 	sld.w	0[ep],ep
00000a52 7108           2223 	sld.hu	2[ep],r1
                        2224 --731: 			StarBit = IPduCfgPtr->IPduSignalTable[Index]->StartBit;
00000a54 1d10           2225 	mov	r29,r2
00000a56 c212           2226 	shl	2,r2
00000a58 3c9f0d00       2227 	ld.w	12[r28],r19
00000a5c 02f0           2228 	mov	r2,ep
00000a5e d3f1           2229 	add	r19,ep
00000a60 00f5           2230 	sld.w	0[ep],ep
00000a62 70c0           2231 	sld.hu	0[ep],r24
                        2232 --732: 			Endianess = IPduCfgPtr->IPduSignalTable[Index]->Endianess;
00000a64 1d10           2233 	mov	r29,r2
00000a66 c212           2234 	shl	2,r2
00000a68 3c9f0d00       2235 	ld.w	12[r28],r19
00000a6c 02f0           2236 	mov	r2,ep
00000a6e d3f1           2237 	add	r19,ep
00000a70 00f5           2238 	sld.w	0[ep],ep
00000a72 04bd           2239 	sld.w	8[ep],r23
                        2240 --733: 			StarBit = IPduCfgPtr->IPduSignalTable[Index]->StartBit;
00000a74 1d10           2241 	mov	r29,r2
00000a76 c212           2242 	shl	2,r2
00000a78 3c9f0d00       2243 	ld.w	12[r28],r19
00000a7c 02f0           2244 	mov	r2,ep
00000a7e d3f1           2245 	add	r19,ep
00000a80 00f5           2246 	sld.w	0[ep],ep

                                                                      Page 38
                                                              C:\Users\TIEZHU~1\AppData\Local\Temp\gh_00005js1.si
00000a82 70c0           2247 	sld.hu	0[ep],r24
                        2248 --734: 			SigCfgPtr = &com_signal_cfg_tbl[SigId];
00000a84 0110           2249 	mov	r1,r2
00000a86 e4174402       2250 	mul	36,r2,zero
00000a8a 249f0100*      2251 	ld.w	sdaoff(_com_signal_cfg_tbl)[gp],r19
00000a8e 02d8           2252 	mov	r2,r27
00000a90 d3d9           2253 	add	r19,r27
                        2254 --735: 			SigObjPtr = com_signal_obj_tbl[SigId];
00000a92 0110           2255 	mov	r1,r2
00000a94 c212           2256 	shl	2,r2
00000a96 249f0100*      2257 	ld.w	sdaoff(_com_signal_obj_tbl)[gp],r19
00000a9a 02f0           2258 	mov	r2,ep
00000a9c d3f1           2259 	add	r19,ep
00000a9e 00cd           2260 	sld.w	0[ep],r25
                        2261 --737: 			com_set_signal(SigCfgPtr->BitSize, com_old_sig_obj_tbl[SigId], SigCfgPtr->InitialValue);
00000aa0 9b370300       2262 	ld.bu	2[r27],r6
00000aa4 c20a           2263 	shl	2,r1
00000aa6 24170100*      2264 	ld.w	sdaoff(_com_old_sig_obj_tbl)[gp],r2
00000aaa 01f0           2265 	mov	r1,ep
00000aac c2f1           2266 	add	r2,ep
00000aae 003d           2267 	sld.w	0[ep],r7
00000ab0 3b470d00       2268 	ld.w	12[r27],r8
                        2269 	jarl	_com_set_signal,lp
                        2269 <EXPANSION BEGIN>
                        2269 jarl22 _com_set_signal , lp 
00000ab4 bfffe0fe*      2269 <EXPANSION END>
                        2270 --738: 			com_set_signal(SigCfgPtr->BitSize, SigObjPtr, SigCfgPtr->InitialValue);
                        2271 --line738
                        2272 ..lin.D.3A.5CCANFDGwMcuFirmRH850F1x.5Ccode.5CCANFDGwMcuFirmRH850F1x.5CCANFDGwMcuFirmRH850F1x.5Cprj.5CGHS.20MULTI.5CCAN.20Gateway.5Coutput.5Cobj.5Cpe1.5CCom.69::
                        2273 .LDWlin69:
00000ab8 9b370300       2274 	ld.bu	2[r27],r6
00000abc 1938           2275 	mov	r25,r7
00000abe 3b470d00       2276 	ld.w	12[r27],r8
                        2277 	jarl	_com_set_signal,lp
                        2277 <EXPANSION BEGIN>
                        2277 jarl22 _com_set_signal , lp 
00000ac2 bfffd2fe*      2277 <EXPANSION END>
                        2278 --740: 			com_pack_one_signal(StarBit, Endianess, SigCfgPtr, PduObjPtr, SigObjPtr);
                        2279 --line740
                        2280 ..lin.D.3A.5CCANFDGwMcuFirmRH850F1x.5Ccode.5CCANFDGwMcuFirmRH850F1x.5CCANFDGwMcuFirmRH850F1x.5Cprj.5CGHS.20MULTI.5CCAN.20Gateway.5Coutput.5Cobj.5Cpe1.5CCom.70::
                        2281 .LDWlin70:
00000ac6 1830           2282 	mov	r24,r6
00000ac8 1738           2283 	mov	r23,r7
00000aca 1b40           2284 	mov	r27,r8
00000acc 1a48           2285 	mov	r26,r9
00000ace 63cf0100       2286 	st.w	r25,0[sp]
                        2287 	jarl	_com_pack_one_signal,lp
                        2287 <EXPANSION BEGIN>
                        2287 jarl22 _com_pack_one_signal , lp 
00000ad2 bfffc8f8*      2287 <EXPANSION END>
                        2288 --742: 			if (SigCfgPtr->NeedGatewayProcess != NULL_PTR)
                        2289 --line742
                        2290 ..lin.D.3A.5CCANFDGwMcuFirmRH850F1x.5Ccode.5CCANFDGwMcuFirmRH850F1x.5CCANFDGwMcuFirmRH850F1x.5Cprj.5CGHS.20MULTI.5CCAN.20Gateway.5Coutput.5Cobj.5Cpe1.5CCom.71::
                        2291 .LDWlin71:
00000ad6 3b0f2100       2292 	ld.w	32[r27],r1
00000ada e009           2293 	cmp	zero,r1
00000adc c205*          2294 	be	.L672
                        2295 --743: 			{
                        2296 --744: 				*(SigCfgPtr->NeedGatewayProcess) = FALSE;
                        2297 --line744
                        2298 ..lin.D.3A.5CCANFDGwMcuFirmRH850F1x.5Ccode.5CCANFDGwMcuFirmRH850F1x.5CCANFDGwMcuFirmRH850F1x.5Cprj.5CGHS.20MULTI.5CCAN.20Gateway.5Coutput.5Cobj.5Cpe1.5CCom.72::

                                                                      Page 39
                                                              C:\Users\TIEZHU~1\AppData\Local\Temp\gh_00005js1.si
                        2299 .LDWlin72:
00000ade 3bf72100       2300 	ld.w	32[r27],ep
00000ae2 8003           2301 	sst.b	zero,0[ep]
                        2302 .L672:
00000ae4 41ea           2303 	add	1,r29
00000ae6 9d00           2304 	zxb	r29
                        2305 .L674:
00000ae8 9c0f0900       2306 	ld.bu	8[r28],r1
00000aec e1e9           2307 	cmp	r1,r29
00000aee b1ad*          2308 	bl	.L673
                        2309 --745: 			}
                        2310 --746: 		}
                        2311 --748: 		/* ---- Initialize Tx control information. ---- */
                        2312 --749: 		TxCtrlInfoPtr = IPduCfgPtr->TxCtrlInfo;
                        2313 --line749
                        2314 ..lin.D.3A.5CCANFDGwMcuFirmRH850F1x.5Ccode.5CCANFDGwMcuFirmRH850F1x.5CCANFDGwMcuFirmRH850F1x.5Cprj.5CGHS.20MULTI.5CCAN.20Gateway.5Coutput.5Cobj.5Cpe1.5CCom.73::
                        2315 .LDWlin73:
00000af0 3cf71900       2316 	ld.w	24[r28],ep
                        2317 --750: 		TxCtrlInfoPtr->CyclicTxEnable = FALSE;
00000af4 8403           2318 	sst.b	zero,4[ep]
                        2319 --751: 		TxCtrlInfoPtr->PendingTxCounter = 0U;
00000af6 8503           2320 	sst.b	zero,5[ep]
                        2321 --752: 		TxCtrlInfoPtr->SpontaneousTxEnable = FALSE;
00000af8 8603           2322 	sst.b	zero,6[ep]
                        2323 --753: 		TxCtrlInfoPtr->TimerCounter = IPduCfgPtr->TxPeriod;
00000afa fc0f1700       2324 	ld.hu	22[r28],r1
00000afe 010d           2325 	sst.w	r1,0[ep]
                        2326 .L663:
                        2327 --754: 	}
                        2328 --755: } /* End of com_init_ipdu() */
                        2329 --	    .ef
                        2330 .LDW32:
00000b00 23ff2100       2331 	ld.w	32[sp],lp
00000b04 23ef0500       2332 	ld.w	4[sp],r29
00000b08 23e70900       2333 	ld.w	8[sp],r28
00000b0c 23df0d00       2334 	ld.w	12[sp],r27
00000b10 23d71100       2335 	ld.w	16[sp],r26
00000b14 23cf1500       2336 	ld.w	20[sp],r25
00000b18 23c71900       2337 	ld.w	24[sp],r24
00000b1c 23bf1d00       2338 	ld.w	28[sp],r23
00000b20 031e2400       2339 	addi	36,sp,sp
00000b24 7f00           2340 	jmp	[lp]
                        2341 	.type	_com_init_ipdu,@function
                        2342 	.size	_com_init_ipdu,.-_com_init_ipdu
                        2343 	.type	_com_init_ipdu..D.3A.5CCANFDGwMcuFirmRH850F1x.5Ccode.5CCANFDGwMcuFirmRH850F1x.5CCANFDGwMcuFirmRH850F1x.5Cprj.5CGHS.20MULTI.5CCAN.20Gateway.5Coutput.5Cobj.5Cpe1.5CCom.,@function
                        2344 	.size	_com_init_ipdu..D.3A.5CCANFDGwMcuFirmRH850F1x.5Ccode.5CCANFDGwMcuFirmRH850F1x.5CCANFDGwMcuFirmRH850F1x.5Cprj.5CGHS.20MULTI.5CCAN.20Gateway.5Coutput.5Cobj.5Cpe1.5CCom.,.-_com_init_ipdu..D.3A.5CCANFDGwMcuFirmRH850F1x.5Ccode.5CCANFDGwMcuFirmRH850F1x.5CCANFDGwMcuFirmRH850F1x.5Cprj.5CGHS.20MULTI.5CCAN.20Gateway.5Coutput.5Cobj.5Cpe1.5CCom.
                        2345 	.align	2
                        2346 .LDW42:
                        2347 --_IPduCfgPtr	r28	local
                        2348 --_SigCfgPtr	r27	local
                        2349 --_Index	r29	local
                        2350 --_PduObjPtr	r26	local
                        2351 --_SigId	r1	local
                        2352 --_SigObjPtr	r25	local
                        2353 --_StarBit	r24	local
                        2354 --_Endianess	r23	local
                        2355 --_TxCtrlInfoPtr	ep	local
                        2356 
                        2357 --_IPduId	r6	param
                        2358 
                        2359 	.data

                                                                      Page 40
                                                              C:\Users\TIEZHU~1\AppData\Local\Temp\gh_00005js1.si
                        2360 	.text
                        2361 
                        2362 
                        2363 --757: /***********************************************************************************************************************
                        2364 --758:  * Function Name: com_transmit_ipdu
                        2365 --759:  * Description  : Try to transmit an IPDU to PDU router module.
                        2366 --760:  * Arguments    : IPduId -
                        2367 --761:  *                  ID of specified IPDU.
                        2368 --762:  * Return Value : E_OK - Successfully transmitted to PDU router.
                        2369 --763:  *                E_NOT_OK - Failed when transmitted to PDU router.
                        2370 --764:  ***********************************************************************************************************************/
                        2371 --765: static Std_ReturnType com_transmit_ipdu(PduIdType IPduId)
                        2372 	.align	2
                        2373 	.align	2
                        2374 	.global	_com_transmit_ipdu..D.3A.5CCANFDGwMcuFirmRH850F1x.5Ccode.5CCANFDGwMcuFirmRH850F1x.5CCANFDGwMcuFirmRH850F1x.5Cprj.5CGHS.20MULTI.5CCAN.20Gateway.5Coutput.5Cobj.5Cpe1.5CCom.
                        2375 _com_transmit_ipdu..D.3A.5CCANFDGwMcuFirmRH850F1x.5Ccode.5CCANFDGwMcuFirmRH850F1x.5CCANFDGwMcuFirmRH850F1x.5Cprj.5CGHS.20MULTI.5CCAN.20Gateway.5Coutput.5Cobj.5Cpe1.5CCom.:
                        2376 _com_transmit_ipdu:
00000b26 541a           2377 	add	-12,sp
00000b28 63ff0900       2378 	st.w	lp,8[sp]
00000b2c c600           2379 	zxh	r6
                        2380 --	    .bf
                        2381 .LDW52:
                        2382 --766: {
                        2383 --767: 	PduInfoType TxIPduInfo;
                        2384 --769: 	/* ---- Transmit to PDU router  ---- */
                        2385 --770: 	TxIPduInfo.SduLength = com_ipdu_cfg_tbl[IPduId].Size;
00000b2e 0608           2386 	mov	r6,r1
00000b30 fc0f4002       2387 	mul	28,r1,zero
00000b34 24170100*      2388 	ld.w	sdaoff(_com_ipdu_cfg_tbl)[gp],r2
00000b38 01f0           2389 	mov	r1,ep
00000b3a c2f1           2390 	add	r2,ep
00000b3c 6208           2391 	sld.bu	2[ep],r1
00000b3e 430f0400       2392 	st.b	r1,4[sp]
                        2393 --771: 	TxIPduInfo.SduDataPtr = com_ipdu_obj_tbl[IPduId];
00000b42 0608           2394 	mov	r6,r1
00000b44 c20a           2395 	shl	2,r1
00000b46 24170100*      2396 	ld.w	sdaoff(_com_ipdu_obj_tbl)[gp],r2
00000b4a 01f0           2397 	mov	r1,ep
00000b4c c2f1           2398 	add	r2,ep
00000b4e 000d           2399 	sld.w	0[ep],r1
00000b50 630f0100       2400 	st.w	r1,0[sp]
                        2401 --772: 	/* MISRA C:2012 Violation - Rule 1.3 */
                        2402 --773: 	/* Justification - Taking address of near auto variable is unavoidable */
                        2403 --774: 	return PduR_ComTransmit(IPduId, &TxIPduInfo);
00000b54 233e0000       2404 	movea	0,sp,r7
                        2405 	jarl	_PduR_ComTransmit,lp
                        2405 <EXPANSION BEGIN>
                        2405 jarl22 _PduR_ComTransmit , lp 
00000b58 80ff0000*      2405 <EXPANSION END>
00000b5c 8a00           2406 	zxb	r10
                        2407 --	    .ef
                        2408 .LDW62:
                        2409 --line775
                        2410 ..lin.D.3A.5CCANFDGwMcuFirmRH850F1x.5Ccode.5CCANFDGwMcuFirmRH850F1x.5CCANFDGwMcuFirmRH850F1x.5Cprj.5CGHS.20MULTI.5CCAN.20Gateway.5Coutput.5Cobj.5Cpe1.5CCom.74::
                        2411 .LDWlin74:
00000b5e 23ff0900       2412 	ld.w	8[sp],lp
00000b62 4c1a           2413 	add	12,sp
00000b64 7f00           2414 	jmp	[lp]
                        2415 	.type	_com_transmit_ipdu,@function
                        2416 	.size	_com_transmit_ipdu,.-_com_transmit_ipdu
                        2417 	.type	_com_transmit_ipdu..D.3A.5CCANFDGwMcuFirmRH850F1x.5Ccode.5CCANFDGwMcuFirmRH850F1x.5CCANFDGwMcuFirmRH850F1x.5Cprj.5CGHS.20MULTI.5CCAN.20Gateway.5Coutput.5Cobj.5Cpe1.5CCom.,@function

                                                                      Page 41
                                                              C:\Users\TIEZHU~1\AppData\Local\Temp\gh_00005js1.si
                        2418 	.size	_com_transmit_ipdu..D.3A.5CCANFDGwMcuFirmRH850F1x.5Ccode.5CCANFDGwMcuFirmRH850F1x.5CCANFDGwMcuFirmRH850F1x.5Cprj.5CGHS.20MULTI.5CCAN.20Gateway.5Coutput.5Cobj.5Cpe1.5CCom.,.-_com_transmit_ipdu..D.3A.5CCANFDGwMcuFirmRH850F1x.5Ccode.5CCANFDGwMcuFirmRH850F1x.5CCANFDGwMcuFirmRH850F1x.5Cprj.5CGHS.20MULTI.5CCAN.20Gateway.5Coutput.5Cobj.5Cpe1.5CCom.
                        2419 	.align	2
                        2420 .LDW72:
                        2421 --_TxIPduInfo	0[sp]	local
                        2422 
                        2423 --_IPduId	r6	param
                        2424 
                        2425 	.data
                        2426 	.text
                        2427 
                        2428 --775: } /* End of com_transmit_ipdu() */
                        2429 
                        2430 --777: /*****************************************************************************
                        2431 --778:  Exported global variables and functions (to be accessed by other files)
                        2432 --779:  *****************************************************************************/
                        2433 --780: /***********************************************************************************************************************
                        2434 --781:  * Function Name: Com_Init
                        2435 --782:  * Description  : This service initializes internal and external interfaces and variables of the AUTOSAR COM layer for
                        2436 --783:  *                the further processing.
                        2437 --784:  * Arguments    : config -
                        2438 --785:  *                  Pointer to the COM configuration data.
                        2439 --786:  * Return Value : void
                        2440 --787:  ***********************************************************************************************************************/
                        2441 --788: void Com_Init(const Com_ConfigType* config)
                        2442 	.align	2
                        2443 	.align	2
                        2444 	.global	_Com_Init
                        2445 _Com_Init:
00000b66 581a           2446 	add	-8,sp
00000b68 63ff0500       2447 	st.w	lp,4[sp]
00000b6c 63ef0100       2448 	st.w	r29,0[sp]
00000b70 06e8           2449 	mov	r6,r29
                        2450 --	    .bf
                        2451 .LDW82:
                        2452 --789: {
                        2453 --790: 	PduIdType PduIdx;
                        2454 --792: 	/* check validity of parameters */
                        2455 --793: 	if (NULL_PTR == config)
00000b72 e0e9           2456 	cmp	zero,r29
00000b74 8a0d*          2457 	bne	.L789
                        2458 --794: 	{
                        2459 --795: 		User_ReportError((uint16_t) COM_MODULE_ID, (uint8_t) 0U, (uint8_t) COMServiceId_Init,
                        2460 --line795
                        2461 ..lin.D.3A.5CCANFDGwMcuFirmRH850F1x.5Ccode.5CCANFDGwMcuFirmRH850F1x.5CCANFDGwMcuFirmRH850F1x.5Cprj.5CGHS.20MULTI.5CCAN.20Gateway.5Coutput.5Cobj.5Cpe1.5CCom.75::
                        2462 .LDWlin75:
00000b76 20363200       2463 	movea	50,zero,r6
00000b7a 003a           2464 	mov	0,r7
00000b7c 0142           2465 	mov	1,r8
00000b7e 034a           2466 	mov	3,r9
                        2467 	jarl	_User_ReportError,lp
                        2467 <EXPANSION BEGIN>
                        2467 jarl22 _User_ReportError , lp 
00000b80 80ff0000*      2467 <EXPANSION END>
                        2468 .L789:
                        2469 --796: 		                 (uint8_t) COM_E_PARAM_POINTER);
                        2470 --797: 	}
                        2471 --799: 	/* ---- Initialize internal reference variables. ---- */
                        2472 --800: 	com_num_of_tx_ipdu = config->NumberOfTxIPdu;
                        2473 --line800
                        2474 ..lin.D.3A.5CCANFDGwMcuFirmRH850F1x.5Ccode.5CCANFDGwMcuFirmRH850F1x.5CCANFDGwMcuFirmRH850F1x.5Cprj.5CGHS.20MULTI.5CCAN.20Gateway.5Coutput.5Cobj.5Cpe1.5CCom.76::
                        2475 .LDWlin76:

                                                                      Page 42
                                                              C:\Users\TIEZHU~1\AppData\Local\Temp\gh_00005js1.si
00000b84 fd0f0100       2476 	ld.hu	0[r29],r1
00000b88 640f0000*      2477 	st.h	r1,sdaoff(_com_num_of_tx_ipdu)[gp]
                        2478 --801: 	com_ipdu_obj_tbl = config->IPduRefTable;
00000b8c 3d0f0900       2479 	ld.w	8[r29],r1
00000b90 640f0100*      2480 	st.w	r1,sdaoff(_com_ipdu_obj_tbl)[gp]
                        2481 --802: 	com_ipdu_cfg_tbl = config->IPduConfigTable;
00000b94 3d0f0500       2482 	ld.w	4[r29],r1
00000b98 640f0100*      2483 	st.w	r1,sdaoff(_com_ipdu_cfg_tbl)[gp]
                        2484 --803: 	com_num_of_signal = config->NumberOfSignal;
00000b9c fd0f0d00       2485 	ld.hu	12[r29],r1
00000ba0 640f0000*      2486 	st.h	r1,sdaoff(_com_num_of_signal)[gp]
                        2487 --804: 	com_signal_obj_tbl = config->SignalRefTable;
00000ba4 3d0f1500       2488 	ld.w	20[r29],r1
00000ba8 640f0100*      2489 	st.w	r1,sdaoff(_com_signal_obj_tbl)[gp]
                        2490 --805: 	com_old_sig_obj_tbl = config->OldSigRefTable;
00000bac 3d0f1900       2491 	ld.w	24[r29],r1
00000bb0 640f0100*      2492 	st.w	r1,sdaoff(_com_old_sig_obj_tbl)[gp]
                        2493 --806: 	com_signal_cfg_tbl = config->SignalConfigTable;
00000bb4 3d0f1100       2494 	ld.w	16[r29],r1
00000bb8 640f0100*      2495 	st.w	r1,sdaoff(_com_signal_cfg_tbl)[gp]
                        2496 --808: 	/* ---- Initialize I-PDU and related signals.  ---- */
                        2497 --809: 	for (PduIdx = (PduIdType) 0U; PduIdx < com_num_of_tx_ipdu; PduIdx++)
00000bbc 00ea           2498 	mov	0,r29
00000bbe e505*          2499 	br	.L794
                        2500 .L793:
                        2501 --810: 	{
                        2502 --811: 		com_init_ipdu(PduIdx);
                        2503 --line811
                        2504 ..lin.D.3A.5CCANFDGwMcuFirmRH850F1x.5Ccode.5CCANFDGwMcuFirmRH850F1x.5CCANFDGwMcuFirmRH850F1x.5Cprj.5CGHS.20MULTI.5CCAN.20Gateway.5Coutput.5Cobj.5Cpe1.5CCom.77::
                        2505 .LDWlin77:
00000bc0 1d30           2506 	mov	r29,r6
                        2507 	jarl	_com_init_ipdu,lp
                        2507 <EXPANSION BEGIN>
                        2507 jarl22 _com_init_ipdu , lp 
00000bc2 bfff1efe*      2507 <EXPANSION END>
                        2508 --line809
                        2509 ..lin.D.3A.5CCANFDGwMcuFirmRH850F1x.5Ccode.5CCANFDGwMcuFirmRH850F1x.5CCANFDGwMcuFirmRH850F1x.5Cprj.5CGHS.20MULTI.5CCAN.20Gateway.5Coutput.5Cobj.5Cpe1.5CCom.78::
                        2510 .LDWlin78:
00000bc6 41ea           2511 	add	1,r29
00000bc8 dd00           2512 	zxh	r29
                        2513 .L794:
00000bca e40f0100*      2514 	ld.hu	sdaoff(_com_num_of_tx_ipdu)[gp],r1
00000bce e1e9           2515 	cmp	r1,r29
00000bd0 81fd*          2516 	bl	.L793
                        2517 --812: 	}
                        2518 --813: } /* End of Com_Init() */
                        2519 --	    .ef
                        2520 .LDW92:
                        2521 --line813
                        2522 ..lin.D.3A.5CCANFDGwMcuFirmRH850F1x.5Ccode.5CCANFDGwMcuFirmRH850F1x.5CCANFDGwMcuFirmRH850F1x.5Cprj.5CGHS.20MULTI.5CCAN.20Gateway.5Coutput.5Cobj.5Cpe1.5CCom.79::
                        2523 .LDWlin79:
00000bd2 23ff0500       2524 	ld.w	4[sp],lp
00000bd6 23ef0100       2525 	ld.w	0[sp],r29
00000bda 481a           2526 	add	8,sp
00000bdc 7f00           2527 	jmp	[lp]
                        2528 	.type	_Com_Init,@function
                        2529 	.size	_Com_Init,.-_Com_Init
                        2530 	.align	2
                        2531 .LDW03:
                        2532 --_PduIdx	r29	local
                        2533 

                                                                      Page 43
                                                              C:\Users\TIEZHU~1\AppData\Local\Temp\gh_00005js1.si
                        2534 --_config	r29	param
                        2535 
                        2536 	.data
                        2537 	.text
                        2538 
                        2539 
                        2540 --815: /***********************************************************************************************************************
                        2541 --816:  * Function Name: Com_SendSignal
                        2542 --817:  * Description  : The service Com_SendSignal updates the signal object identified by SignalId with the signal referenced
                        2543 --818:  *                by the SignalDataPtr parameter. This function is called by upper level user.
                        2544 --819:  * Arguments    : SignalId -
                        2545 --820:  *                  signal ID
                        2546 --821:  *                SignalDataPtr -
                        2547 --822:  *                  pointer to signal data
                        2548 --823:  * Return Value : E_OK - service has been sent.
                        2549 --824:  *                COM_SERVICE_NOT_AVAILABLE - service failed.
                        2550 --825:  ***********************************************************************************************************************/
                        2551 --826: uint8 Com_SendSignal(Com_SignalIdType SignalId, const void* SignalDataPtr)
                        2552 	.align	2
                        2553 	.align	2
                        2554 	.global	_Com_SendSignal
                        2555 _Com_SendSignal:
00000bde 031ee0ff       2556 	addi	-32,sp,sp
00000be2 63ff1d00       2557 	st.w	lp,28[sp]
00000be6 63c71900       2558 	st.w	r24,24[sp]
00000bea 63cf1500       2559 	st.w	r25,20[sp]
00000bee 63d71100       2560 	st.w	r26,16[sp]
00000bf2 63df0d00       2561 	st.w	r27,12[sp]
00000bf6 63e70900       2562 	st.w	r28,8[sp]
00000bfa 63ef0500       2563 	st.w	r29,4[sp]
00000bfe c6ceffff       2564 	andi	65535,r6,r25
00000c02 07e0           2565 	mov	r7,r28
                        2566 --	    .bf
                        2567 .LDW13:
                        2568 --827: {
                        2569 --828: 	const com_signal_cfg_t* SigCfgPtr;
                        2570 --829: 	void* SigObjPtr;
                        2571 --830: 	uint8_t* PduObjPtr;
                        2572 --831: 	PduIdType TargetIPduId;
                        2573 --832: 	const com_ipdu_cfg_t* IPduCfgPtr;
                        2574 --833: 	com_tx_ctrl_info_t* TxCtrlInfoPtr;
                        2575 --834: 	uint8_t Idx;
                        2576 --835: 	uint16_t StartBit;
                        2577 --836: 	com_signal_endianess_t Endianess;
                        2578 --838: 	/* check validity of parameters */
                        2579 --839: 	if (NULL_PTR == SignalDataPtr)
00000c04 e0e1           2580 	cmp	zero,r28
00000c06 8a0d*          2581 	bne	.L841
                        2582 --840: 	{
                        2583 --841: 		User_ReportError((uint16_t) COM_MODULE_ID, (uint8_t) 0U, (uint8_t) COMServiceId_SendSignal,
                        2584 --line841
                        2585 ..lin.D.3A.5CCANFDGwMcuFirmRH850F1x.5Ccode.5CCANFDGwMcuFirmRH850F1x.5CCANFDGwMcuFirmRH850F1x.5Cprj.5CGHS.20MULTI.5CCAN.20Gateway.5Coutput.5Cobj.5Cpe1.5CCom.80::
                        2586 .LDWlin80:
00000c08 20363200       2587 	movea	50,zero,r6
00000c0c 003a           2588 	mov	0,r7
00000c0e 0a42           2589 	mov	10,r8
00000c10 034a           2590 	mov	3,r9
                        2591 	jarl	_User_ReportError,lp
                        2591 <EXPANSION BEGIN>
                        2591 jarl22 _User_ReportError , lp 
00000c12 80ff0000*      2591 <EXPANSION END>

                                                                      Page 44
                                                              C:\Users\TIEZHU~1\AppData\Local\Temp\gh_00005js1.si
                        2592 .L841:
                        2593 --842: 		                 (uint8_t) COM_E_PARAM_POINTER);
                        2594 --843: 	}
                        2595 --845: 	/* ---- Copy new content to signal object.  ---- */
                        2596 --846: 	SigCfgPtr = &com_signal_cfg_tbl[SignalId];
                        2597 --line846
                        2598 ..lin.D.3A.5CCANFDGwMcuFirmRH850F1x.5Ccode.5CCANFDGwMcuFirmRH850F1x.5CCANFDGwMcuFirmRH850F1x.5Cprj.5CGHS.20MULTI.5CCAN.20Gateway.5Coutput.5Cobj.5Cpe1.5CCom.81::
                        2599 .LDWlin81:
00000c16 1908           2600 	mov	r25,r1
00000c18 e40f4402       2601 	mul	36,r1,zero
00000c1c 24170100*      2602 	ld.w	sdaoff(_com_signal_cfg_tbl)[gp],r2
00000c20 01e8           2603 	mov	r1,r29
00000c22 c2e9           2604 	add	r2,r29
                        2605 --847: 	SigObjPtr = com_signal_obj_tbl[SignalId];
00000c24 1908           2606 	mov	r25,r1
00000c26 c20a           2607 	shl	2,r1
00000c28 24170100*      2608 	ld.w	sdaoff(_com_signal_obj_tbl)[gp],r2
00000c2c 01f0           2609 	mov	r1,ep
00000c2e c2f1           2610 	add	r2,ep
00000c30 00c5           2611 	sld.w	0[ep],r24
                        2612 --848: 	com_set_signal(SigCfgPtr->BitSize, com_old_sig_obj_tbl[SignalId], SigObjPtr);
00000c32 9d370300       2613 	ld.bu	2[r29],r6
00000c36 1908           2614 	mov	r25,r1
00000c38 c20a           2615 	shl	2,r1
00000c3a 24170100*      2616 	ld.w	sdaoff(_com_old_sig_obj_tbl)[gp],r2
00000c3e 01f0           2617 	mov	r1,ep
00000c40 c2f1           2618 	add	r2,ep
00000c42 003d           2619 	sld.w	0[ep],r7
00000c44 1840           2620 	mov	r24,r8
                        2621 	jarl	_com_set_signal,lp
                        2621 <EXPANSION BEGIN>
                        2621 jarl22 _com_set_signal , lp 
00000c46 bfff4efd*      2621 <EXPANSION END>
                        2622 --849: 	com_set_signal(SigCfgPtr->BitSize, SigObjPtr, SignalDataPtr);
                        2623 --line849
                        2624 ..lin.D.3A.5CCANFDGwMcuFirmRH850F1x.5Ccode.5CCANFDGwMcuFirmRH850F1x.5CCANFDGwMcuFirmRH850F1x.5Cprj.5CGHS.20MULTI.5CCAN.20Gateway.5Coutput.5Cobj.5Cpe1.5CCom.82::
                        2625 .LDWlin82:
00000c4a 9d370300       2626 	ld.bu	2[r29],r6
00000c4e 1838           2627 	mov	r24,r7
00000c50 1c40           2628 	mov	r28,r8
                        2629 	jarl	_com_set_signal,lp
                        2629 <EXPANSION BEGIN>
                        2629 jarl22 _com_set_signal , lp 
00000c52 bfff42fd*      2629 <EXPANSION END>
                        2630 --851: 	/* ---- Copy signal to related I-PDUs and transmit I-PDU. ---- */
                        2631 --852: 	for (Idx = (uint8_t) 0U; Idx < SigCfgPtr->NumOfIPduSignalMap; Idx++)
                        2632 --line852
                        2633 ..lin.D.3A.5CCANFDGwMcuFirmRH850F1x.5Ccode.5CCANFDGwMcuFirmRH850F1x.5CCANFDGwMcuFirmRH850F1x.5Cprj.5CGHS.20MULTI.5CCAN.20Gateway.5Coutput.5Cobj.5Cpe1.5CCom.83::
                        2634 .LDWlin83:
00000c56 00da           2635 	mov	0,r27
00000c58 b57d*          2636 	br	.L846
                        2637 .L845:
                        2638 --853: 	{
                        2639 --855: 		TargetIPduId = SigCfgPtr->IPduSignalMapTable[Idx]->IPduId;
                        2640 --line855
                        2641 ..lin.D.3A.5CCANFDGwMcuFirmRH850F1x.5Ccode.5CCANFDGwMcuFirmRH850F1x.5CCANFDGwMcuFirmRH850F1x.5Cprj.5CGHS.20MULTI.5CCAN.20Gateway.5Coutput.5Cobj.5Cpe1.5CCom.84::
                        2642 .LDWlin84:
00000c5a 1b08           2643 	mov	r27,r1
00000c5c c20a           2644 	shl	2,r1
00000c5e 3d171d00       2645 	ld.w	28[r29],r2
00000c62 01f0           2646 	mov	r1,ep

                                                                      Page 45
                                                              C:\Users\TIEZHU~1\AppData\Local\Temp\gh_00005js1.si
00000c64 c2f1           2647 	add	r2,ep
00000c66 00f5           2648 	sld.w	0[ep],ep
00000c68 72e0           2649 	sld.hu	4[ep],r28
                        2650 --856: 		PduObjPtr = com_ipdu_obj_tbl[TargetIPduId];
00000c6a 1c08           2651 	mov	r28,r1
00000c6c c20a           2652 	shl	2,r1
00000c6e 24170100*      2653 	ld.w	sdaoff(_com_ipdu_obj_tbl)[gp],r2
00000c72 01f0           2654 	mov	r1,ep
00000c74 c2f1           2655 	add	r2,ep
00000c76 004d           2656 	sld.w	0[ep],r9
                        2657 --858: 		/* Pack signal to I-PDU */
                        2658 --859: 		StartBit = SigCfgPtr->IPduSignalMapTable[Idx]->StartBit;
00000c78 1b08           2659 	mov	r27,r1
00000c7a c20a           2660 	shl	2,r1
00000c7c 3d171d00       2661 	ld.w	28[r29],r2
00000c80 01f0           2662 	mov	r1,ep
00000c82 c2f1           2663 	add	r2,ep
00000c84 00f5           2664 	sld.w	0[ep],ep
00000c86 7010           2665 	sld.hu	0[ep],r2
                        2666 --860: 		Endianess = SigCfgPtr->IPduSignalMapTable[Idx]->Endianess;
00000c88 1b08           2667 	mov	r27,r1
00000c8a c20a           2668 	shl	2,r1
00000c8c 3d9f1d00       2669 	ld.w	28[r29],r19
00000c90 01f0           2670 	mov	r1,ep
00000c92 d3f1           2671 	add	r19,ep
00000c94 00f5           2672 	sld.w	0[ep],ep
00000c96 043d           2673 	sld.w	8[ep],r7
                        2674 --861: 		com_pack_one_signal(StartBit, Endianess, SigCfgPtr, PduObjPtr, SigObjPtr);
00000c98 0230           2675 	mov	r2,r6
00000c9a 1d40           2676 	mov	r29,r8
00000c9c 63c70100       2677 	st.w	r24,0[sp]
                        2678 	jarl	_com_pack_one_signal,lp
                        2678 <EXPANSION BEGIN>
                        2678 jarl22 _com_pack_one_signal , lp 
00000ca0 bffffaf6*      2678 <EXPANSION END>
                        2679 --863: 		/* Trigger an immediate transmission (spontaneous) */
                        2680 --864: 		IPduCfgPtr = &com_ipdu_cfg_tbl[TargetIPduId];
                        2681 --line864
                        2682 ..lin.D.3A.5CCANFDGwMcuFirmRH850F1x.5Ccode.5CCANFDGwMcuFirmRH850F1x.5CCANFDGwMcuFirmRH850F1x.5Cprj.5CGHS.20MULTI.5CCAN.20Gateway.5Coutput.5Cobj.5Cpe1.5CCom.85::
                        2683 .LDWlin85:
00000ca4 1c08           2684 	mov	r28,r1
00000ca6 fc0f4002       2685 	mul	28,r1,zero
00000caa 24170100*      2686 	ld.w	sdaoff(_com_ipdu_cfg_tbl)[gp],r2
00000cae 01d0           2687 	mov	r1,r26
00000cb0 c2d1           2688 	add	r2,r26
                        2689 --865: 		TxCtrlInfoPtr = IPduCfgPtr->TxCtrlInfo;
00000cb2 3ae71900       2690 	ld.w	24[r26],r28
                        2691 --866: 		switch (SigCfgPtr->TransferProperty)
00000cb6 3d0f0900       2692 	ld.w	8[r29],r1
00000cba 610a           2693 	cmp	1,r1
00000cbc f145*          2694 	bl	.L844
00000cbe f205*          2695 	be	.L849
00000cc0 630a           2696 	cmp	3,r1
00000cc2 8115*          2697 	bl	.L852
00000cc4 d21d*          2698 	be	.L855
00000cc6 640a           2699 	cmp	4,r1
00000cc8 d22d*          2700 	be	.L860
00000cca 8545*          2701 	br	.L844
                        2702 .L849:
                        2703 --867: 		{
                        2704 --868: 			case COM_TX_PROP_ON_WRITE:

                                                                      Page 46
                                                              C:\Users\TIEZHU~1\AppData\Local\Temp\gh_00005js1.si
                        2705 --869: 				if (TxCtrlInfoPtr->PendingTxCounter == 0U)
                        2706 --line869
                        2707 ..lin.D.3A.5CCANFDGwMcuFirmRH850F1x.5Ccode.5CCANFDGwMcuFirmRH850F1x.5CCANFDGwMcuFirmRH850F1x.5Cprj.5CGHS.20MULTI.5CCAN.20Gateway.5Coutput.5Cobj.5Cpe1.5CCom.86::
                        2708 .LDWlin86:
00000ccc bc0f0500       2709 	ld.bu	5[r28],r1
00000cd0 e009           2710 	cmp	zero,r1
00000cd2 ca05*          2711 	bne	.L850
                        2712 --870: 				{
                        2713 --871: 					TxCtrlInfoPtr->PendingTxCounter = 1U;
                        2714 --line871
                        2715 ..lin.D.3A.5CCANFDGwMcuFirmRH850F1x.5Ccode.5CCANFDGwMcuFirmRH850F1x.5CCANFDGwMcuFirmRH850F1x.5Cprj.5CGHS.20MULTI.5CCAN.20Gateway.5Coutput.5Cobj.5Cpe1.5CCom.87::
                        2716 .LDWlin87:
00000cd4 010a           2717 	mov	1,r1
00000cd6 5c0f0500       2718 	st.b	r1,5[r28]
                        2719 .L850:
                        2720 --872: 				}
                        2721 --873: 				TxCtrlInfoPtr->SpontaneousTxEnable = TRUE;
00000cda 010a           2722 	mov	1,r1
00000cdc 5c0f0600       2723 	st.b	r1,6[r28]
00000ce0 d535*          2724 	br	.L844
                        2725 .L852:
                        2726 --874: 				break;
                        2727 --875: 			case COM_TX_PROP_ON_WRITE_WITH_REPETITION:
                        2728 --876: 				if (TxCtrlInfoPtr->PendingTxCounter < IPduCfgPtr->TxRepetitions)
                        2729 --line876
                        2730 ..lin.D.3A.5CCANFDGwMcuFirmRH850F1x.5Ccode.5CCANFDGwMcuFirmRH850F1x.5CCANFDGwMcuFirmRH850F1x.5Cprj.5CGHS.20MULTI.5CCAN.20Gateway.5Coutput.5Cobj.5Cpe1.5CCom.88::
                        2731 .LDWlin88:
00000ce2 9a0f1500       2732 	ld.bu	20[r26],r1
00000ce6 bc170500       2733 	ld.bu	5[r28],r2
00000cea e111           2734 	cmp	r1,r2
00000cec d905*          2735 	bnl	.L853
                        2736 --877: 				{
                        2737 --878: 					TxCtrlInfoPtr->PendingTxCounter = IPduCfgPtr->TxRepetitions;
                        2738 --line878
                        2739 ..lin.D.3A.5CCANFDGwMcuFirmRH850F1x.5Ccode.5CCANFDGwMcuFirmRH850F1x.5CCANFDGwMcuFirmRH850F1x.5Cprj.5CGHS.20MULTI.5CCAN.20Gateway.5Coutput.5Cobj.5Cpe1.5CCom.89::
                        2740 .LDWlin89:
00000cee 9a0f1500       2741 	ld.bu	20[r26],r1
00000cf2 5c0f0500       2742 	st.b	r1,5[r28]
                        2743 .L853:
                        2744 --879: 				}
                        2745 --880: 				TxCtrlInfoPtr->SpontaneousTxEnable = TRUE;
00000cf6 010a           2746 	mov	1,r1
00000cf8 5c0f0600       2747 	st.b	r1,6[r28]
00000cfc f525*          2748 	br	.L844
                        2749 .L855:
                        2750 --881: 				break;
                        2751 --882: 			case COM_TX_PROP_ON_CHANGE:
                        2752 --883: 				if (com_is_signal_changed(SigCfgPtr->BitSize, SignalId) == TRUE)
                        2753 --line883
                        2754 ..lin.D.3A.5CCANFDGwMcuFirmRH850F1x.5Ccode.5CCANFDGwMcuFirmRH850F1x.5CCANFDGwMcuFirmRH850F1x.5Cprj.5CGHS.20MULTI.5CCAN.20Gateway.5Coutput.5Cobj.5Cpe1.5CCom.90::
                        2755 .LDWlin90:
00000cfe 9d370300       2756 	ld.bu	2[r29],r6
00000d02 1938           2757 	mov	r25,r7
                        2758 	jarl	_com_is_signal_changed,lp
                        2758 <EXPANSION BEGIN>
                        2758 jarl22 _com_is_signal_changed , lp 
00000d04 bffffcfb*      2758 <EXPANSION END>
00000d08 6152           2759 	cmp	1,r10
00000d0a 8a25*          2760 	bne	.L844
                        2761 --884: 				{
                        2762 --885: 					if (TxCtrlInfoPtr->PendingTxCounter == 0U)

                                                                      Page 47
                                                              C:\Users\TIEZHU~1\AppData\Local\Temp\gh_00005js1.si
                        2763 --line885
                        2764 ..lin.D.3A.5CCANFDGwMcuFirmRH850F1x.5Ccode.5CCANFDGwMcuFirmRH850F1x.5CCANFDGwMcuFirmRH850F1x.5Cprj.5CGHS.20MULTI.5CCAN.20Gateway.5Coutput.5Cobj.5Cpe1.5CCom.91::
                        2765 .LDWlin91:
00000d0c bc0f0500       2766 	ld.bu	5[r28],r1
00000d10 e009           2767 	cmp	zero,r1
00000d12 ca05*          2768 	bne	.L858
                        2769 --886: 					{
                        2770 --887: 						TxCtrlInfoPtr->PendingTxCounter = 1U;
                        2771 --line887
                        2772 ..lin.D.3A.5CCANFDGwMcuFirmRH850F1x.5Ccode.5CCANFDGwMcuFirmRH850F1x.5CCANFDGwMcuFirmRH850F1x.5Cprj.5CGHS.20MULTI.5CCAN.20Gateway.5Coutput.5Cobj.5Cpe1.5CCom.92::
                        2773 .LDWlin92:
00000d14 010a           2774 	mov	1,r1
00000d16 5c0f0500       2775 	st.b	r1,5[r28]
                        2776 .L858:
                        2777 --888: 					}
                        2778 --889: 					TxCtrlInfoPtr->SpontaneousTxEnable = TRUE;
00000d1a 010a           2779 	mov	1,r1
00000d1c 5c0f0600       2780 	st.b	r1,6[r28]
00000d20 d515*          2781 	br	.L844
                        2782 .L860:
                        2783 --890: 				}
                        2784 --891: 				break;
                        2785 --892: 			case COM_TX_PROP_ON_CHANGE_WITH_REPETITION:
                        2786 --893: 				if (com_is_signal_changed(SigCfgPtr->BitSize, SignalId) == TRUE)
                        2787 --line893
                        2788 ..lin.D.3A.5CCANFDGwMcuFirmRH850F1x.5Ccode.5CCANFDGwMcuFirmRH850F1x.5CCANFDGwMcuFirmRH850F1x.5Cprj.5CGHS.20MULTI.5CCAN.20Gateway.5Coutput.5Cobj.5Cpe1.5CCom.93::
                        2789 .LDWlin93:
00000d22 9d370300       2790 	ld.bu	2[r29],r6
00000d26 1938           2791 	mov	r25,r7
                        2792 	jarl	_com_is_signal_changed,lp
                        2792 <EXPANSION BEGIN>
                        2792 jarl22 _com_is_signal_changed , lp 
00000d28 bfffd8fb*      2792 <EXPANSION END>
00000d2c 6152           2793 	cmp	1,r10
00000d2e ea0d*          2794 	bne	.L844
                        2795 --894: 				{
                        2796 --895: 					if (TxCtrlInfoPtr->PendingTxCounter < IPduCfgPtr->TxRepetitions)
                        2797 --line895
                        2798 ..lin.D.3A.5CCANFDGwMcuFirmRH850F1x.5Ccode.5CCANFDGwMcuFirmRH850F1x.5CCANFDGwMcuFirmRH850F1x.5Cprj.5CGHS.20MULTI.5CCAN.20Gateway.5Coutput.5Cobj.5Cpe1.5CCom.94::
                        2799 .LDWlin94:
00000d30 9a0f1500       2800 	ld.bu	20[r26],r1
00000d34 bc170500       2801 	ld.bu	5[r28],r2
00000d38 e111           2802 	cmp	r1,r2
00000d3a d905*          2803 	bnl	.L863
                        2804 --896: 					{
                        2805 --897: 						TxCtrlInfoPtr->PendingTxCounter = IPduCfgPtr->TxRepetitions;
                        2806 --line897
                        2807 ..lin.D.3A.5CCANFDGwMcuFirmRH850F1x.5Ccode.5CCANFDGwMcuFirmRH850F1x.5CCANFDGwMcuFirmRH850F1x.5Cprj.5CGHS.20MULTI.5CCAN.20Gateway.5Coutput.5Cobj.5Cpe1.5CCom.95::
                        2808 .LDWlin95:
00000d3c 9a0f1500       2809 	ld.bu	20[r26],r1
00000d40 5c0f0500       2810 	st.b	r1,5[r28]
                        2811 .L863:
                        2812 --898: 					}
                        2813 --899: 					TxCtrlInfoPtr->SpontaneousTxEnable = TRUE;
00000d44 010a           2814 	mov	1,r1
00000d46 5c0f0600       2815 	st.b	r1,6[r28]
                        2816 .L844:
00000d4a 41da           2817 	add	1,r27
00000d4c 9b00           2818 	zxb	r27
                        2819 .L846:
00000d4e 9d0f1900       2820 	ld.bu	24[r29],r1

                                                                      Page 48
                                                              C:\Users\TIEZHU~1\AppData\Local\Temp\gh_00005js1.si
00000d52 e1d9           2821 	cmp	r1,r27
00000d54 b185*          2822 	bl	.L845
                        2823 --900: 				}
                        2824 --901: 				break;
                        2825 --902: 			default:
                        2826 --903: 				/* ignore */
                        2827 --904: 				break;
                        2828 --905: 		}
                        2829 --906: 	}
                        2830 --908: 	return E_OK;
                        2831 --line908
                        2832 ..lin.D.3A.5CCANFDGwMcuFirmRH850F1x.5Ccode.5CCANFDGwMcuFirmRH850F1x.5CCANFDGwMcuFirmRH850F1x.5Cprj.5CGHS.20MULTI.5CCAN.20Gateway.5Coutput.5Cobj.5Cpe1.5CCom.96::
                        2833 .LDWlin96:
00000d56 0052           2834 	mov	0,r10
                        2835 --	    .ef
                        2836 .LDW23:
00000d58 23ff1d00       2837 	ld.w	28[sp],lp
00000d5c 23ef0500       2838 	ld.w	4[sp],r29
00000d60 23e70900       2839 	ld.w	8[sp],r28
00000d64 23df0d00       2840 	ld.w	12[sp],r27
00000d68 23d71100       2841 	ld.w	16[sp],r26
00000d6c 23cf1500       2842 	ld.w	20[sp],r25
00000d70 23c71900       2843 	ld.w	24[sp],r24
00000d74 031e2000       2844 	addi	32,sp,sp
00000d78 7f00           2845 	jmp	[lp]
                        2846 	.type	_Com_SendSignal,@function
                        2847 	.size	_Com_SendSignal,.-_Com_SendSignal
                        2848 	.align	2
                        2849 .LDW33:
                        2850 --_SigCfgPtr	r29	local
                        2851 --_SigObjPtr	r24	local
                        2852 --_PduObjPtr	r9	local
                        2853 --_TargetIPduId	r28	local
                        2854 --_IPduCfgPtr	r26	local
                        2855 --_TxCtrlInfoPtr	r28	local
                        2856 --_Idx	r27	local
                        2857 --_StartBit	r2	local
                        2858 --_Endianess	r7	local
                        2859 
                        2860 --_SignalId	r25	param
                        2861 --_SignalDataPtr	r28	param
                        2862 
                        2863 	.data
                        2864 	.text
                        2865 
                        2866 --909: } /* End of Com_SendSignal() */
                        2867 
                        2868 --911: /***********************************************************************************************************************
                        2869 --912:  * Function Name: Com_ReceiveSignal
                        2870 --913:  * Description  : The service Com_SendSignal updates the signal object identified by SignalId with the signal referenced
                        2871 --914:  *                by the SignalDataPtr parameter.
                        2872 --915:  * Arguments    : SignalId -
                        2873 --916:  *                  signal ID
                        2874 --917:  *                SignalDataPtr -
                        2875 --918:  *                  pointer to signal data
                        2876 --919:  * Return Value : E_OK - service has been accepted.
                        2877 --920:  *                COM_SERVICE_NOT_AVAILABLE - service failed.
                        2878 --921:  ***********************************************************************************************************************/
                        2879 --922: uint8 Com_ReceiveSignal(Com_SignalIdType SignalId, void* SignalDataPtr)
                        2880 	.align	2
                        2881 	.align	2

                                                                      Page 49
                                                              C:\Users\TIEZHU~1\AppData\Local\Temp\gh_00005js1.si
                        2882 	.global	_Com_ReceiveSignal
                        2883 _Com_ReceiveSignal:
00000d7a 541a           2884 	add	-12,sp
00000d7c 63ff0900       2885 	st.w	lp,8[sp]
00000d80 63e70500       2886 	st.w	r28,4[sp]
00000d84 63ef0100       2887 	st.w	r29,0[sp]
00000d88 c6eeffff       2888 	andi	65535,r6,r29
00000d8c 07e0           2889 	mov	r7,r28
                        2890 --	    .bf
                        2891 .LDW43:
                        2892 --923: {
                        2893 --924: 	/* check validity of parameters */
                        2894 --925: 	if (NULL_PTR == SignalDataPtr)
00000d8e e0e1           2895 	cmp	zero,r28
00000d90 8a0d*          2896 	bne	.L1007
                        2897 --926: 	{
                        2898 --927: 		User_ReportError((uint16_t) COM_MODULE_ID, (uint8_t) 0U, (uint8_t) COMServiceId_ReceiveSignal,
                        2899 --line927
                        2900 ..lin.D.3A.5CCANFDGwMcuFirmRH850F1x.5Ccode.5CCANFDGwMcuFirmRH850F1x.5CCANFDGwMcuFirmRH850F1x.5Cprj.5CGHS.20MULTI.5CCAN.20Gateway.5Coutput.5Cobj.5Cpe1.5CCom.97::
                        2901 .LDWlin97:
00000d92 20363200       2902 	movea	50,zero,r6
00000d96 003a           2903 	mov	0,r7
00000d98 0b42           2904 	mov	11,r8
00000d9a 034a           2905 	mov	3,r9
                        2906 	jarl	_User_ReportError,lp
                        2906 <EXPANSION BEGIN>
                        2906 jarl22 _User_ReportError , lp 
00000d9c 80ff0000*      2906 <EXPANSION END>
                        2907 .L1007:
                        2908 --928: 		                 (uint8_t) COM_E_PARAM_POINTER);
                        2909 --929: 	}
                        2910 --931: 	/* ---- Copy signal object to upper layer. ---- */
                        2911 --932: 	com_set_signal(com_signal_cfg_tbl[SignalId].BitSize, SignalDataPtr, com_signal_obj_tbl[SignalId]);
                        2912 --line932
                        2913 ..lin.D.3A.5CCANFDGwMcuFirmRH850F1x.5Ccode.5CCANFDGwMcuFirmRH850F1x.5CCANFDGwMcuFirmRH850F1x.5Cprj.5CGHS.20MULTI.5CCAN.20Gateway.5Coutput.5Cobj.5Cpe1.5CCom.98::
                        2914 .LDWlin98:
00000da0 1d08           2915 	mov	r29,r1
00000da2 e40f4402       2916 	mul	36,r1,zero
00000da6 24170100*      2917 	ld.w	sdaoff(_com_signal_cfg_tbl)[gp],r2
00000daa 01f0           2918 	mov	r1,ep
00000dac c2f1           2919 	add	r2,ep
00000dae 6230           2920 	sld.bu	2[ep],r6
00000db0 1c38           2921 	mov	r28,r7
00000db2 1d08           2922 	mov	r29,r1
00000db4 c20a           2923 	shl	2,r1
00000db6 24170100*      2924 	ld.w	sdaoff(_com_signal_obj_tbl)[gp],r2
00000dba 01f0           2925 	mov	r1,ep
00000dbc c2f1           2926 	add	r2,ep
00000dbe 0045           2927 	sld.w	0[ep],r8
                        2928 	jarl	_com_set_signal,lp
                        2928 <EXPANSION BEGIN>
                        2928 jarl22 _com_set_signal , lp 
00000dc0 bfffd4fb*      2928 <EXPANSION END>
                        2929 --934: 	return (uint8_t) E_OK;
                        2930 --line934
                        2931 ..lin.D.3A.5CCANFDGwMcuFirmRH850F1x.5Ccode.5CCANFDGwMcuFirmRH850F1x.5CCANFDGwMcuFirmRH850F1x.5Cprj.5CGHS.20MULTI.5CCAN.20Gateway.5Coutput.5Cobj.5Cpe1.5CCom.99::
                        2932 .LDWlin99:
00000dc4 0052           2933 	mov	0,r10
                        2934 --	    .ef
                        2935 .LDW53:
00000dc6 23ff0900       2936 	ld.w	8[sp],lp

                                                                      Page 50
                                                              C:\Users\TIEZHU~1\AppData\Local\Temp\gh_00005js1.si
00000dca 23ef0100       2937 	ld.w	0[sp],r29
00000dce 23e70500       2938 	ld.w	4[sp],r28
00000dd2 4c1a           2939 	add	12,sp
00000dd4 7f00           2940 	jmp	[lp]
                        2941 	.type	_Com_ReceiveSignal,@function
                        2942 	.size	_Com_ReceiveSignal,.-_Com_ReceiveSignal
                        2943 	.align	2
                        2944 .LDW63:
                        2945 
                        2946 --_SignalId	r29	param
                        2947 --_SignalDataPtr	r28	param
                        2948 
                        2949 	.data
                        2950 	.text
                        2951 
                        2952 --935: } /* End of Com_ReceiveSignal() */
                        2953 
                        2954 --937: /***********************************************************************************************************************
                        2955 --938:  * Function Name: Com_RxIndication
                        2956 --939:  * Description  : This function is called by PDU Router after an I-PDU has been received.
                        2957 --940:  * Arguments    : ComRxPduId -
                        2958 --941:  *                  ID of Rx IPDU
                        2959 --942:  *                SduPtr -
                        2960 --943:  *                  Pointer to content of IPDU.
                        2961 --944:  * Return Value : void
                        2962 --945:  ***********************************************************************************************************************/
                        2963 --946: void Com_RxIndication(PduIdType RxPduId, const PduInfoType* PduInfoPtr)
                        2964 	.align	2
                        2965 	.align	2
                        2966 	.global	_Com_RxIndication
                        2967 _Com_RxIndication:
00000dd6 031ed8ff       2968 	addi	-40,sp,sp
00000dda 63ff2500       2969 	st.w	lp,36[sp]
00000dde 63b72100       2970 	st.w	r22,32[sp]
00000de2 63bf1d00       2971 	st.w	r23,28[sp]
00000de6 63c71900       2972 	st.w	r24,24[sp]
00000dea 63cf1500       2973 	st.w	r25,20[sp]
00000dee 63d71100       2974 	st.w	r26,16[sp]
00000df2 63df0d00       2975 	st.w	r27,12[sp]
00000df6 63e70900       2976 	st.w	r28,8[sp]
00000dfa 63ef0500       2977 	st.w	r29,4[sp]
00000dfe c6eeffff       2978 	andi	65535,r6,r29
00000e02 07d8           2979 	mov	r7,r27
                        2980 --	    .bf
                        2981 .LDW73:
                        2982 --947: {
                        2983 --948: 	const com_ipdu_cfg_t* IPduCfgPtr;
                        2984 --949: 	uint8_t* IPduObjPtr;
                        2985 --950: 	void* SigObjPtr;
                        2986 --951: 	pdu_length_t PduByteIndex;
                        2987 --952: 	uint8_t SigIndex;
                        2988 --953: 	uint16_t SigStartBit;
                        2989 --954: 	com_signal_endianess_t Endianess;
                        2990 --955: 	Com_SignalIdType SigId;
                        2991 --956: 	const com_signal_cfg_t* SigCfgPtr;
                        2992 --958: 	/* check validity of parameters */
                        2993 --959: 	if (NULL_PTR == PduInfoPtr)
00000e04 e0d9           2994 	cmp	zero,r27
00000e06 9a0d*          2995 	bne	.L1039
                        2996 --960: 	{
                        2997 --961: 		User_ReportError((uint16_t) COM_MODULE_ID, (uint8_t) 0U, (uint8_t) COMServiceId_RxIndication,

                                                                      Page 51
                                                              C:\Users\TIEZHU~1\AppData\Local\Temp\gh_00005js1.si
                        2998 --line961
                        2999 ..lin.D.3A.5CCANFDGwMcuFirmRH850F1x.5Ccode.5CCANFDGwMcuFirmRH850F1x.5CCANFDGwMcuFirmRH850F1x.5Cprj.5CGHS.20MULTI.5CCAN.20Gateway.5Coutput.5Cobj.5Cpe1.5CCom.100::
                        3000 .LDWlin100:
00000e08 20363200       3001 	movea	50,zero,r6
00000e0c 003a           3002 	mov	0,r7
00000e0e 20464200       3003 	movea	66,zero,r8
00000e12 034a           3004 	mov	3,r9
                        3005 	jarl	_User_ReportError,lp
                        3005 <EXPANSION BEGIN>
                        3005 jarl22 _User_ReportError , lp 
00000e14 80ff0000*      3005 <EXPANSION END>
                        3006 .L1039:
                        3007 --962: 		                 (uint8_t) COM_E_PARAM_POINTER);
                        3008 --963: 	}
                        3009 --965: 	/* ---- Get necessary information for internal process. ---- */
                        3010 --966: 	IPduCfgPtr = &com_ipdu_cfg_tbl[RxPduId];
                        3011 --line966
                        3012 ..lin.D.3A.5CCANFDGwMcuFirmRH850F1x.5Ccode.5CCANFDGwMcuFirmRH850F1x.5CCANFDGwMcuFirmRH850F1x.5Cprj.5CGHS.20MULTI.5CCAN.20Gateway.5Coutput.5Cobj.5Cpe1.5CCom.101::
                        3013 .LDWlin101:
00000e18 1d08           3014 	mov	r29,r1
00000e1a fc0f4002       3015 	mul	28,r1,zero
00000e1e 24170100*      3016 	ld.w	sdaoff(_com_ipdu_cfg_tbl)[gp],r2
00000e22 01e0           3017 	mov	r1,r28
00000e24 c2e1           3018 	add	r2,r28
                        3019 --967: 	IPduObjPtr = com_ipdu_obj_tbl[RxPduId];
00000e26 1d08           3020 	mov	r29,r1
00000e28 c20a           3021 	shl	2,r1
00000e2a 24170100*      3022 	ld.w	sdaoff(_com_ipdu_obj_tbl)[gp],r2
00000e2e 01f0           3023 	mov	r1,ep
00000e30 c2f1           3024 	add	r2,ep
00000e32 00c5           3025 	sld.w	0[ep],r24
                        3026 --969: 	/* ---- Copy I-PDU to local object stored in COM ---- */
                        3027 --970: 	for (PduByteIndex = (pdu_length_t) 0U; PduByteIndex < IPduCfgPtr->Size; PduByteIndex++)
00000e34 000a           3028 	mov	0,r1
00000e36 c50d*          3029 	br	.L1044
                        3030 .L1043:
                        3031 --971: 	{
                        3032 --972: 		IPduObjPtr[PduByteIndex] = PduInfoPtr->SduDataPtr[PduByteIndex];
                        3033 --line972
                        3034 ..lin.D.3A.5CCANFDGwMcuFirmRH850F1x.5Ccode.5CCANFDGwMcuFirmRH850F1x.5CCANFDGwMcuFirmRH850F1x.5Cprj.5CGHS.20MULTI.5CCAN.20Gateway.5Coutput.5Cobj.5Cpe1.5CCom.102::
                        3035 .LDWlin102:
00000e38 01f0           3036 	mov	r1,ep
00000e3a d8f1           3037 	add	r24,ep
00000e3c 3b9f0100       3038 	ld.w	0[r27],r19
00000e40 0110           3039 	mov	r1,r2
00000e42 d311           3040 	add	r19,r2
00000e44 82170100       3041 	ld.bu	0[r2],r2
00000e48 8013           3042 	sst.b	r2,0[ep]
00000e4a 410a           3043 	add	1,r1
00000e4c 8100           3044 	zxb	r1
                        3045 .L1044:
00000e4e 9c170300       3046 	ld.bu	2[r28],r2
00000e52 e209           3047 	cmp	r2,r1
00000e54 a1f5*          3048 	bl	.L1043
                        3049 --973: 	}
                        3050 --975: 	/* ---- Unpack I-PDU to signals ---- */
                        3051 --976: 	for (SigIndex = (uint8_t) 0U; SigIndex < IPduCfgPtr->NumberOfIPduSignal; SigIndex++)
                        3052 --line976
                        3053 ..lin.D.3A.5CCANFDGwMcuFirmRH850F1x.5Ccode.5CCANFDGwMcuFirmRH850F1x.5CCANFDGwMcuFirmRH850F1x.5Cprj.5CGHS.20MULTI.5CCAN.20Gateway.5Coutput.5Cobj.5Cpe1.5CCom.103::
                        3054 .LDWlin103:
00000e56 00ea           3055 	mov	0,r29

                                                                      Page 52
                                                              C:\Users\TIEZHU~1\AppData\Local\Temp\gh_00005js1.si
00000e58 b54d*          3056 	br	.L1048
                        3057 .L1047:
                        3058 --977: 	{
                        3059 --979: 		/* Get signal related parameters. */
                        3060 --980: 		SigStartBit = IPduCfgPtr->IPduSignalTable[SigIndex]->StartBit;
                        3061 --line980
                        3062 ..lin.D.3A.5CCANFDGwMcuFirmRH850F1x.5Ccode.5CCANFDGwMcuFirmRH850F1x.5CCANFDGwMcuFirmRH850F1x.5Cprj.5CGHS.20MULTI.5CCAN.20Gateway.5Coutput.5Cobj.5Cpe1.5CCom.104::
                        3063 .LDWlin104:
00000e5a 1d08           3064 	mov	r29,r1
00000e5c c20a           3065 	shl	2,r1
00000e5e 3c170d00       3066 	ld.w	12[r28],r2
00000e62 01f0           3067 	mov	r1,ep
00000e64 c2f1           3068 	add	r2,ep
00000e66 00f5           3069 	sld.w	0[ep],ep
00000e68 70b8           3070 	sld.hu	0[ep],r23
                        3071 --981: 		Endianess = IPduCfgPtr->IPduSignalTable[SigIndex]->Endianess;
00000e6a 1d08           3072 	mov	r29,r1
00000e6c c20a           3073 	shl	2,r1
00000e6e 3c170d00       3074 	ld.w	12[r28],r2
00000e72 01f0           3075 	mov	r1,ep
00000e74 c2f1           3076 	add	r2,ep
00000e76 00f5           3077 	sld.w	0[ep],ep
00000e78 04b5           3078 	sld.w	8[ep],r22
                        3079 --982: 		SigId = IPduCfgPtr->IPduSignalTable[SigIndex]->SignalId;
00000e7a 1d08           3080 	mov	r29,r1
00000e7c c20a           3081 	shl	2,r1
00000e7e 3c170d00       3082 	ld.w	12[r28],r2
00000e82 01f0           3083 	mov	r1,ep
00000e84 c2f1           3084 	add	r2,ep
00000e86 00f5           3085 	sld.w	0[ep],ep
00000e88 71d0           3086 	sld.hu	2[ep],r26
                        3087 --983: 		SigCfgPtr = &com_signal_cfg_tbl[SigId];
00000e8a 1a08           3088 	mov	r26,r1
00000e8c e40f4402       3089 	mul	36,r1,zero
00000e90 24170100*      3090 	ld.w	sdaoff(_com_signal_cfg_tbl)[gp],r2
00000e94 01d8           3091 	mov	r1,r27
00000e96 c2d9           3092 	add	r2,r27
                        3093 --984: 		SigObjPtr = com_signal_obj_tbl[SigId];
00000e98 1a08           3094 	mov	r26,r1
00000e9a c20a           3095 	shl	2,r1
00000e9c 24170100*      3096 	ld.w	sdaoff(_com_signal_obj_tbl)[gp],r2
00000ea0 01f0           3097 	mov	r1,ep
00000ea2 c2f1           3098 	add	r2,ep
00000ea4 00cd           3099 	sld.w	0[ep],r25
                        3100 --986: 		/* Store old signal value */
                        3101 --987: 		com_set_signal(SigCfgPtr->BitSize, com_old_sig_obj_tbl[SigId], SigObjPtr);
00000ea6 9b370300       3102 	ld.bu	2[r27],r6
00000eaa 1a08           3103 	mov	r26,r1
00000eac c20a           3104 	shl	2,r1
00000eae 24170100*      3105 	ld.w	sdaoff(_com_old_sig_obj_tbl)[gp],r2
00000eb2 01f0           3106 	mov	r1,ep
00000eb4 c2f1           3107 	add	r2,ep
00000eb6 003d           3108 	sld.w	0[ep],r7
00000eb8 1940           3109 	mov	r25,r8
                        3110 	jarl	_com_set_signal,lp
                        3110 <EXPANSION BEGIN>
                        3110 jarl22 _com_set_signal , lp 
00000eba bfffdafa*      3110 <EXPANSION END>
                        3111 --989: 		/* Unpack a signal with endianness conversion. */
                        3112 --990: 		com_unpack_one_signal(SigStartBit, Endianess, SigCfgPtr, IPduObjPtr, SigObjPtr);
                        3113 --line990

                                                                      Page 53
                                                              C:\Users\TIEZHU~1\AppData\Local\Temp\gh_00005js1.si
                        3114 ..lin.D.3A.5CCANFDGwMcuFirmRH850F1x.5Ccode.5CCANFDGwMcuFirmRH850F1x.5CCANFDGwMcuFirmRH850F1x.5Cprj.5CGHS.20MULTI.5CCAN.20Gateway.5Coutput.5Cobj.5Cpe1.5CCom.105::
                        3115 .LDWlin105:
00000ebe 1730           3116 	mov	r23,r6
00000ec0 1638           3117 	mov	r22,r7
00000ec2 1b40           3118 	mov	r27,r8
00000ec4 1848           3119 	mov	r24,r9
00000ec6 63cf0100       3120 	st.w	r25,0[sp]
                        3121 	jarl	_com_unpack_one_signal,lp
                        3121 <EXPANSION BEGIN>
                        3121 jarl22 _com_unpack_one_signal , lp 
00000eca bfff36f1*      3121 <EXPANSION END>
                        3122 --992: 		/* Signal notification call-out */
                        3123 --993: 		User_GetSignal(SigId, SigCfgPtr->BitSize, SigObjPtr);
                        3124 --line993
                        3125 ..lin.D.3A.5CCANFDGwMcuFirmRH850F1x.5Ccode.5CCANFDGwMcuFirmRH850F1x.5CCANFDGwMcuFirmRH850F1x.5Cprj.5CGHS.20MULTI.5CCAN.20Gateway.5Coutput.5Cobj.5Cpe1.5CCom.106::
                        3126 .LDWlin106:
00000ece 1a30           3127 	mov	r26,r6
00000ed0 9b3f0300       3128 	ld.bu	2[r27],r7
00000ed4 1940           3129 	mov	r25,r8
                        3130 	jarl	_User_GetSignal,lp
                        3130 <EXPANSION BEGIN>
                        3130 jarl22 _User_GetSignal , lp 
00000ed6 80ff0000*      3130 <EXPANSION END>
                        3131 --995: 		/* Mark signal gateway for further process. */
                        3132 --996: 		if (SigCfgPtr->GatewayRoutePtr != NULL_PTR)
                        3133 --line996
                        3134 ..lin.D.3A.5CCANFDGwMcuFirmRH850F1x.5Ccode.5CCANFDGwMcuFirmRH850F1x.5CCANFDGwMcuFirmRH850F1x.5Cprj.5CGHS.20MULTI.5CCAN.20Gateway.5Coutput.5Cobj.5Cpe1.5CCom.107::
                        3135 .LDWlin107:
00000eda 3b0f1500       3136 	ld.w	20[r27],r1
00000ede e009           3137 	cmp	zero,r1
00000ee0 d205*          3138 	be	.L1046
                        3139 --997: 		{
                        3140 --998: 			*(SigCfgPtr->NeedGatewayProcess) = TRUE;
                        3141 --line998
                        3142 ..lin.D.3A.5CCANFDGwMcuFirmRH850F1x.5Ccode.5CCANFDGwMcuFirmRH850F1x.5CCANFDGwMcuFirmRH850F1x.5Cprj.5CGHS.20MULTI.5CCAN.20Gateway.5Coutput.5Cobj.5Cpe1.5CCom.108::
                        3143 .LDWlin108:
00000ee2 3bf72100       3144 	ld.w	32[r27],ep
00000ee6 010a           3145 	mov	1,r1
00000ee8 800b           3146 	sst.b	r1,0[ep]
                        3147 .L1046:
00000eea 41ea           3148 	add	1,r29
00000eec 9d00           3149 	zxb	r29
                        3150 .L1048:
00000eee 9c0f0900       3151 	ld.bu	8[r28],r1
00000ef2 e1e9           3152 	cmp	r1,r29
00000ef4 b1b5*          3153 	bl	.L1047
                        3154 --999: 		}
                        3155 --1000: 	}
                        3156 --1001: } /* End of Com_RxIndication() */
                        3157 --	    .ef
                        3158 .LDW83:
                        3159 --line1001
                        3160 ..lin.D.3A.5CCANFDGwMcuFirmRH850F1x.5Ccode.5CCANFDGwMcuFirmRH850F1x.5CCANFDGwMcuFirmRH850F1x.5Cprj.5CGHS.20MULTI.5CCAN.20Gateway.5Coutput.5Cobj.5Cpe1.5CCom.109::
                        3161 .LDWlin109:
00000ef6 23ff2500       3162 	ld.w	36[sp],lp
00000efa 23ef0500       3163 	ld.w	4[sp],r29
00000efe 23e70900       3164 	ld.w	8[sp],r28
00000f02 23df0d00       3165 	ld.w	12[sp],r27
00000f06 23d71100       3166 	ld.w	16[sp],r26
00000f0a 23cf1500       3167 	ld.w	20[sp],r25
00000f0e 23c71900       3168 	ld.w	24[sp],r24

                                                                      Page 54
                                                              C:\Users\TIEZHU~1\AppData\Local\Temp\gh_00005js1.si
00000f12 23bf1d00       3169 	ld.w	28[sp],r23
00000f16 23b72100       3170 	ld.w	32[sp],r22
00000f1a 031e2800       3171 	addi	40,sp,sp
00000f1e 7f00           3172 	jmp	[lp]
                        3173 	.type	_Com_RxIndication,@function
                        3174 	.size	_Com_RxIndication,.-_Com_RxIndication
                        3175 	.align	2
                        3176 .LDW93:
                        3177 --_IPduCfgPtr	r28	local
                        3178 --_IPduObjPtr	r24	local
                        3179 --_SigObjPtr	r25	local
                        3180 --_PduByteIndex	r1	local
                        3181 --_SigIndex	r29	local
                        3182 --_SigStartBit	r23	local
                        3183 --_Endianess	r22	local
                        3184 --_SigId	r26	local
                        3185 --_SigCfgPtr	r27	local
                        3186 
                        3187 --_RxPduId	r29	param
                        3188 --_PduInfoPtr	r27	param
                        3189 
                        3190 	.data
                        3191 	.text
                        3192 
                        3193 
                        3194 --1003: /***********************************************************************************************************************
                        3195 --1004:  * Function Name: Com_TxConfirmation
                        3196 --1005:  * Description  : This function is called by the lower layer after the PDU has been transmitted on the network.
                        3197 --1006:  * Arguments    : ComTxPduId -
                        3198 --1007:  *                  ID of IPDU that has been transmitted.
                        3199 --1008:  * Return Value : void
                        3200 --1009:  ***********************************************************************************************************************/
                        3201 --1010: void Com_TxConfirmation(PduIdType TxPduId)
                        3202 	.align	2
                        3203 	.align	2
                        3204 	.global	_Com_TxConfirmation
                        3205 _Com_TxConfirmation:
00000f20 c600           3206 	zxh	r6
                        3207 --	    .bf
                        3208 .LDW04:
                        3209 --1011: {
                        3210 --1012: 	const com_ipdu_cfg_t* IPduCfgPtr;
                        3211 --1013: 	com_tx_ctrl_info_t* TxCtrlInfoPtr;
                        3212 --1015: 	IPduCfgPtr = &com_ipdu_cfg_tbl[TxPduId];
00000f22 0608           3213 	mov	r6,r1
00000f24 fc0f4002       3214 	mul	28,r1,zero
00000f28 24170100*      3215 	ld.w	sdaoff(_com_ipdu_cfg_tbl)[gp],r2
00000f2c 01f0           3216 	mov	r1,ep
00000f2e c2f1           3217 	add	r2,ep
                        3218 --1016: 	TxCtrlInfoPtr = IPduCfgPtr->TxCtrlInfo;
00000f30 0cf5           3219 	sld.w	24[ep],ep
                        3220 --1018: 	/* ---- Update number of pending transmissions. ----  */
                        3221 --1019: 	if (TxCtrlInfoPtr->PendingTxCounter > 0U)
00000f32 6508           3222 	sld.bu	5[ep],r1
00000f34 e009           3223 	cmp	zero,r1
00000f36 c305*          3224 	bnh	.L1122
                        3225 --1020: 	{
                        3226 --1021: 		TxCtrlInfoPtr->PendingTxCounter--;
                        3227 --line1021
                        3228 ..lin.D.3A.5CCANFDGwMcuFirmRH850F1x.5Ccode.5CCANFDGwMcuFirmRH850F1x.5CCANFDGwMcuFirmRH850F1x.5Cprj.5CGHS.20MULTI.5CCAN.20Gateway.5Coutput.5Cobj.5Cpe1.5CCom.110::
                        3229 .LDWlin110:

                                                                      Page 55
                                                              C:\Users\TIEZHU~1\AppData\Local\Temp\gh_00005js1.si
00000f38 6508           3230 	sld.bu	5[ep],r1
00000f3a 5f0a           3231 	add	-1,r1
00000f3c 850b           3232 	sst.b	r1,5[ep]
                        3233 .L1122:
                        3234 --1022: 	}
                        3235 --1024: 	/* ---- Enable next spontaneous transmission. ---- */
                        3236 --1025: 	if (TxCtrlInfoPtr->PendingTxCounter > 0U)
00000f3e 6508           3237 	sld.bu	5[ep],r1
00000f40 e009           3238 	cmp	zero,r1
00000f42 b305*          3239 	bnh	.L1120
                        3240 --1026: 	{
                        3241 --1027: 		TxCtrlInfoPtr->SpontaneousTxEnable = TRUE;
                        3242 --line1027
                        3243 ..lin.D.3A.5CCANFDGwMcuFirmRH850F1x.5Ccode.5CCANFDGwMcuFirmRH850F1x.5CCANFDGwMcuFirmRH850F1x.5Cprj.5CGHS.20MULTI.5CCAN.20Gateway.5Coutput.5Cobj.5Cpe1.5CCom.111::
                        3244 .LDWlin111:
00000f44 010a           3245 	mov	1,r1
00000f46 860b           3246 	sst.b	r1,6[ep]
                        3247 .L1120:
                        3248 --1028: 	}
                        3249 --1029: } /* End of Com_TxConfirmation() */
                        3250 --	    .ef
                        3251 .LDW14:
00000f48 7f00           3252 	jmp	[lp]
                        3253 	.type	_Com_TxConfirmation,@function
                        3254 	.size	_Com_TxConfirmation,.-_Com_TxConfirmation
                        3255 	.align	2
                        3256 .LDW24:
                        3257 --_IPduCfgPtr	ep	local
                        3258 --_TxCtrlInfoPtr	ep	local
                        3259 
                        3260 --_TxPduId	r6	param
                        3261 
                        3262 	.data
                        3263 	.text
                        3264 
                        3265 
                        3266 --1031: /***********************************************************************************************************************
                        3267 --1032:  * Function Name: Com_MainFunctionTx
                        3268 --1033:  * Description  : Check and transmit IPDU.
                        3269 --1034:  * Arguments    : none
                        3270 --1035:  * Return Value : void
                        3271 --1036:  ***********************************************************************************************************************/
                        3272 --1037: void Com_MainFunctionTx(void)
                        3273 	.align	2
                        3274 	.align	2
                        3275 	.global	_Com_MainFunctionTx
                        3276 _Com_MainFunctionTx:
00000f4a 541a           3277 	add	-12,sp
00000f4c 63ff0900       3278 	st.w	lp,8[sp]
00000f50 63e70500       3279 	st.w	r28,4[sp]
00000f54 63ef0100       3280 	st.w	r29,0[sp]
                        3281 --	    .bf
                        3282 .LDW34:
                        3283 --1038: {
                        3284 --1039: 	PduIdType IPduIdx;
                        3285 --1040: 	com_tx_ctrl_info_t* TxCtrlInfoPtr;
                        3286 --1042: 	for (IPduIdx = (PduIdType) 0U; IPduIdx < com_num_of_tx_ipdu; IPduIdx++)
00000f58 00ea           3287 	mov	0,r29
00000f5a e525*          3288 	br	.L1175
                        3289 .L1174:
                        3290 --1043: 	{

                                                                      Page 56
                                                              C:\Users\TIEZHU~1\AppData\Local\Temp\gh_00005js1.si
                        3291 --1045: 		TxCtrlInfoPtr = com_ipdu_cfg_tbl[IPduIdx].TxCtrlInfo;
                        3292 --line1045
                        3293 ..lin.D.3A.5CCANFDGwMcuFirmRH850F1x.5Ccode.5CCANFDGwMcuFirmRH850F1x.5CCANFDGwMcuFirmRH850F1x.5Cprj.5CGHS.20MULTI.5CCAN.20Gateway.5Coutput.5Cobj.5Cpe1.5CCom.112::
                        3294 .LDWlin112:
00000f5c 1d08           3295 	mov	r29,r1
00000f5e fc0f4002       3296 	mul	28,r1,zero
00000f62 24170100*      3297 	ld.w	sdaoff(_com_ipdu_cfg_tbl)[gp],r2
00000f66 01f0           3298 	mov	r1,ep
00000f68 c2f1           3299 	add	r2,ep
00000f6a 0ce5           3300 	sld.w	24[ep],r28
                        3301 --1047: 		/* ---- Cyclic transmission ---- */
                        3302 --1048: 		if (TxCtrlInfoPtr->CyclicTxEnable == TRUE)
00000f6c 9c0f0500       3303 	ld.bu	4[r28],r1
00000f70 610a           3304 	cmp	1,r1
00000f72 da0d*          3305 	bne	.L1176
                        3306 --1049: 		{
                        3307 --1050: 			if (com_transmit_ipdu(IPduIdx) == E_OK)
                        3308 --line1050
                        3309 ..lin.D.3A.5CCANFDGwMcuFirmRH850F1x.5Ccode.5CCANFDGwMcuFirmRH850F1x.5CCANFDGwMcuFirmRH850F1x.5Cprj.5CGHS.20MULTI.5CCAN.20Gateway.5Coutput.5Cobj.5Cpe1.5CCom.113::
                        3310 .LDWlin113:
00000f74 1d30           3311 	mov	r29,r6
                        3312 	jarl	_com_transmit_ipdu,lp
                        3312 <EXPANSION BEGIN>
                        3312 jarl22 _com_transmit_ipdu , lp 
00000f76 bfffb0fb*      3312 <EXPANSION END>
00000f7a e051           3313 	cmp	zero,r10
00000f7c 8a0d*          3314 	bne	.L1176
                        3315 --1051: 			{
                        3316 --1052: 				TxCtrlInfoPtr->CyclicTxEnable = FALSE;
                        3317 --line1052
                        3318 ..lin.D.3A.5CCANFDGwMcuFirmRH850F1x.5Ccode.5CCANFDGwMcuFirmRH850F1x.5CCANFDGwMcuFirmRH850F1x.5Cprj.5CGHS.20MULTI.5CCAN.20Gateway.5Coutput.5Cobj.5Cpe1.5CCom.114::
                        3319 .LDWlin114:
00000f7e 5c070400       3320 	st.b	zero,4[r28]
                        3321 --1053: 				TxCtrlInfoPtr->PendingTxCounter++;
00000f82 bc0f0500       3322 	ld.bu	5[r28],r1
00000f86 410a           3323 	add	1,r1
00000f88 5c0f0500       3324 	st.b	r1,5[r28]
                        3325 .L1176:
                        3326 --1054: 			}
                        3327 --1055: 		}
                        3328 --1057: 		/* ---- Spontaneous transmission ---- */
                        3329 --1058: 		if (TxCtrlInfoPtr->SpontaneousTxEnable == TRUE)
00000f8c 9c0f0700       3330 	ld.bu	6[r28],r1
00000f90 610a           3331 	cmp	1,r1
00000f92 8a0d*          3332 	bne	.L1173
                        3333 --1059: 		{
                        3334 --1060: 			if (com_transmit_ipdu(IPduIdx) == E_OK)
                        3335 --line1060
                        3336 ..lin.D.3A.5CCANFDGwMcuFirmRH850F1x.5Ccode.5CCANFDGwMcuFirmRH850F1x.5CCANFDGwMcuFirmRH850F1x.5Cprj.5CGHS.20MULTI.5CCAN.20Gateway.5Coutput.5Cobj.5Cpe1.5CCom.115::
                        3337 .LDWlin115:
00000f94 1d30           3338 	mov	r29,r6
                        3339 	jarl	_com_transmit_ipdu,lp
                        3339 <EXPANSION BEGIN>
                        3339 jarl22 _com_transmit_ipdu , lp 
00000f96 bfff90fb*      3339 <EXPANSION END>
00000f9a e051           3340 	cmp	zero,r10
00000f9c ba05*          3341 	bne	.L1173
                        3342 --1061: 			{
                        3343 --1062: 				TxCtrlInfoPtr->SpontaneousTxEnable = FALSE;
                        3344 --line1062
                        3345 ..lin.D.3A.5CCANFDGwMcuFirmRH850F1x.5Ccode.5CCANFDGwMcuFirmRH850F1x.5CCANFDGwMcuFirmRH850F1x.5Cprj.5CGHS.20MULTI.5CCAN.20Gateway.5Coutput.5Cobj.5Cpe1.5CCom.116::

                                                                      Page 57
                                                              C:\Users\TIEZHU~1\AppData\Local\Temp\gh_00005js1.si
                        3346 .LDWlin116:
00000f9e 5c070600       3347 	st.b	zero,6[r28]
                        3348 .L1173:
00000fa2 41ea           3349 	add	1,r29
00000fa4 dd00           3350 	zxh	r29
                        3351 .L1175:
00000fa6 e40f0100*      3352 	ld.hu	sdaoff(_com_num_of_tx_ipdu)[gp],r1
00000faa e1e9           3353 	cmp	r1,r29
00000fac 81dd*          3354 	bl	.L1174
                        3355 --1063: 			}
                        3356 --1064: 		}
                        3357 --1065: 	}
                        3358 --1066: } /* End of Com_MainFunctionTx() */
                        3359 --	    .ef
                        3360 .LDW44:
                        3361 --line1066
                        3362 ..lin.D.3A.5CCANFDGwMcuFirmRH850F1x.5Ccode.5CCANFDGwMcuFirmRH850F1x.5CCANFDGwMcuFirmRH850F1x.5Cprj.5CGHS.20MULTI.5CCAN.20Gateway.5Coutput.5Cobj.5Cpe1.5CCom.117::
                        3363 .LDWlin117:
00000fae 23ff0900       3364 	ld.w	8[sp],lp
00000fb2 23ef0100       3365 	ld.w	0[sp],r29
00000fb6 23e70500       3366 	ld.w	4[sp],r28
00000fba 4c1a           3367 	add	12,sp
00000fbc 7f00           3368 	jmp	[lp]
                        3369 	.type	_Com_MainFunctionTx,@function
                        3370 	.size	_Com_MainFunctionTx,.-_Com_MainFunctionTx
                        3371 	.align	2
                        3372 .LDW54:
                        3373 --_IPduIdx	r29	local
                        3374 --_TxCtrlInfoPtr	r28	local
                        3375 
                        3376 	.data
                        3377 	.text
                        3378 
                        3379 
                        3380 --1068: /***********************************************************************************************************************
                        3381 --1069:  * Function Name: Com_MainFunctionRouteSignals
                        3382 --1070:  * Description  : Calls the signal gateway part of COM to forward received signals to be routed.
                        3383 --1071:  * Arguments    : none
                        3384 --1072:  * Return Value : void
                        3385 --1073:  ***********************************************************************************************************************/
                        3386 --1074: void Com_MainFunctionRouteSignals(void)
                        3387 	.align	2
                        3388 	.align	2
                        3389 	.global	_Com_MainFunctionRouteSignals
                        3390 _Com_MainFunctionRouteSignals:
00000fbe 031ed8ff       3391 	addi	-40,sp,sp
00000fc2 63ff2500       3392 	st.w	lp,36[sp]
00000fc6 63b72100       3393 	st.w	r22,32[sp]
00000fca 63bf1d00       3394 	st.w	r23,28[sp]
00000fce 63c71900       3395 	st.w	r24,24[sp]
00000fd2 63cf1500       3396 	st.w	r25,20[sp]
00000fd6 63d71100       3397 	st.w	r26,16[sp]
00000fda 63df0d00       3398 	st.w	r27,12[sp]
00000fde 63e70900       3399 	st.w	r28,8[sp]
00000fe2 63ef0500       3400 	st.w	r29,4[sp]
                        3401 --	    .bf
                        3402 .LDW64:
                        3403 --1075: {
                        3404 --1076: 	Com_SignalIdType SigIdx;
                        3405 --1077: 	const com_signal_cfg_t* SigCfgPtr;
                        3406 --1078: 	const void* SigObjPtr;

                                                                      Page 58
                                                              C:\Users\TIEZHU~1\AppData\Local\Temp\gh_00005js1.si
                        3407 --1079: 	uint8_t* IPduObjPtr;
                        3408 --1080: 	uint8_t GwDestIdx;
                        3409 --1081: 	uint8_t NumOfDest;
                        3410 --1082: 	const com_ipdu_signal_mapping_t* const * GwDestTbl;
                        3411 --1083: 	uint16_t StartBit;
                        3412 --1084: 	com_signal_endianess_t Endianess;
                        3413 --1085: 	const com_ipdu_cfg_t* IPduCfgPtr;
                        3414 --1086: 	com_tx_ctrl_info_t* TxCtrlInfoPtr;
                        3415 --1088: 	/* ==== Pack gateway signal to its target I-PDUs.  ==== */
                        3416 --1089: 	for (SigIdx = (Com_SignalIdType) 0U; SigIdx < com_num_of_signal; SigIdx++)
00000fe6 00da           3417 	mov	0,r27
00000fe8 80074401*      3418 	br	.L1248
                        3419 .L1247:
                        3420 --1090: 	{
                        3421 --1092: 		/* ---- Check signals that need to be forwarded. ---- */
                        3422 --1093: 		SigCfgPtr = &com_signal_cfg_tbl[SigIdx];
                        3423 --line1093
                        3424 ..lin.D.3A.5CCANFDGwMcuFirmRH850F1x.5Ccode.5CCANFDGwMcuFirmRH850F1x.5CCANFDGwMcuFirmRH850F1x.5Cprj.5CGHS.20MULTI.5CCAN.20Gateway.5Coutput.5Cobj.5Cpe1.5CCom.118::
                        3425 .LDWlin118:
00000fec 1b08           3426 	mov	r27,r1
00000fee e40f4402       3427 	mul	36,r1,zero
00000ff2 24170100*      3428 	ld.w	sdaoff(_com_signal_cfg_tbl)[gp],r2
00000ff6 01e0           3429 	mov	r1,r28
00000ff8 c2e1           3430 	add	r2,r28
                        3431 --1094: 		if ((SigCfgPtr->NeedGatewayProcess != NULL_PTR) && (*(SigCfgPtr->NeedGatewayProcess) == TRUE ))
00000ffa 3c0f2100       3432 	ld.w	32[r28],r1
00000ffe e009           3433 	cmp	zero,r1
00001000 e2072901*      3434 	be	.L1246
00001004 3cf72100       3435 	ld.w	32[r28],ep
00001008 6008           3436 	sld.bu	0[ep],r1
0000100a 610a           3437 	cmp	1,r1
0000100c ea071d01*      3438 	bne	.L1246
                        3439 --1095: 		{
                        3440 --1097: 			*(SigCfgPtr->NeedGatewayProcess) = FALSE;
                        3441 --line1097
                        3442 ..lin.D.3A.5CCANFDGwMcuFirmRH850F1x.5Ccode.5CCANFDGwMcuFirmRH850F1x.5CCANFDGwMcuFirmRH850F1x.5Cprj.5CGHS.20MULTI.5CCAN.20Gateway.5Coutput.5Cobj.5Cpe1.5CCom.119::
                        3443 .LDWlin119:
00001010 3cf72100       3444 	ld.w	32[r28],ep
00001014 8003           3445 	sst.b	zero,0[ep]
                        3446 --1099: 			/* ---- Get information of gateway destination. ---- */
                        3447 --1100: 			SigObjPtr = com_signal_obj_tbl[SigIdx];
00001016 1b08           3448 	mov	r27,r1
00001018 c20a           3449 	shl	2,r1
0000101a 24170100*      3450 	ld.w	sdaoff(_com_signal_obj_tbl)[gp],r2
0000101e 01f0           3451 	mov	r1,ep
00001020 c2f1           3452 	add	r2,ep
00001022 00bd           3453 	sld.w	0[ep],r23
                        3454 --1101: 			NumOfDest = SigCfgPtr->GatewayRoutePtr->NumberOfDestination;
00001024 3cf71500       3455 	ld.w	20[r28],ep
00001028 62b0           3456 	sld.bu	2[ep],r22
                        3457 --1102: 			GwDestTbl = SigCfgPtr->GatewayRoutePtr->DestinationSignalTable;
0000102a 3cf71500       3458 	ld.w	20[r28],ep
0000102e 02c5           3459 	sld.w	4[ep],r24
                        3460 --1104: 			/* ---- Pack signal to target I-PDU objects. ---- */
                        3461 --1105: 			for (GwDestIdx = (uint8_t) 0U; GwDestIdx < NumOfDest; GwDestIdx++)
00001030 00d2           3462 	mov	0,r26
00001032 957d*          3463 	br	.L1255
                        3464 .L1254:
                        3465 --1106: 			{
                        3466 --1108: 				/* Get target information. */
                        3467 --1109: 				StartBit = GwDestTbl[GwDestIdx]->StartBit;

                                                                      Page 59
                                                              C:\Users\TIEZHU~1\AppData\Local\Temp\gh_00005js1.si
                        3468 --line1109
                        3469 ..lin.D.3A.5CCANFDGwMcuFirmRH850F1x.5Ccode.5CCANFDGwMcuFirmRH850F1x.5CCANFDGwMcuFirmRH850F1x.5Cprj.5CGHS.20MULTI.5CCAN.20Gateway.5Coutput.5Cobj.5Cpe1.5CCom.120::
                        3470 .LDWlin120:
00001034 1a08           3471 	mov	r26,r1
00001036 c20a           3472 	shl	2,r1
00001038 01f0           3473 	mov	r1,ep
0000103a d8f1           3474 	add	r24,ep
0000103c 00f5           3475 	sld.w	0[ep],ep
0000103e 7010           3476 	sld.hu	0[ep],r2
                        3477 --1110: 				Endianess = GwDestTbl[GwDestIdx]->Endianess;
00001040 1a08           3478 	mov	r26,r1
00001042 c20a           3479 	shl	2,r1
00001044 01f0           3480 	mov	r1,ep
00001046 d8f1           3481 	add	r24,ep
00001048 00f5           3482 	sld.w	0[ep],ep
0000104a 043d           3483 	sld.w	8[ep],r7
                        3484 --1111: 				;
                        3485 --1112: 				IPduObjPtr = com_ipdu_obj_tbl[GwDestTbl[GwDestIdx]->IPduId];
0000104c 1a08           3486 	mov	r26,r1
0000104e c20a           3487 	shl	2,r1
00001050 01f0           3488 	mov	r1,ep
00001052 d8f1           3489 	add	r24,ep
00001054 00f5           3490 	sld.w	0[ep],ep
00001056 7208           3491 	sld.hu	4[ep],r1
00001058 c20a           3492 	shl	2,r1
0000105a 249f0100*      3493 	ld.w	sdaoff(_com_ipdu_obj_tbl)[gp],r19
0000105e 01f0           3494 	mov	r1,ep
00001060 d3f1           3495 	add	r19,ep
00001062 004d           3496 	sld.w	0[ep],r9
                        3497 --1114: 				/* Pack to target I-PDU object */
                        3498 --1115: 				com_pack_one_signal(StartBit, Endianess, SigCfgPtr, IPduObjPtr, SigObjPtr);
00001064 0230           3499 	mov	r2,r6
00001066 1c40           3500 	mov	r28,r8
00001068 63bf0100       3501 	st.w	r23,0[sp]
                        3502 	jarl	_com_pack_one_signal,lp
                        3502 <EXPANSION BEGIN>
                        3502 jarl22 _com_pack_one_signal , lp 
0000106c bfff2ef3*      3502 <EXPANSION END>
                        3503 --1117: 				/* Update spontaneous Tx information of target PDU. */
                        3504 --1118: 				IPduCfgPtr = &com_ipdu_cfg_tbl[GwDestTbl[GwDestIdx]->IPduId];
                        3505 --line1118
                        3506 ..lin.D.3A.5CCANFDGwMcuFirmRH850F1x.5Ccode.5CCANFDGwMcuFirmRH850F1x.5CCANFDGwMcuFirmRH850F1x.5Cprj.5CGHS.20MULTI.5CCAN.20Gateway.5Coutput.5Cobj.5Cpe1.5CCom.121::
                        3507 .LDWlin121:
00001070 1a08           3508 	mov	r26,r1
00001072 c20a           3509 	shl	2,r1
00001074 01f0           3510 	mov	r1,ep
00001076 d8f1           3511 	add	r24,ep
00001078 00f5           3512 	sld.w	0[ep],ep
0000107a 7208           3513 	sld.hu	4[ep],r1
0000107c fc0f4002       3514 	mul	28,r1,zero
00001080 24170100*      3515 	ld.w	sdaoff(_com_ipdu_cfg_tbl)[gp],r2
00001084 01c8           3516 	mov	r1,r25
00001086 c2c9           3517 	add	r2,r25
                        3518 --1119: 				TxCtrlInfoPtr = IPduCfgPtr->TxCtrlInfo;
00001088 39ef1900       3519 	ld.w	24[r25],r29
                        3520 --1120: 				switch (SigCfgPtr->TransferProperty)
0000108c 3c0f0900       3521 	ld.w	8[r28],r1
00001090 610a           3522 	cmp	1,r1
00001092 f145*          3523 	bl	.L1253
00001094 f205*          3524 	be	.L1258
00001096 630a           3525 	cmp	3,r1

                                                                      Page 60
                                                              C:\Users\TIEZHU~1\AppData\Local\Temp\gh_00005js1.si
00001098 8115*          3526 	bl	.L1261
0000109a d21d*          3527 	be	.L1264
0000109c 640a           3528 	cmp	4,r1
0000109e d22d*          3529 	be	.L1269
000010a0 8545*          3530 	br	.L1253
                        3531 .L1258:
                        3532 --1121: 				{
                        3533 --1122: 					case COM_TX_PROP_ON_WRITE:
                        3534 --1123: 						if (TxCtrlInfoPtr->PendingTxCounter == 0U)
                        3535 --line1123
                        3536 ..lin.D.3A.5CCANFDGwMcuFirmRH850F1x.5Ccode.5CCANFDGwMcuFirmRH850F1x.5CCANFDGwMcuFirmRH850F1x.5Cprj.5CGHS.20MULTI.5CCAN.20Gateway.5Coutput.5Cobj.5Cpe1.5CCom.122::
                        3537 .LDWlin122:
000010a2 bd0f0500       3538 	ld.bu	5[r29],r1
000010a6 e009           3539 	cmp	zero,r1
000010a8 ca05*          3540 	bne	.L1259
                        3541 --1124: 						{
                        3542 --1125: 							TxCtrlInfoPtr->PendingTxCounter = 1U;
                        3543 --line1125
                        3544 ..lin.D.3A.5CCANFDGwMcuFirmRH850F1x.5Ccode.5CCANFDGwMcuFirmRH850F1x.5CCANFDGwMcuFirmRH850F1x.5Cprj.5CGHS.20MULTI.5CCAN.20Gateway.5Coutput.5Cobj.5Cpe1.5CCom.123::
                        3545 .LDWlin123:
000010aa 010a           3546 	mov	1,r1
000010ac 5d0f0500       3547 	st.b	r1,5[r29]
                        3548 .L1259:
                        3549 --1126: 						}
                        3550 --1127: 						TxCtrlInfoPtr->SpontaneousTxEnable = TRUE;
000010b0 010a           3551 	mov	1,r1
000010b2 5d0f0600       3552 	st.b	r1,6[r29]
000010b6 d535*          3553 	br	.L1253
                        3554 .L1261:
                        3555 --1128: 						break;
                        3556 --1129: 					case COM_TX_PROP_ON_WRITE_WITH_REPETITION:
                        3557 --1130: 						if (TxCtrlInfoPtr->PendingTxCounter < IPduCfgPtr->TxRepetitions)
                        3558 --line1130
                        3559 ..lin.D.3A.5CCANFDGwMcuFirmRH850F1x.5Ccode.5CCANFDGwMcuFirmRH850F1x.5CCANFDGwMcuFirmRH850F1x.5Cprj.5CGHS.20MULTI.5CCAN.20Gateway.5Coutput.5Cobj.5Cpe1.5CCom.124::
                        3560 .LDWlin124:
000010b8 990f1500       3561 	ld.bu	20[r25],r1
000010bc bd170500       3562 	ld.bu	5[r29],r2
000010c0 e111           3563 	cmp	r1,r2
000010c2 d905*          3564 	bnl	.L1262
                        3565 --1131: 						{
                        3566 --1132: 							TxCtrlInfoPtr->PendingTxCounter = IPduCfgPtr->TxRepetitions;
                        3567 --line1132
                        3568 ..lin.D.3A.5CCANFDGwMcuFirmRH850F1x.5Ccode.5CCANFDGwMcuFirmRH850F1x.5CCANFDGwMcuFirmRH850F1x.5Cprj.5CGHS.20MULTI.5CCAN.20Gateway.5Coutput.5Cobj.5Cpe1.5CCom.125::
                        3569 .LDWlin125:
000010c4 990f1500       3570 	ld.bu	20[r25],r1
000010c8 5d0f0500       3571 	st.b	r1,5[r29]
                        3572 .L1262:
                        3573 --1133: 						}
                        3574 --1134: 						TxCtrlInfoPtr->SpontaneousTxEnable = TRUE;
000010cc 010a           3575 	mov	1,r1
000010ce 5d0f0600       3576 	st.b	r1,6[r29]
000010d2 f525*          3577 	br	.L1253
                        3578 .L1264:
                        3579 --1135: 						break;
                        3580 --1136: 					case COM_TX_PROP_ON_CHANGE:
                        3581 --1137: 						if (com_is_signal_changed(SigCfgPtr->BitSize, SigIdx) == TRUE)
                        3582 --line1137
                        3583 ..lin.D.3A.5CCANFDGwMcuFirmRH850F1x.5Ccode.5CCANFDGwMcuFirmRH850F1x.5CCANFDGwMcuFirmRH850F1x.5Cprj.5CGHS.20MULTI.5CCAN.20Gateway.5Coutput.5Cobj.5Cpe1.5CCom.126::
                        3584 .LDWlin126:
000010d4 9c370300       3585 	ld.bu	2[r28],r6
000010d8 1b38           3586 	mov	r27,r7

                                                                      Page 61
                                                              C:\Users\TIEZHU~1\AppData\Local\Temp\gh_00005js1.si
                        3587 	jarl	_com_is_signal_changed,lp
                        3587 <EXPANSION BEGIN>
                        3587 jarl22 _com_is_signal_changed , lp 
000010da bfff26f8*      3587 <EXPANSION END>
000010de 6152           3588 	cmp	1,r10
000010e0 8a25*          3589 	bne	.L1253
                        3590 --1138: 						{
                        3591 --1139: 							if (TxCtrlInfoPtr->PendingTxCounter == 0U)
                        3592 --line1139
                        3593 ..lin.D.3A.5CCANFDGwMcuFirmRH850F1x.5Ccode.5CCANFDGwMcuFirmRH850F1x.5CCANFDGwMcuFirmRH850F1x.5Cprj.5CGHS.20MULTI.5CCAN.20Gateway.5Coutput.5Cobj.5Cpe1.5CCom.127::
                        3594 .LDWlin127:
000010e2 bd0f0500       3595 	ld.bu	5[r29],r1
000010e6 e009           3596 	cmp	zero,r1
000010e8 ca05*          3597 	bne	.L1267
                        3598 --1140: 							{
                        3599 --1141: 								TxCtrlInfoPtr->PendingTxCounter = 1U;
                        3600 --line1141
                        3601 ..lin.D.3A.5CCANFDGwMcuFirmRH850F1x.5Ccode.5CCANFDGwMcuFirmRH850F1x.5CCANFDGwMcuFirmRH850F1x.5Cprj.5CGHS.20MULTI.5CCAN.20Gateway.5Coutput.5Cobj.5Cpe1.5CCom.128::
                        3602 .LDWlin128:
000010ea 010a           3603 	mov	1,r1
000010ec 5d0f0500       3604 	st.b	r1,5[r29]
                        3605 .L1267:
                        3606 --1142: 							}
                        3607 --1143: 							TxCtrlInfoPtr->SpontaneousTxEnable = TRUE;
000010f0 010a           3608 	mov	1,r1
000010f2 5d0f0600       3609 	st.b	r1,6[r29]
000010f6 d515*          3610 	br	.L1253
                        3611 .L1269:
                        3612 --1144: 						}
                        3613 --1145: 						break;
                        3614 --1146: 					case COM_TX_PROP_ON_CHANGE_WITH_REPETITION:
                        3615 --1147: 						if (com_is_signal_changed(SigCfgPtr->BitSize, SigIdx) == TRUE)
                        3616 --line1147
                        3617 ..lin.D.3A.5CCANFDGwMcuFirmRH850F1x.5Ccode.5CCANFDGwMcuFirmRH850F1x.5CCANFDGwMcuFirmRH850F1x.5Cprj.5CGHS.20MULTI.5CCAN.20Gateway.5Coutput.5Cobj.5Cpe1.5CCom.129::
                        3618 .LDWlin129:
000010f8 9c370300       3619 	ld.bu	2[r28],r6
000010fc 1b38           3620 	mov	r27,r7
                        3621 	jarl	_com_is_signal_changed,lp
                        3621 <EXPANSION BEGIN>
                        3621 jarl22 _com_is_signal_changed , lp 
000010fe bfff02f8*      3621 <EXPANSION END>
00001102 6152           3622 	cmp	1,r10
00001104 ea0d*          3623 	bne	.L1253
                        3624 --1148: 						{
                        3625 --1149: 							if (TxCtrlInfoPtr->PendingTxCounter < IPduCfgPtr->TxRepetitions)
                        3626 --line1149
                        3627 ..lin.D.3A.5CCANFDGwMcuFirmRH850F1x.5Ccode.5CCANFDGwMcuFirmRH850F1x.5CCANFDGwMcuFirmRH850F1x.5Cprj.5CGHS.20MULTI.5CCAN.20Gateway.5Coutput.5Cobj.5Cpe1.5CCom.130::
                        3628 .LDWlin130:
00001106 990f1500       3629 	ld.bu	20[r25],r1
0000110a bd170500       3630 	ld.bu	5[r29],r2
0000110e e111           3631 	cmp	r1,r2
00001110 d905*          3632 	bnl	.L1272
                        3633 --1150: 							{
                        3634 --1151: 								TxCtrlInfoPtr->PendingTxCounter = IPduCfgPtr->TxRepetitions;
                        3635 --line1151
                        3636 ..lin.D.3A.5CCANFDGwMcuFirmRH850F1x.5Ccode.5CCANFDGwMcuFirmRH850F1x.5CCANFDGwMcuFirmRH850F1x.5Cprj.5CGHS.20MULTI.5CCAN.20Gateway.5Coutput.5Cobj.5Cpe1.5CCom.131::
                        3637 .LDWlin131:
00001112 990f1500       3638 	ld.bu	20[r25],r1
00001116 5d0f0500       3639 	st.b	r1,5[r29]
                        3640 .L1272:
                        3641 --1152: 							}

                                                                      Page 62
                                                              C:\Users\TIEZHU~1\AppData\Local\Temp\gh_00005js1.si
                        3642 --1153: 							TxCtrlInfoPtr->SpontaneousTxEnable = TRUE;
0000111a 010a           3643 	mov	1,r1
0000111c 5d0f0600       3644 	st.b	r1,6[r29]
                        3645 .L1253:
00001120 41d2           3646 	add	1,r26
00001122 9a00           3647 	zxb	r26
                        3648 .L1255:
00001124 f6d1           3649 	cmp	r22,r26
00001126 f185*          3650 	bl	.L1254
                        3651 .L1246:
                        3652 --line1089
                        3653 ..lin.D.3A.5CCANFDGwMcuFirmRH850F1x.5Ccode.5CCANFDGwMcuFirmRH850F1x.5CCANFDGwMcuFirmRH850F1x.5Cprj.5CGHS.20MULTI.5CCAN.20Gateway.5Coutput.5Cobj.5Cpe1.5CCom.132::
                        3654 .LDWlin132:
00001128 41da           3655 	add	1,r27
0000112a db00           3656 	zxh	r27
                        3657 .L1248:
0000112c e40f0100*      3658 	ld.hu	sdaoff(_com_num_of_signal)[gp],r1
00001130 e1d9           3659 	cmp	r1,r27
00001132 f107bbfe*      3660 	bl	.L1247
                        3661 --1154: 						}
                        3662 --1155: 						break;
                        3663 --1156: 					default:
                        3664 --1157: 						/* ignore */
                        3665 --1158: 						break;
                        3666 --1159: 				}
                        3667 --1160: 			}
                        3668 --1161: 		}
                        3669 --1162: 	}
                        3670 --1163: } /* End of Com_MainFunctionRouteSignals() */
                        3671 --	    .ef
                        3672 .LDW74:
                        3673 --line1163
                        3674 ..lin.D.3A.5CCANFDGwMcuFirmRH850F1x.5Ccode.5CCANFDGwMcuFirmRH850F1x.5CCANFDGwMcuFirmRH850F1x.5Cprj.5CGHS.20MULTI.5CCAN.20Gateway.5Coutput.5Cobj.5Cpe1.5CCom.133::
                        3675 .LDWlin133:
00001136 23ff2500       3676 	ld.w	36[sp],lp
0000113a 23ef0500       3677 	ld.w	4[sp],r29
0000113e 23e70900       3678 	ld.w	8[sp],r28
00001142 23df0d00       3679 	ld.w	12[sp],r27
00001146 23d71100       3680 	ld.w	16[sp],r26
0000114a 23cf1500       3681 	ld.w	20[sp],r25
0000114e 23c71900       3682 	ld.w	24[sp],r24
00001152 23bf1d00       3683 	ld.w	28[sp],r23
00001156 23b72100       3684 	ld.w	32[sp],r22
0000115a 031e2800       3685 	addi	40,sp,sp
0000115e 7f00           3686 	jmp	[lp]
                        3687 	.type	_Com_MainFunctionRouteSignals,@function
                        3688 	.size	_Com_MainFunctionRouteSignals,.-_Com_MainFunctionRouteSignals
                        3689 	.align	2
                        3690 .LDW84:
                        3691 --_SigIdx	r27	local
                        3692 --_SigCfgPtr	r28	local
                        3693 --_SigObjPtr	r23	local
                        3694 --_IPduObjPtr	r9	local
                        3695 --_GwDestIdx	r26	local
                        3696 --_NumOfDest	r22	local
                        3697 --_GwDestTbl	r24	local
                        3698 --_StartBit	r2	local
                        3699 --_Endianess	r7	local
                        3700 --_IPduCfgPtr	r25	local
                        3701 --_TxCtrlInfoPtr	r29	local
                        3702 

                                                                      Page 63
                                                              C:\Users\TIEZHU~1\AppData\Local\Temp\gh_00005js1.si
                        3703 	.data
                        3704 	.text
                        3705 
                        3706 
                        3707 --1165: /***********************************************************************************************************************
                        3708 --1166:  * Function Name: Com_JudgeGatewayPduTxMethod
                        3709 --1167:  * Description  : This function is called by PduR to decide which method is used to transmit target gateway PDU.
                        3710 --1168:  * Arguments    : SrcPdu -
                        3711 --1169:  *                  ID of IPDU that has been received.
                        3712 --1170:  * Return Value : void
                        3713 --1171:  ***********************************************************************************************************************/
                        3714 --1172: void Com_JudgeGatewayPduTxMethod(PduIdType SrcPdu)
                        3715 	.align	2
                        3716 	.align	2
                        3717 	.global	_Com_JudgeGatewayPduTxMethod
                        3718 _Com_JudgeGatewayPduTxMethod:
00001160 541a           3719 	add	-12,sp
00001162 63ff0900       3720 	st.w	lp,8[sp]
00001166 63e70500       3721 	st.w	r28,4[sp]
0000116a 63ef0100       3722 	st.w	r29,0[sp]
0000116e c600           3723 	zxh	r6
                        3724 --	    .bf
                        3725 .LDW94:
                        3726 --1173: {
                        3727 --1174: 	const com_ipdu_cfg_t* IPduCfgPtr;
                        3728 --1175: 	uint8_t SigIndex;
                        3729 --1176: 	Com_SignalIdType SigId;
                        3730 --1177: 	const com_signal_cfg_t* SigCfgPtr;
                        3731 --1179: 	/* ---- Reset PDU gateway control information  ---- */
                        3732 --1180: 	com_need_pdu_gw = FALSE;
00001170 44070000*      3733 	st.b	zero,sdaoff(_com_need_pdu_gw)[gp]
                        3734 --1181: 	com_need_pdu_gw_with_repetition = FALSE;
00001174 44070000*      3735 	st.b	zero,sdaoff(_com_need_pdu_gw_with_repetition)[gp]
                        3736 --1183: 	/* ---- Check send type of all signal in PDU ---- */
                        3737 --1184: 	IPduCfgPtr = &com_ipdu_cfg_tbl[SrcPdu];
00001178 0608           3738 	mov	r6,r1
0000117a fc0f4002       3739 	mul	28,r1,zero
0000117e 24170100*      3740 	ld.w	sdaoff(_com_ipdu_cfg_tbl)[gp],r2
00001182 01e0           3741 	mov	r1,r28
00001184 c2e1           3742 	add	r2,r28
                        3743 --1185: 	for (SigIndex = (uint8_t) 0U; SigIndex < IPduCfgPtr->NumberOfIPduSignal; SigIndex++)
00001186 00ea           3744 	mov	0,r29
00001188 9545*          3745 	br	.L1420
                        3746 .L1419:
                        3747 --1186: 	{
                        3748 --1188: 		/* Get signal related parameters. */
                        3749 --1189: 		SigId = IPduCfgPtr->IPduSignalTable[SigIndex]->SignalId;
                        3750 --line1189
                        3751 ..lin.D.3A.5CCANFDGwMcuFirmRH850F1x.5Ccode.5CCANFDGwMcuFirmRH850F1x.5CCANFDGwMcuFirmRH850F1x.5Cprj.5CGHS.20MULTI.5CCAN.20Gateway.5Coutput.5Cobj.5Cpe1.5CCom.134::
                        3752 .LDWlin134:
0000118a 1d08           3753 	mov	r29,r1
0000118c c20a           3754 	shl	2,r1
0000118e 3c170d00       3755 	ld.w	12[r28],r2
00001192 01f0           3756 	mov	r1,ep
00001194 c2f1           3757 	add	r2,ep
00001196 00f5           3758 	sld.w	0[ep],ep
00001198 7108           3759 	sld.hu	2[ep],r1
                        3760 --1190: 		SigCfgPtr = &com_signal_cfg_tbl[SigId];
0000119a 0110           3761 	mov	r1,r2
0000119c e4174402       3762 	mul	36,r2,zero
000011a0 249f0100*      3763 	ld.w	sdaoff(_com_signal_cfg_tbl)[gp],r19

                                                                      Page 64
                                                              C:\Users\TIEZHU~1\AppData\Local\Temp\gh_00005js1.si
000011a4 02f0           3764 	mov	r2,ep
000011a6 d3f1           3765 	add	r19,ep
                        3766 --1192: 		/* Decide signal's send type */
                        3767 --1193: 		switch (SigCfgPtr->TransferProperty)
000011a8 0415           3768 	sld.w	8[ep],r2
000011aa 6112           3769 	cmp	1,r2
000011ac 912d*          3770 	bl	.L1421
000011ae f205*          3771 	be	.L1423
000011b0 6312           3772 	cmp	3,r2
000011b2 910d*          3773 	bl	.L1424
000011b4 f20d*          3774 	be	.L1425
000011b6 6412           3775 	cmp	4,r2
000011b8 f215*          3776 	be	.L1428
000011ba a525*          3777 	br	.L1421
                        3778 .L1423:
                        3779 --1194: 		{
                        3780 --1195: 			case COM_TX_PROP_ON_WRITE:
                        3781 --1196: 				com_need_pdu_gw = TRUE;
                        3782 --line1196
                        3783 ..lin.D.3A.5CCANFDGwMcuFirmRH850F1x.5Ccode.5CCANFDGwMcuFirmRH850F1x.5CCANFDGwMcuFirmRH850F1x.5Cprj.5CGHS.20MULTI.5CCAN.20Gateway.5Coutput.5Cobj.5Cpe1.5CCom.135::
                        3784 .LDWlin135:
000011bc 010a           3785 	mov	1,r1
000011be 440f0000*      3786 	st.b	r1,sdaoff(_com_need_pdu_gw)[gp]
000011c2 e51d*          3787 	br	.L1421
                        3788 .L1424:
                        3789 --1197: 				break;
                        3790 --1198: 			case COM_TX_PROP_ON_WRITE_WITH_REPETITION:
                        3791 --1199: 				com_need_pdu_gw = TRUE;
                        3792 --line1199
                        3793 ..lin.D.3A.5CCANFDGwMcuFirmRH850F1x.5Ccode.5CCANFDGwMcuFirmRH850F1x.5CCANFDGwMcuFirmRH850F1x.5Cprj.5CGHS.20MULTI.5CCAN.20Gateway.5Coutput.5Cobj.5Cpe1.5CCom.136::
                        3794 .LDWlin136:
000011c4 010a           3795 	mov	1,r1
000011c6 440f0000*      3796 	st.b	r1,sdaoff(_com_need_pdu_gw)[gp]
                        3797 --1200: 				com_need_pdu_gw_with_repetition = TRUE;
000011ca 010a           3798 	mov	1,r1
000011cc 440f0000*      3799 	st.b	r1,sdaoff(_com_need_pdu_gw_with_repetition)[gp]
000011d0 f515*          3800 	br	.L1421
                        3801 .L1425:
                        3802 --1201: 				break;
                        3803 --1202: 			case COM_TX_PROP_ON_CHANGE:
                        3804 --1203: 				if (com_is_signal_changed(SigCfgPtr->BitSize, SigId) == TRUE)
                        3805 --line1203
                        3806 ..lin.D.3A.5CCANFDGwMcuFirmRH850F1x.5Ccode.5CCANFDGwMcuFirmRH850F1x.5CCANFDGwMcuFirmRH850F1x.5Cprj.5CGHS.20MULTI.5CCAN.20Gateway.5Coutput.5Cobj.5Cpe1.5CCom.137::
                        3807 .LDWlin137:
000011d2 6230           3808 	sld.bu	2[ep],r6
000011d4 0138           3809 	mov	r1,r7
                        3810 	jarl	_com_is_signal_changed,lp
                        3810 <EXPANSION BEGIN>
                        3810 jarl22 _com_is_signal_changed , lp 
000011d6 bfff2af7*      3810 <EXPANSION END>
000011da 6152           3811 	cmp	1,r10
000011dc 9a15*          3812 	bne	.L1421
                        3813 --1204: 				{
                        3814 --1205: 					com_need_pdu_gw = TRUE;
                        3815 --line1205
                        3816 ..lin.D.3A.5CCANFDGwMcuFirmRH850F1x.5Ccode.5CCANFDGwMcuFirmRH850F1x.5CCANFDGwMcuFirmRH850F1x.5Cprj.5CGHS.20MULTI.5CCAN.20Gateway.5Coutput.5Cobj.5Cpe1.5CCom.138::
                        3817 .LDWlin138:
000011de 010a           3818 	mov	1,r1
000011e0 440f0000*      3819 	st.b	r1,sdaoff(_com_need_pdu_gw)[gp]
000011e4 d50d*          3820 	br	.L1421
                        3821 .L1428:

                                                                      Page 65
                                                              C:\Users\TIEZHU~1\AppData\Local\Temp\gh_00005js1.si
                        3822 --1206: 				}
                        3823 --1207: 				break;
                        3824 --1208: 			case COM_TX_PROP_ON_CHANGE_WITH_REPETITION:
                        3825 --1209: 				if (com_is_signal_changed(SigCfgPtr->BitSize, SigId) == TRUE)
                        3826 --line1209
                        3827 ..lin.D.3A.5CCANFDGwMcuFirmRH850F1x.5Ccode.5CCANFDGwMcuFirmRH850F1x.5CCANFDGwMcuFirmRH850F1x.5Cprj.5CGHS.20MULTI.5CCAN.20Gateway.5Coutput.5Cobj.5Cpe1.5CCom.139::
                        3828 .LDWlin139:
000011e6 6230           3829 	sld.bu	2[ep],r6
000011e8 0138           3830 	mov	r1,r7
                        3831 	jarl	_com_is_signal_changed,lp
                        3831 <EXPANSION BEGIN>
                        3831 jarl22 _com_is_signal_changed , lp 
000011ea bfff16f7*      3831 <EXPANSION END>
000011ee 6152           3832 	cmp	1,r10
000011f0 fa05*          3833 	bne	.L1421
                        3834 --1210: 				{
                        3835 --1211: 					com_need_pdu_gw = TRUE;
                        3836 --line1211
                        3837 ..lin.D.3A.5CCANFDGwMcuFirmRH850F1x.5Ccode.5CCANFDGwMcuFirmRH850F1x.5CCANFDGwMcuFirmRH850F1x.5Cprj.5CGHS.20MULTI.5CCAN.20Gateway.5Coutput.5Cobj.5Cpe1.5CCom.140::
                        3838 .LDWlin140:
000011f2 010a           3839 	mov	1,r1
000011f4 440f0000*      3840 	st.b	r1,sdaoff(_com_need_pdu_gw)[gp]
                        3841 --1212: 					com_need_pdu_gw_with_repetition = TRUE;
000011f8 010a           3842 	mov	1,r1
000011fa 440f0000*      3843 	st.b	r1,sdaoff(_com_need_pdu_gw_with_repetition)[gp]
                        3844 .L1421:
                        3845 --1213: 				}
                        3846 --1214: 				break;
                        3847 --1215: 			default:
                        3848 --1216: 				/* ignore */
                        3849 --1217: 				break;
                        3850 --1218: 		}
                        3851 --1220: 		if (com_need_pdu_gw_with_repetition == TRUE)
000011fe 840f0100*      3852 	ld.bu	sdaoff(_com_need_pdu_gw_with_repetition)[gp],r1
00001202 610a           3853 	cmp	1,r1
00001204 f205*          3854 	be	.L1415
                        3855 --1221: 		{
                        3856 --1222: 			break;
                        3857 --line1185
                        3858 ..lin.D.3A.5CCANFDGwMcuFirmRH850F1x.5Ccode.5CCANFDGwMcuFirmRH850F1x.5CCANFDGwMcuFirmRH850F1x.5Cprj.5CGHS.20MULTI.5CCAN.20Gateway.5Coutput.5Cobj.5Cpe1.5CCom.141::
                        3859 .LDWlin141:
00001206 41ea           3860 	add	1,r29
00001208 9d00           3861 	zxb	r29
                        3862 .L1420:
0000120a 9c0f0900       3863 	ld.bu	8[r28],r1
0000120e e1e9           3864 	cmp	r1,r29
00001210 d1bd*          3865 	bl	.L1419
                        3866 .L1415:
                        3867 --1223: 		}
                        3868 --1224: 	}
                        3869 --1225: } /* End of Com_JudgeGatewayPduTxMethod() */
                        3870 --	    .ef
                        3871 .LDW05:
                        3872 --line1225
                        3873 ..lin.D.3A.5CCANFDGwMcuFirmRH850F1x.5Ccode.5CCANFDGwMcuFirmRH850F1x.5CCANFDGwMcuFirmRH850F1x.5Cprj.5CGHS.20MULTI.5CCAN.20Gateway.5Coutput.5Cobj.5Cpe1.5CCom.142::
                        3874 .LDWlin142:
00001212 23ff0900       3875 	ld.w	8[sp],lp
00001216 23ef0100       3876 	ld.w	0[sp],r29
0000121a 23e70500       3877 	ld.w	4[sp],r28
0000121e 4c1a           3878 	add	12,sp
00001220 7f00           3879 	jmp	[lp]

                                                                      Page 66
                                                              C:\Users\TIEZHU~1\AppData\Local\Temp\gh_00005js1.si
                        3880 	.type	_Com_JudgeGatewayPduTxMethod,@function
                        3881 	.size	_Com_JudgeGatewayPduTxMethod,.-_Com_JudgeGatewayPduTxMethod
                        3882 	.align	2
                        3883 .LDW15:
                        3884 --_IPduCfgPtr	r28	local
                        3885 --_SigIndex	r29	local
                        3886 --_SigId	r1	local
                        3887 --_SigCfgPtr	ep	local
                        3888 
                        3889 --_SrcPdu	r6	param
                        3890 
                        3891 	.data
                        3892 	.text
                        3893 
                        3894 
                        3895 --1227: /***********************************************************************************************************************
                        3896 --1228:  * Function Name: Com_TriggerGatewayPduTransmit
                        3897 --1229:  * Description  : This function is called by PduR to transmit.
                        3898 --1230:  * Arguments    : DestPdu -
                        3899 --1231:  *                  ID of target IPDU to be transmitted.
                        3900 --1232:  *                CanSduPtr -
                        3901 --1233:  *                  Pointer to PDU content.
                        3902 --1234:  * Return Value : void
                        3903 --1235:  ***********************************************************************************************************************/
                        3904 --1236: void Com_TriggerGatewayPduTransmit(PduIdType DestPdu, const uint8_t* CanSduPtr)
                        3905 	.align	2
                        3906 	.align	2
                        3907 	.global	_Com_TriggerGatewayPduTransmit
                        3908 _Com_TriggerGatewayPduTransmit:
00001222 c600           3909 	zxh	r6
                        3910 --	    .bf
                        3911 .LDW25:
                        3912 --1237: {
                        3913 --1238: 	const com_ipdu_cfg_t* IPduCfgPtr;
                        3914 --1239: 	uint8_t* IPduObjPtr;
                        3915 --1240: 	pdu_length_t PduByteIndex;
                        3916 --1241: 	com_tx_ctrl_info_t* TxCtrlInfoPtr;
                        3917 --1243: 	/* ---- Get necessary information for internal process. ---- */
                        3918 --1244: 	IPduCfgPtr = &com_ipdu_cfg_tbl[DestPdu];
00001224 0608           3919 	mov	r6,r1
00001226 fc0f4002       3920 	mul	28,r1,zero
0000122a 249f0100*      3921 	ld.w	sdaoff(_com_ipdu_cfg_tbl)[gp],r19
0000122e 0110           3922 	mov	r1,r2
00001230 d311           3923 	add	r19,r2
                        3924 --1245: 	IPduObjPtr = com_ipdu_obj_tbl[DestPdu];
00001232 0608           3925 	mov	r6,r1
00001234 c20a           3926 	shl	2,r1
00001236 249f0100*      3927 	ld.w	sdaoff(_com_ipdu_obj_tbl)[gp],r19
0000123a 01f0           3928 	mov	r1,ep
0000123c d3f1           3929 	add	r19,ep
0000123e 008d           3930 	sld.w	0[ep],r17
                        3931 --1246: 	TxCtrlInfoPtr = IPduCfgPtr->TxCtrlInfo;
00001240 22f71900       3932 	ld.w	24[r2],ep
                        3933 --1248: 	/* ---- Copy I-PDU to local object stored in COM ---- */
                        3934 --1249: 	for (PduByteIndex = (pdu_length_t) 0U; PduByteIndex < IPduCfgPtr->Size; PduByteIndex++)
00001244 000a           3935 	mov	0,r1
00001246 b50d*          3936 	br	.L1520
                        3937 .L1519:
                        3938 --1250: 	{
                        3939 --1251: 		IPduObjPtr[PduByteIndex] = CanSduPtr[PduByteIndex];
                        3940 --line1251

                                                                      Page 67
                                                              C:\Users\TIEZHU~1\AppData\Local\Temp\gh_00005js1.si
                        3941 ..lin.D.3A.5CCANFDGwMcuFirmRH850F1x.5Ccode.5CCANFDGwMcuFirmRH850F1x.5CCANFDGwMcuFirmRH850F1x.5Cprj.5CGHS.20MULTI.5CCAN.20Gateway.5Coutput.5Cobj.5Cpe1.5CCom.143::
                        3942 .LDWlin143:
00001248 0198           3943 	mov	r1,r19
0000124a d199           3944 	add	r17,r19
0000124c 0190           3945 	mov	r1,r18
0000124e c791           3946 	add	r7,r18
00001250 92970100       3947 	ld.bu	0[r18],r18
00001254 53970000       3948 	st.b	r18,0[r19]
00001258 410a           3949 	add	1,r1
0000125a 8100           3950 	zxb	r1
                        3951 .L1520:
0000125c 829f0300       3952 	ld.bu	2[r2],r19
00001260 f309           3953 	cmp	r19,r1
00001262 b1f5*          3954 	bl	.L1519
                        3955 --1252: 	}
                        3956 --1254: 	/* ---- Mark transmission of gateway PDU. ---- */
                        3957 --1255: 	if (com_need_pdu_gw == TRUE)
                        3958 --line1255
                        3959 ..lin.D.3A.5CCANFDGwMcuFirmRH850F1x.5Ccode.5CCANFDGwMcuFirmRH850F1x.5CCANFDGwMcuFirmRH850F1x.5Cprj.5CGHS.20MULTI.5CCAN.20Gateway.5Coutput.5Cobj.5Cpe1.5CCom.144::
                        3960 .LDWlin144:
00001264 840f0100*      3961 	ld.bu	sdaoff(_com_need_pdu_gw)[gp],r1
00001268 610a           3962 	cmp	1,r1
0000126a 8a0d*          3963 	bne	.L1521
                        3964 --1256: 	{
                        3965 --1257: 		if (TxCtrlInfoPtr->PendingTxCounter == 0U)
                        3966 --line1257
                        3967 ..lin.D.3A.5CCANFDGwMcuFirmRH850F1x.5Ccode.5CCANFDGwMcuFirmRH850F1x.5CCANFDGwMcuFirmRH850F1x.5Cprj.5CGHS.20MULTI.5CCAN.20Gateway.5Coutput.5Cobj.5Cpe1.5CCom.145::
                        3968 .LDWlin145:
0000126c 6508           3969 	sld.bu	5[ep],r1
0000126e e009           3970 	cmp	zero,r1
00001270 ba05*          3971 	bne	.L1523
                        3972 --1258: 		{
                        3973 --1259: 			TxCtrlInfoPtr->PendingTxCounter = 1U;
                        3974 --line1259
                        3975 ..lin.D.3A.5CCANFDGwMcuFirmRH850F1x.5Ccode.5CCANFDGwMcuFirmRH850F1x.5CCANFDGwMcuFirmRH850F1x.5Cprj.5CGHS.20MULTI.5CCAN.20Gateway.5Coutput.5Cobj.5Cpe1.5CCom.146::
                        3976 .LDWlin146:
00001272 010a           3977 	mov	1,r1
00001274 850b           3978 	sst.b	r1,5[ep]
                        3979 .L1523:
                        3980 --1260: 		}
                        3981 --1261: 		TxCtrlInfoPtr->SpontaneousTxEnable = TRUE;
00001276 010a           3982 	mov	1,r1
00001278 860b           3983 	sst.b	r1,6[ep]
                        3984 .L1521:
                        3985 --1262: 	}
                        3986 --1263: 	if (com_need_pdu_gw_with_repetition == TRUE)
0000127a 840f0100*      3987 	ld.bu	sdaoff(_com_need_pdu_gw_with_repetition)[gp],r1
0000127e 610a           3988 	cmp	1,r1
00001280 ba0d*          3989 	bne	.L1515
                        3990 --1264: 	{
                        3991 --1265: 		if (TxCtrlInfoPtr->PendingTxCounter < IPduCfgPtr->TxRepetitions)
                        3992 --line1265
                        3993 ..lin.D.3A.5CCANFDGwMcuFirmRH850F1x.5Ccode.5CCANFDGwMcuFirmRH850F1x.5CCANFDGwMcuFirmRH850F1x.5Cprj.5CGHS.20MULTI.5CCAN.20Gateway.5Coutput.5Cobj.5Cpe1.5CCom.147::
                        3994 .LDWlin147:
00001282 820f1500       3995 	ld.bu	20[r2],r1
00001286 6598           3996 	sld.bu	5[ep],r19
00001288 e199           3997 	cmp	r1,r19
0000128a c905*          3998 	bnl	.L1527
                        3999 --1266: 		{
                        4000 --1267: 			TxCtrlInfoPtr->PendingTxCounter = IPduCfgPtr->TxRepetitions;
                        4001 --line1267

                                                                      Page 68
                                                              C:\Users\TIEZHU~1\AppData\Local\Temp\gh_00005js1.si
                        4002 ..lin.D.3A.5CCANFDGwMcuFirmRH850F1x.5Ccode.5CCANFDGwMcuFirmRH850F1x.5CCANFDGwMcuFirmRH850F1x.5Cprj.5CGHS.20MULTI.5CCAN.20Gateway.5Coutput.5Cobj.5Cpe1.5CCom.148::
                        4003 .LDWlin148:
0000128c 820f1500       4004 	ld.bu	20[r2],r1
00001290 850b           4005 	sst.b	r1,5[ep]
                        4006 .L1527:
                        4007 --1268: 		}
                        4008 --1269: 		TxCtrlInfoPtr->SpontaneousTxEnable = TRUE;
00001292 010a           4009 	mov	1,r1
00001294 860b           4010 	sst.b	r1,6[ep]
                        4011 .L1515:
                        4012 --1270: 	}
                        4013 --1271: } /* End of Com_TriggerGatewayPduTransmit() */
                        4014 --	    .ef
                        4015 .LDW35:
00001296 7f00           4016 	jmp	[lp]
                        4017 	.type	_Com_TriggerGatewayPduTransmit,@function
                        4018 	.size	_Com_TriggerGatewayPduTransmit,.-_Com_TriggerGatewayPduTransmit
                        4019 	.align	2
                        4020 .LDW45:
                        4021 --_IPduCfgPtr	r2	local
                        4022 --_IPduObjPtr	r17	local
                        4023 --_PduByteIndex	r1	local
                        4024 --_TxCtrlInfoPtr	ep	local
                        4025 
                        4026 --_DestPdu	r6	param
                        4027 --_CanSduPtr	r7	param
                        4028 
                        4029 	.data
                        4030 	.text
                        4031 
                        4032 
                        4033 --1273: /***********************************************************************************************************************
                        4034 --1274:  * Function Name: Com_OsTimerCallBack
                        4035 --1275:  * Description  : Call-back function called by OS Timer at 1ms interval.
                        4036 --1276:  * Arguments    : none
                        4037 --1277:  * Return Value : void
                        4038 --1278:  ***********************************************************************************************************************/
                        4039 --1279: void Com_OsTimerCallBack(void)
                        4040 	.align	2
                        4041 	.align	2
                        4042 	.global	_Com_OsTimerCallBack
                        4043 _Com_OsTimerCallBack:
                        4044 --	    .bf
                        4045 .LDW55:
                        4046 --1280: {
                        4047 --1281: 	PduIdType PduIdx;
                        4048 --1282: 	com_tx_ctrl_info_t* TxCtrlInfoPtr;
                        4049 --1283: 	const com_ipdu_cfg_t* IPduCfgPtr;
                        4050 --1285: 	for (PduIdx = (PduIdType) 0U; PduIdx < com_num_of_tx_ipdu; PduIdx++)
00001298 000a           4051 	mov	0,r1
0000129a 9525*          4052 	br	.L1610
                        4053 .L1609:
                        4054 --1286: 	{
                        4055 --1288: 		IPduCfgPtr = &com_ipdu_cfg_tbl[PduIdx];
                        4056 --line1288
                        4057 ..lin.D.3A.5CCANFDGwMcuFirmRH850F1x.5Ccode.5CCANFDGwMcuFirmRH850F1x.5CCANFDGwMcuFirmRH850F1x.5Cprj.5CGHS.20MULTI.5CCAN.20Gateway.5Coutput.5Cobj.5Cpe1.5CCom.149::
                        4058 .LDWlin149:
0000129c 0110           4059 	mov	r1,r2
0000129e fc174002       4060 	mul	28,r2,zero
000012a2 249f0100*      4061 	ld.w	sdaoff(_com_ipdu_cfg_tbl)[gp],r19
000012a6 d311           4062 	add	r19,r2

                                                                      Page 69
                                                              C:\Users\TIEZHU~1\AppData\Local\Temp\gh_00005js1.si
                        4063 --1290: 		if (IPduCfgPtr->TxMode == COM_TX_MODE_CYCLIC)
000012a8 229f1100       4064 	ld.w	16[r2],r19
000012ac e099           4065 	cmp	zero,r19
000012ae da15*          4066 	bne	.L1608
                        4067 --1291: 		{
                        4068 --1293: 			if (IPduCfgPtr->TxCtrlInfo != NULL_PTR)
                        4069 --line1293
                        4070 ..lin.D.3A.5CCANFDGwMcuFirmRH850F1x.5Ccode.5CCANFDGwMcuFirmRH850F1x.5CCANFDGwMcuFirmRH850F1x.5Cprj.5CGHS.20MULTI.5CCAN.20Gateway.5Coutput.5Cobj.5Cpe1.5CCom.150::
                        4071 .LDWlin150:
000012b0 229f1900       4072 	ld.w	24[r2],r19
000012b4 e099           4073 	cmp	zero,r19
000012b6 9215*          4074 	be	.L1608
                        4075 --1294: 			{
                        4076 --1295: 				/* Update IPDU cyclic counter */
                        4077 --1296: 				TxCtrlInfoPtr = IPduCfgPtr->TxCtrlInfo;
                        4078 --line1296
                        4079 ..lin.D.3A.5CCANFDGwMcuFirmRH850F1x.5Ccode.5CCANFDGwMcuFirmRH850F1x.5CCANFDGwMcuFirmRH850F1x.5Cprj.5CGHS.20MULTI.5CCAN.20Gateway.5Coutput.5Cobj.5Cpe1.5CCom.151::
                        4080 .LDWlin151:
000012b8 22f71900       4081 	ld.w	24[r2],ep
                        4082 --1297: 				if (TxCtrlInfoPtr->TimerCounter > 0U)
000012bc 009d           4083 	sld.w	0[ep],r19
000012be e099           4084 	cmp	zero,r19
000012c0 c305*          4085 	bnh	.L1615
                        4086 --1298: 				{
                        4087 --1299: 					TxCtrlInfoPtr->TimerCounter--;
                        4088 --line1299
                        4089 ..lin.D.3A.5CCANFDGwMcuFirmRH850F1x.5Ccode.5CCANFDGwMcuFirmRH850F1x.5CCANFDGwMcuFirmRH850F1x.5Cprj.5CGHS.20MULTI.5CCAN.20Gateway.5Coutput.5Cobj.5Cpe1.5CCom.152::
                        4090 .LDWlin152:
000012c2 009d           4091 	sld.w	0[ep],r19
000012c4 5f9a           4092 	add	-1,r19
000012c6 019d           4093 	sst.w	r19,0[ep]
                        4094 .L1615:
                        4095 --1300: 				}
                        4096 --1301: 				/* Check if cyclic transmission is timeout.  */
                        4097 --1302: 				if (TxCtrlInfoPtr->TimerCounter == 0U)
000012c8 009d           4098 	sld.w	0[ep],r19
000012ca e099           4099 	cmp	zero,r19
000012cc ea05*          4100 	bne	.L1608
                        4101 --1303: 				{
                        4102 --1304: 					TxCtrlInfoPtr->CyclicTxEnable = TRUE;
                        4103 --line1304
                        4104 ..lin.D.3A.5CCANFDGwMcuFirmRH850F1x.5Ccode.5CCANFDGwMcuFirmRH850F1x.5CCANFDGwMcuFirmRH850F1x.5Cprj.5CGHS.20MULTI.5CCAN.20Gateway.5Coutput.5Cobj.5Cpe1.5CCom.153::
                        4105 .LDWlin153:
000012ce 019a           4106 	mov	1,r19
000012d0 849b           4107 	sst.b	r19,4[ep]
                        4108 --1305: 					TxCtrlInfoPtr->TimerCounter = IPduCfgPtr->TxPeriod;
000012d2 e2171700       4109 	ld.hu	22[r2],r2
000012d6 0115           4110 	sst.w	r2,0[ep]
                        4111 .L1608:
000012d8 410a           4112 	add	1,r1
000012da c100           4113 	zxh	r1
                        4114 .L1610:
000012dc e4170100*      4115 	ld.hu	sdaoff(_com_num_of_tx_ipdu)[gp],r2
000012e0 e209           4116 	cmp	r2,r1
000012e2 d1dd*          4117 	bl	.L1609
                        4118 --1306: 				}
                        4119 --1307: 			}
                        4120 --1308: 		}
                        4121 --1309: 	}
                        4122 --1310: } /* End of Com_OsTimerCallBack() */
                        4123 --	    .ef

                                                                      Page 70
                                                              C:\Users\TIEZHU~1\AppData\Local\Temp\gh_00005js1.si
                        4124 .LDW65:
                        4125 --line1310
                        4126 ..lin.D.3A.5CCANFDGwMcuFirmRH850F1x.5Ccode.5CCANFDGwMcuFirmRH850F1x.5CCANFDGwMcuFirmRH850F1x.5Cprj.5CGHS.20MULTI.5CCAN.20Gateway.5Coutput.5Cobj.5Cpe1.5CCom.154::
                        4127 .LDWlin154:
000012e4 7f00           4128 	jmp	[lp]
                        4129 	.type	_Com_OsTimerCallBack,@function
                        4130 	.size	_Com_OsTimerCallBack,.-_Com_OsTimerCallBack
                        4131 	.align	2
                        4132 .LDW75:
                        4133 --_PduIdx	r1	local
                        4134 --_TxCtrlInfoPtr	ep	local
                        4135 --_IPduCfgPtr	r2	local
                        4136 
                        4137 	.data
                        4138 	.text
                        4139 
                        4140 	.align	2
                        4141 --_com_num_of_tx_ipdu	sdaoff(_com_num_of_tx_ipdu)	static
                        4142 --_com_ipdu_obj_tbl	sdaoff(_com_ipdu_obj_tbl)	static
                        4143 --_com_ipdu_cfg_tbl	sdaoff(_com_ipdu_cfg_tbl)	static
                        4144 --_com_num_of_signal	sdaoff(_com_num_of_signal)	static
                        4145 --_com_signal_obj_tbl	sdaoff(_com_signal_obj_tbl)	static
                        4146 --_com_old_sig_obj_tbl	sdaoff(_com_old_sig_obj_tbl)	static
                        4147 --_com_signal_cfg_tbl	sdaoff(_com_signal_cfg_tbl)	static
                        4148 --_com_need_pdu_gw	sdaoff(_com_need_pdu_gw)	static
                        4149 --_com_need_pdu_gw_with_repetition	sdaoff(_com_need_pdu_gw_with_repetition)	static
                        4150 
                        4151 	.data
                        4152 	.comm	_g_com_ram_pool,1024,1
                        4153 	.type	_g_com_ram_pool,@object
                        4154 	.size	_g_com_ram_pool,1024
                        4155 	.ghsnote version,15
                        4156 	.ghsnote tools,3
                        4157 	.ghsnote options,144
                        4158 	.text
                        4159 	.align	2
                        4160 ..eof.D.3A.5CCANFDGwMcuFirmRH850F1x.5Ccode.5CCANFDGwMcuFirmRH850F1x.5CCANFDGwMcuFirmRH850F1x.5Cprj.5CGHS.20MULTI.5CCAN.20Gateway.5Coutput.5Cobj.5Cpe1.5CCom...44.3A.5CCANFDGwMcuFirmRH850F1x.5Ccode.5CCANFDGwMcuFirmRH850F1x.5CCANFDGwMcuFirmRH850F1x.5Cprj.5CGHS.20MULTI.5CCAN.20Gateway..5641940B..0::
                        4161 .rh850_flags REGMODE32,DATA_ALIGN8,GP_FIX,EP_NONFIX,TP_FIX,REG2_NONRESERVE,G3M
