                                                                      Page 1
                                                              C:\Users\TIEZHU~1\AppData\Local\Temp\gh_000076o1.si
Command Line: C:\GHS\V800.V2014.1.7\comp_201417\ease850.exe -w -elf -b0 -Ipe1_project\inc -I..\..\..\src -Isrc -Idev -Iinc -Idevice -IC:\GHS\V800.V2014.1.7\comp_201417\lib\rh850 -cg_underscore -cpu=rh850g3m -no_v850_simd -rh850_fpsimd=none -nomacro -patch_dbo=D:\CANFDGwMcuFirmRH850F1x\code\CANFDGwMcuFirmRH850F1x\CANFDGwMcuFirmRH850F1x\prj\GHS MULTI\CAN Gateway\output\obj\pe1\rscanfd_drv.dbo -source=rscanfd_drv.c -o .\output\obj\pe1\gh_000076o1.o -list=.\output\obj\pe1\rscanfd_drv.lst C:\Users\TIEZHU~1\AppData\Local\Temp\gh_000076o1.si 
Original File: C:\Users\TIEZHU~1\AppData\Local\Temp\gh_000076o1.si
Source File: rscanfd_drv.c
Directory: D:\CANFDGwMcuFirmRH850F1x\code\CANFDGwMcuFirmRH850F1x\CANFDGwMcuFirmRH850F1x\prj\GHS MULTI\CAN Gateway
Host OS: Windows 7
EASE: Copyright (C) 1983-2014 Green Hills Software.  All Rights Reversed.
Release: Compiler v2014.1.7
Build Directory: [Directory] BTOWINBOX:c:/build_2014_1_bto/2014-09-04.2200-2014_1_bto/win32-comp-ecom
Revision: [VCInfo] http://toolsvc/branches/release-branch-2014-1-bto/src@515859 (built by build)
Revision Date: Fri Sep 05 14:05:06 2014

Release Date: Fri Sep 05 14:43:29 2014

                           1 --Driver Command: ccv850 -c -MD -Ipe1_project\inc -I..\..\..\src -Isrc -Idev
                           2 --		-Iinc -Idevice -DMY_CLOCK -UMSC_CLOCK -sda -DEMBEDDED
                           3 --		--enable_noinline --restrict --bool -bsp generic -g -list
                           4 --		-passsource -preprocess_assembly_files
                           5 --		--preprocess_linker_directive_full -DDEVICE=F1H -cpu=rh850g3m
                           6 --		-Onone -DCPU1=1 -DCPU2=0 -DCORE1 -object_dir=./output/obj/pe1
                           7 --		-filetype.c ..\..\..\src\rscanfd_drv.c -o
                           8 --		.\output\obj\pe1\rscanfd_drv.o
                           9 --Source File:   ..\..\..\src\rscanfd_drv.c
                          10 --Directory:     
                          11 --		D:\CANFDGwMcuFirmRH850F1x\code\CANFDGwMcuFirmRH850F1x\CANFDGwMcuFirmRH850F1x\prj\GHS
                          12 --		MULTI\CAN Gateway
                          13 --Compile Date:  Tue Nov 10 14:51:54 2015
                          14 --Host OS:       Win32
                          15 --Version:       C-RH850 2014.1.7 RELEASE VERSION
                          16 --Release:       Compiler v2014.1.7
                          17 --Revision Date: Fri Sep 05 14:10:46 2014
                          18 --Release Date:  Fri Sep 05 14:44:23 2014
                          19 -- ecom  -g -w
                          20 
                          21 --1: #ifndef _lint
                          22 --2: /***********************************************************************************************************************
                          23 --3:  * DISCLAIMER
                          24 --4:  * This software is supplied by Renesas Electronics Corporation and is only intended for use with Renesas products. No
                          25 --5:  * other uses are authorized. This software is owned by Renesas Electronics Corporation and is protected under all
                          26 --6:  * applicable laws, including copyright laws.
                          27 --7:  * THIS SOFTWARE IS PROVIDED "AS IS" AND RENESAS MAKES NO WARRANTIES REGARDING
                          28 --8:  * THIS SOFTWARE, WHETHER EXPRESS, IMPLIED OR STATUTORY, INCLUDING BUT NOT LIMITED TO WARRANTIES OF MERCHANTABILITY,
                          29 --9:  * FITNESS FOR A PARTICULAR PURPOSE AND NON-INFRINGEMENT. ALL SUCH WARRANTIES ARE EXPRESSLY DISCLAIMED. TO THE MAXIMUM
                          30 --10:  * EXTENT PERMITTED NOT PROHIBITED BY LAW, NEITHER RENESAS ELECTRONICS CORPORATION NOR ANY OF ITS AFFILIATED COMPANIES
                          31 --11:  * SHALL BE LIABLE FOR ANY DIRECT, INDIRECT, SPECIAL, INCIDENTAL OR CONSEQUENTIAL DAMAGES FOR ANY REASON RELATED TO THIS
                          32 --12:  * SOFTWARE, EVEN IF RENESAS OR ITS AFFILIATES HAVE BEEN ADVISED OF THE POSSIBILITY OF SUCH DAMAGES.
                          33 --13:  * Renesas reserves the right, without notice, to make changes to this software and to discontinue the availability of
                          34 --14:  * this software. By using this software, you agree to the additional terms and conditions found by accessing the
                          35 --15:  * following link:
                          36 --16:  * (MISRA C:2012 Violation - Rule 3.1
                          37 --17:  * Justification - C comment contains C++ comment can't avoid here.)
                          38 --18:  * http:/ /www.renesas.com/disclaimer
                          39 --19:  *
                          40 --20:  * Copyright (C) 2011 Renesas Electronics Corporation. All rights reserved.
                          41 --21:  ***********************************************************************************************************************/
                          42 --22: /***********************************************************************************************************************
                          43 --23:  * File Name	: rscanfd_drv.c
                          44 --24:  * Version      : 1.0
                          45 --25:  * Description  : This file is fRSCANFD module driver
                          46 --26:  **********************************************************************************************************************/
                          47 --27: /**********************************************************************************************************************
                          48 --28:  * History : DD.MM.YYYY Version  Description
                          49 --29:  *         : 25.09.2014 1.00     First Release
                          50 --30:  ***********************************************************************************************************************/

                                                                      Page 2
                                                              C:\Users\TIEZHU~1\AppData\Local\Temp\gh_000076o1.si
                          51 --32: /***********************************************************************************************************************
                          52 --33:  Includes   <System Includes> , "Project Includes"
                          53 --34:  ***********************************************************************************************************************/
                          54 --35: #include "rscanfd_sfr.h"
                          55 --36: #include "rscanfd_drv.h"
                          56 --37: #include "User_Callback.h"
                          57 --39: /***********************************************************************************************************************
                          58 --40:  Macro definitions
                          59 --41:  ***********************************************************************************************************************/
                          60 --43: /***********************************************************************************************************************
                          61 --44:  Typedef definitions
                          62 --45:  ***********************************************************************************************************************/
                          63 --47: /***********************************************************************************************************************
                          64 --48:  Exported global variables (to be accessed by other files)
                          65 --49:  ***********************************************************************************************************************/
                          66 --51: /***********************************************************************************************************************
                          67 --52:  Private global variables and functions
                          68 --53:  ***********************************************************************************************************************/
                          69 --54: static const RSCFD_U8 _RmbPayloadSizeMap[4] = { 8U, 12U, 16U, 20U };
                          70 --55: static const RSCFD_U8 _FifoPayloadSizeMap[8] = { 8U, 12U, 16U, 20U, 24U, 32U, 48U, 64U };
                          71 --56: static const RSCFD_U8 FDDlcBytesMap[16] = { 0U, 1U, 2U, 3U, 4U, 5U, 6U, 7U, 8U, 12U, 16U, 20U, 24U, 32U, 48U, 64U };
                          72 --57: /* static const RSCFD_U8 CAN20DlcBytesMap[16] = { 0U, 1U, 2U, 3U, 4U, 5U, 6U, 7U, 8U, 8U, 8U, 8U, 8U, 8U, 8U, 8U }; */
                          73 --59: /***********************************************************************************************************************
                          74 --60:  Exported global variables and functions (to be accessed by other files)
                          75 --61:  **********************************************************************************************************************/
                          76 --63: /***********************************************************************************************************************
                          77 --64:  * Function Name: RSCFD_WaitIPInitialized
                          78 --65:  * Description  : This function wait CAN module initialization complete
                          79 --66:  * Arguments    : void
                          80 --67:  * Return Value : none
                          81 --68:  ***********************************************************************************************************************/
                          82 --69: void RSCFD_WaitIPInitialized(void)
                          83 	.text
                          84 ..bof.D.3A.5CCANFDGwMcuFirmRH850F1x.5Ccode.5CCANFDGwMcuFirmRH850F1x.5CCANFDGwMcuFirmRH850F1x.5Cprj.5CGHS.20MULTI.5CCAN.20Gateway.5Coutput.5Cobj.5Cpe1.5Crscanfd_drv...44.3A.5CCANFDGwMcuFirmRH850F1x.5Ccode.5CCANFDGwMcuFirmRH850F1x.5CCANFDGwMcuFirmRH850F1x.5Cprj.5CGHS.20MULTI.5CCAN.20Gateway..5641940A..0::
                          85 	.align	2
                          86 	.global	_RSCFD_WaitIPInitialized
                          87 _RSCFD_WaitIPInitialized:
00000000 5c1a             88 	add	-4,sp
00000002 63ff0100         89 	st.w	lp,0[sp]
                          90 --	    .bf
                          91 .LDW01:
                          92 --70: {
                          93 --71: 	/* unit 0 */
                          94 --72: 	User_StartTimeCount();
                          95 	jarl	_User_StartTimeCount,lp
                          95 <EXPANSION BEGIN>
                          95 jarl22 _User_StartTimeCount , lp 
00000006 80ff0000*        95 <EXPANSION END>
                          96 --73: 	while (GSTS(RSCFD_UNIT_0).BIT.GRAMINIT)
                          97 --line73
                          98 ..lin.D.3A.5CCANFDGwMcuFirmRH850F1x.5Ccode.5CCANFDGwMcuFirmRH850F1x.5CCANFDGwMcuFirmRH850F1x.5Cprj.5CGHS.20MULTI.5CCAN.20Gateway.5Coutput.5Cobj.5Cpe1.5Crscanfd_drv.1::
                          99 .LDWlin1:
0000000a d505*           100 	br	.L4
                         101 .L6:
                         102 --74: 	{
                         103 --75: 		if (TRUE == User_IsTimeOut())
                         104 --line75
                         105 ..lin.D.3A.5CCANFDGwMcuFirmRH850F1x.5Ccode.5CCANFDGwMcuFirmRH850F1x.5CCANFDGwMcuFirmRH850F1x.5Cprj.5CGHS.20MULTI.5CCAN.20Gateway.5Coutput.5Cobj.5Cpe1.5Crscanfd_drv.2::
                         106 .LDWlin2:
                         107 	jarl	_User_IsTimeOut,lp
                         107 <EXPANSION BEGIN>

                                                                      Page 3
                                                              C:\Users\TIEZHU~1\AppData\Local\Temp\gh_000076o1.si
                         107 jarl22 _User_IsTimeOut , lp 
0000000c 80ff0000*       107 <EXPANSION END>
00000010 6152            108 	cmp	1,r10
00000012 820d*           109 	be	.L2
                         110 .L4:
                         111 --76: 		{
                         112 --77: 			/* exit if timeout */
                         113 --78: 			break;
                         114 --line73
                         115 ..lin.D.3A.5CCANFDGwMcuFirmRH850F1x.5Ccode.5CCANFDGwMcuFirmRH850F1x.5CCANFDGwMcuFirmRH850F1x.5Cprj.5CGHS.20MULTI.5CCAN.20Gateway.5Coutput.5Cobj.5Cpe1.5Crscanfd_drv.3::
                         116 .LDWlin3:
00000014 8007c90801a0    117 	ld.w	4291821708[zero],r1
0000001a c10e0800        118 	andi	8,r1,r1
0000001e e009            119 	cmp	zero,r1
00000020 eaf5*           120 	bne	.L6
                         121 .L2:
                         122 --79: 		}
                         123 --80: 	}
                         124 --81: #ifdef RSCFD_UNIT_1
                         125 --82: 	/* unit 1 */
                         126 --83: 	User_StartTimeCount();
                         127 --84: 	while (GSTS(RSCFD_UNIT_1).BIT.GRAMINIT)
                         128 --85: 	{
                         129 --86: 		if(TRUE == User_IsTimeOut())
                         130 --87: 		{
                         131 --88: 			/* exit if timeout */
                         132 --89: 			break;
                         133 --90: 		}
                         134 --91: 	}
                         135 --92: #endif
                         136 --93: } /* End of RSCFD_WaitIPInitialized() */
                         137 --	    .ef
                         138 .LDW11:
                         139 --line93
                         140 ..lin.D.3A.5CCANFDGwMcuFirmRH850F1x.5Ccode.5CCANFDGwMcuFirmRH850F1x.5CCANFDGwMcuFirmRH850F1x.5Cprj.5CGHS.20MULTI.5CCAN.20Gateway.5Coutput.5Cobj.5Cpe1.5Crscanfd_drv.4::
                         141 .LDWlin4:
00000022 23ff0100        142 	ld.w	0[sp],lp
00000026 441a            143 	add	4,sp
00000028 7f00            144 	jmp	[lp]
                         145 	.type	_RSCFD_WaitIPInitialized,@function
                         146 	.size	_RSCFD_WaitIPInitialized,.-_RSCFD_WaitIPInitialized
                         147 	.align	2
                         148 .LDW21:
                         149 
                         150 	.data
                         151 	.text
                         152 
                         153 
                         154 --95: /***********************************************************************************************************************
                         155 --96:  * Function Name: RSCFD_SetCanVersion
                         156 --97:  * Description  : This function set current CAN module version
                         157 --98:  * Arguments    : CanVersion -
                         158 --99:  *              :   specified current CAN version
                         159 --100:  * Return Value : none
                         160 --101:  ***********************************************************************************************************************/
                         161 --102: void RSCFD_SetCanVersion(RSCFD_CanVersion CanVersion)
                         162 	.align	2
                         163 	.align	2
                         164 	.global	_RSCFD_SetCanVersion
                         165 _RSCFD_SetCanVersion:
                         166 --	    .bf

                                                                      Page 4
                                                              C:\Users\TIEZHU~1\AppData\Local\Temp\gh_000076o1.si
                         167 .LDW31:
                         168 --103: {
                         169 --104: 	switch (CanVersion)
0000002a 0608            170 	mov	r6,r1
0000002c 610a            171 	cmp	1,r1
0000002e d105*           172 	bl	.L49
00000030 d215*           173 	be	.L50
00000032 620a            174 	cmp	2,r1
00000034 c21d*           175 	be	.L51
00000036 b52d*           176 	br	.L45
                         177 .L49:
                         178 --105: 	{
                         179 --106: 		case RSCFD_CAN_VER_CLASSICAL_B:
                         180 --107: 			/* unit 0 */
                         181 --108: 			CFDGRMCFG(RSCFD_UNIT_0).BIT.RCMC = 0;
                         182 --line108
                         183 ..lin.D.3A.5CCANFDGwMcuFirmRH850F1x.5Ccode.5CCANFDGwMcuFirmRH850F1x.5CCANFDGwMcuFirmRH850F1x.5Cprj.5CGHS.20MULTI.5CCAN.20Gateway.5Coutput.5Cobj.5Cpe1.5Crscanfd_drv.5::
                         184 .LDWlin5:
00000038 8007c90f09a0    185 	ld.w	4291822844[zero],r1
0000003e 1e12            186 	mov	-2,r2
00000040 4209            187 	and	r2,r1
00000042 8007cf0f09a0    188 	st.w	r1,4291822844[zero]
                         189 --109: 			GCFDT(RSCFD_UNIT_0).BIT.CFDTE = 0;
00000048 8007890f09a0    190 	ld.w	4291822840[zero],r1
0000004e 1e12            191 	mov	-2,r2
00000050 4209            192 	and	r2,r1
00000052 80078f0f09a0    193 	st.w	r1,4291822840[zero]
00000058 a51d*           194 	br	.L45
                         195 .L50:
                         196 --110: #ifdef RSCFD_UNIT_1
                         197 --111: 			/* unit 1 */
                         198 --112: 			CFDGRMCFG(RSCFD_UNIT_1).BIT.RCMC = 0;
                         199 --113: 			GCFDT(RSCFD_UNIT_1).BIT.CFDTE = 0;
                         200 --114: #endif
                         201 --115: 			break;
                         202 --117: 		case RSCFD_CAN_VER_FD_FRAME_FORMAT:
                         203 --118: 			/* unit 0 */
                         204 --119: 			CFDGRMCFG(RSCFD_UNIT_0).BIT.RCMC = 1;
                         205 --line119
                         206 ..lin.D.3A.5CCANFDGwMcuFirmRH850F1x.5Ccode.5CCANFDGwMcuFirmRH850F1x.5CCANFDGwMcuFirmRH850F1x.5Cprj.5CGHS.20MULTI.5CCAN.20Gateway.5Coutput.5Cobj.5Cpe1.5Crscanfd_drv.6::
                         207 .LDWlin6:
0000005a 8007c90f09a0    208 	ld.w	4291822844[zero],r1
00000060 810e0100        209 	ori	1,r1,r1
00000064 8007cf0f09a0    210 	st.w	r1,4291822844[zero]
0000006a 9515*           211 	br	.L45
                         212 .L51:
                         213 --120: #ifdef RSCFD_UNIT_1
                         214 --121: 			/* unit 1 */
                         215 --122: 			CFDGRMCFG(RSCFD_UNIT_1).BIT.RCMC = 1;
                         216 --123: #endif
                         217 --124: 			break;
                         218 --126: 		case RSCFD_CAN_VER_FD_TOLERANT:
                         219 --127: 			/* unit 0 */
                         220 --128: 			CFDGRMCFG(RSCFD_UNIT_0).BIT.RCMC = 0;
                         221 --line128
                         222 ..lin.D.3A.5CCANFDGwMcuFirmRH850F1x.5Ccode.5CCANFDGwMcuFirmRH850F1x.5CCANFDGwMcuFirmRH850F1x.5Cprj.5CGHS.20MULTI.5CCAN.20Gateway.5Coutput.5Cobj.5Cpe1.5Crscanfd_drv.7::
                         223 .LDWlin7:
0000006c 8007c90f09a0    224 	ld.w	4291822844[zero],r1
00000072 1e12            225 	mov	-2,r2
00000074 4209            226 	and	r2,r1
00000076 8007cf0f09a0    227 	st.w	r1,4291822844[zero]

                                                                      Page 5
                                                              C:\Users\TIEZHU~1\AppData\Local\Temp\gh_000076o1.si
                         228 --129: 			GCFDT(RSCFD_UNIT_0).BIT.CFDTE = 1;
0000007c 8007890f09a0    229 	ld.w	4291822840[zero],r1
00000082 810e0100        230 	ori	1,r1,r1
00000086 80078f0f09a0    231 	st.w	r1,4291822840[zero]
                         232 .L45:
                         233 --130: #ifdef RSCFD_UNIT_1
                         234 --131: 			/* unit 1 */
                         235 --132: 			CFDGRMCFG(RSCFD_UNIT_1).BIT.RCMC = 0;
                         236 --133: 			GCFDT(RSCFD_UNIT_1).BIT.CFDTE = 1;
                         237 --134: #endif
                         238 --135: 			break;
                         239 --137: 		default:
                         240 --138: 			break;
                         241 --139: 	}
                         242 --140: } /* End of RSCFD_SetCanVersion() */
                         243 --	    .ef
                         244 .LDW41:
0000008c 7f00            245 	jmp	[lp]
                         246 	.type	_RSCFD_SetCanVersion,@function
                         247 	.size	_RSCFD_SetCanVersion,.-_RSCFD_SetCanVersion
                         248 	.align	2
                         249 .LDW51:
                         250 
                         251 --_CanVersion	r6	param
                         252 
                         253 	.data
                         254 	.text
                         255 
                         256 
                         257 --142: /***********************************************************************************************************************
                         258 --143:  * Function Name: Can_SetRegisterMapping
                         259 --144:  * Description  : This function set current CAN module register mapping
                         260 --145:  * Arguments    : CanVersion -
                         261 --146:  *              :   specified current CAN version
                         262 --147:  * Return Value : none
                         263 --148:  ***********************************************************************************************************************/
                         264 --149: void Can_SetRegisterMapping(RSCFD_CanVersion CanVersion)
                         265 	.align	2
                         266 	.align	2
                         267 	.global	_Can_SetRegisterMapping
                         268 _Can_SetRegisterMapping:
0000008e 5c1a            269 	add	-4,sp
00000090 63ff0100        270 	st.w	lp,0[sp]
                         271 --	    .bf
                         272 .LDW61:
                         273 --150: {
                         274 --151: 	switch (CanVersion)
00000094 0608            275 	mov	r6,r1
00000096 610a            276 	cmp	1,r1
00000098 b105*           277 	bl	.L106
0000009a 921d*           278 	be	.L114
0000009c e52d*           279 	br	.L102
                         280 .L106:
                         281 --152: 	{
                         282 --153: 		case RSCFD_CAN_VER_CLASSICAL_B:
                         283 --154: 			/* unit 0 */
                         284 --155: 			CFDGRMCFG(RSCFD_UNIT_0).BIT.RCMC = 0U;/* CAN Register mapping  */
                         285 --line155
                         286 ..lin.D.3A.5CCANFDGwMcuFirmRH850F1x.5Ccode.5CCANFDGwMcuFirmRH850F1x.5CCANFDGwMcuFirmRH850F1x.5Cprj.5CGHS.20MULTI.5CCAN.20Gateway.5Coutput.5Cobj.5Cpe1.5Crscanfd_drv.8::
                         287 .LDWlin8:
0000009e 8007c90f09a0    288 	ld.w	4291822844[zero],r1

                                                                      Page 6
                                                              C:\Users\TIEZHU~1\AppData\Local\Temp\gh_000076o1.si
000000a4 1e12            289 	mov	-2,r2
000000a6 4209            290 	and	r2,r1
000000a8 8007cf0f09a0    291 	st.w	r1,4291822844[zero]
                         292 --156: 			User_StartTimeCount();
                         293 	jarl	_User_StartTimeCount,lp
                         293 <EXPANSION BEGIN>
                         293 jarl22 _User_StartTimeCount , lp 
000000ae 80ff0000*       293 <EXPANSION END>
                         294 --157: 			while (CFDGRMCFG(RSCFD_UNIT_0).BIT.RCMC != 0U)
                         295 --line157
                         296 ..lin.D.3A.5CCANFDGwMcuFirmRH850F1x.5Ccode.5CCANFDGwMcuFirmRH850F1x.5CCANFDGwMcuFirmRH850F1x.5Cprj.5CGHS.20MULTI.5CCAN.20Gateway.5Coutput.5Cobj.5Cpe1.5Crscanfd_drv.9::
                         297 .LDWlin9:
000000b2 d505*           298 	br	.L107
                         299 .L109:
                         300 --158: 			{
                         301 --159: 				if (TRUE == User_IsTimeOut())
                         302 --line159
                         303 ..lin.D.3A.5CCANFDGwMcuFirmRH850F1x.5Ccode.5CCANFDGwMcuFirmRH850F1x.5CCANFDGwMcuFirmRH850F1x.5Cprj.5CGHS.20MULTI.5CCAN.20Gateway.5Coutput.5Cobj.5Cpe1.5Crscanfd_drv.10::
                         304 .LDWlin10:
                         305 	jarl	_User_IsTimeOut,lp
                         305 <EXPANSION BEGIN>
                         305 jarl22 _User_IsTimeOut , lp 
000000b4 80ff0000*       305 <EXPANSION END>
000000b8 6152            306 	cmp	1,r10
000000ba f21d*           307 	be	.L102
                         308 .L107:
                         309 --160: 				{
                         310 --161: 					/* exit if timeout */
                         311 --162: 					break;
                         312 --line157
                         313 ..lin.D.3A.5CCANFDGwMcuFirmRH850F1x.5Ccode.5CCANFDGwMcuFirmRH850F1x.5CCANFDGwMcuFirmRH850F1x.5Cprj.5CGHS.20MULTI.5CCAN.20Gateway.5Coutput.5Cobj.5Cpe1.5Crscanfd_drv.11::
                         314 .LDWlin11:
000000bc 8007c90f09a0    315 	ld.w	4291822844[zero],r1
000000c2 c10e0100        316 	andi	1,r1,r1
000000c6 e009            317 	cmp	zero,r1
000000c8 eaf5*           318 	bne	.L109
000000ca f515*           319 	br	.L102
                         320 .L114:
                         321 --163: 				}
                         322 --164: 			}
                         323 --165: #ifdef RSCFD_UNIT_1
                         324 --166: 			/* unit 1 */
                         325 --167: 			CFDGRMCFG(RSCFD_UNIT_1).BIT.RCMC = 0U;/* CAN Register mapping  */
                         326 --168: 			User_StartTimeCount();
                         327 --169: 			while (CFDGRMCFG(RSCFD_UNIT_1).BIT.RCMC != 0U)
                         328 --170: 			{
                         329 --171: 				if(TRUE == User_IsTimeOut())
                         330 --172: 				{
                         331 --173: 					/* exit if timeout */
                         332 --174: 					break;
                         333 --175: 				}
                         334 --176: 			}
                         335 --177: #endif
                         336 --178: 			break;
                         337 --180: 		case RSCFD_CAN_VER_FD_FRAME_FORMAT:
                         338 --181: 			/* unit 0 */
                         339 --182: 			CFDGRMCFG(RSCFD_UNIT_0).BIT.RCMC = 1U;/* CAN-FD Register mapping */
                         340 --line182
                         341 ..lin.D.3A.5CCANFDGwMcuFirmRH850F1x.5Ccode.5CCANFDGwMcuFirmRH850F1x.5CCANFDGwMcuFirmRH850F1x.5Cprj.5CGHS.20MULTI.5CCAN.20Gateway.5Coutput.5Cobj.5Cpe1.5Crscanfd_drv.12::
                         342 .LDWlin12:
000000cc 8007c90f09a0    343 	ld.w	4291822844[zero],r1

                                                                      Page 7
                                                              C:\Users\TIEZHU~1\AppData\Local\Temp\gh_000076o1.si
000000d2 810e0100        344 	ori	1,r1,r1
000000d6 8007cf0f09a0    345 	st.w	r1,4291822844[zero]
                         346 --183: 			User_StartTimeCount();
                         347 	jarl	_User_StartTimeCount,lp
                         347 <EXPANSION BEGIN>
                         347 jarl22 _User_StartTimeCount , lp 
000000dc 80ff0000*       347 <EXPANSION END>
                         348 --184: 			while (CFDGRMCFG(RSCFD_UNIT_0).BIT.RCMC != 1U)
                         349 --line184
                         350 ..lin.D.3A.5CCANFDGwMcuFirmRH850F1x.5Ccode.5CCANFDGwMcuFirmRH850F1x.5CCANFDGwMcuFirmRH850F1x.5Cprj.5CGHS.20MULTI.5CCAN.20Gateway.5Coutput.5Cobj.5Cpe1.5Crscanfd_drv.13::
                         351 .LDWlin13:
000000e0 d505*           352 	br	.L115
                         353 .L117:
                         354 --185: 			{
                         355 --186: 				if (TRUE == User_IsTimeOut())
                         356 --line186
                         357 ..lin.D.3A.5CCANFDGwMcuFirmRH850F1x.5Ccode.5CCANFDGwMcuFirmRH850F1x.5CCANFDGwMcuFirmRH850F1x.5Cprj.5CGHS.20MULTI.5CCAN.20Gateway.5Coutput.5Cobj.5Cpe1.5Crscanfd_drv.14::
                         358 .LDWlin14:
                         359 	jarl	_User_IsTimeOut,lp
                         359 <EXPANSION BEGIN>
                         359 jarl22 _User_IsTimeOut , lp 
000000e2 80ff0000*       359 <EXPANSION END>
000000e6 6152            360 	cmp	1,r10
000000e8 820d*           361 	be	.L102
                         362 .L115:
                         363 --187: 				{
                         364 --188: 					/* exit if timeout */
                         365 --189: 					break;
                         366 --line184
                         367 ..lin.D.3A.5CCANFDGwMcuFirmRH850F1x.5Ccode.5CCANFDGwMcuFirmRH850F1x.5CCANFDGwMcuFirmRH850F1x.5Cprj.5CGHS.20MULTI.5CCAN.20Gateway.5Coutput.5Cobj.5Cpe1.5Crscanfd_drv.15::
                         368 .LDWlin15:
000000ea 8007c90f09a0    369 	ld.w	4291822844[zero],r1
000000f0 c10e0100        370 	andi	1,r1,r1
000000f4 e009            371 	cmp	zero,r1
000000f6 e2f5*           372 	be	.L117
                         373 .L102:
                         374 --190: 				}
                         375 --191: 			}
                         376 --192: #ifdef RSCFD_UNIT_1
                         377 --193: 			/* unit 1 */
                         378 --194: 			CFDGRMCFG(RSCFD_UNIT_1).BIT.RCMC = 1U;/* CAN-FD Register mapping */
                         379 --195: 			User_StartTimeCount();
                         380 --196: 			while (CFDGRMCFG(RSCFD_UNIT_1).BIT.RCMC != 1U)
                         381 --197: 			{
                         382 --198: 				if(TRUE == User_IsTimeOut())
                         383 --199: 				{
                         384 --200: 					/* exit if timeout */
                         385 --201: 					break;
                         386 --202: 				}
                         387 --203: 			}
                         388 --204: #endif
                         389 --205: 			break;
                         390 --207: 		default:
                         391 --208: 			break;
                         392 --209: 	}
                         393 --210: } /* End of Can_SetRegisterMapping() */
                         394 --	    .ef
                         395 .LDW71:
                         396 --line210
                         397 ..lin.D.3A.5CCANFDGwMcuFirmRH850F1x.5Ccode.5CCANFDGwMcuFirmRH850F1x.5CCANFDGwMcuFirmRH850F1x.5Cprj.5CGHS.20MULTI.5CCAN.20Gateway.5Coutput.5Cobj.5Cpe1.5Crscanfd_drv.16::
                         398 .LDWlin16:

                                                                      Page 8
                                                              C:\Users\TIEZHU~1\AppData\Local\Temp\gh_000076o1.si
000000f8 23ff0100        399 	ld.w	0[sp],lp
000000fc 441a            400 	add	4,sp
000000fe 7f00            401 	jmp	[lp]
                         402 	.type	_Can_SetRegisterMapping,@function
                         403 	.size	_Can_SetRegisterMapping,.-_Can_SetRegisterMapping
                         404 	.align	2
                         405 .LDW81:
                         406 
                         407 --_CanVersion	r6	param
                         408 
                         409 	.data
                         410 	.text
                         411 
                         412 
                         413 --212: /***********************************************************************************************************************
                         414 --213:  * Function Name: RSCFD_SwitchGlobalMode
                         415 --214:  * Description  : Switch global mode to specified mode
                         416 --215:  * Arguments    : TargetMode -
                         417 --216:  *              :   specified global mode
                         418 --217:  * Return Value : none
                         419 --218:  ***********************************************************************************************************************/
                         420 --219: void RSCFD_SwitchGlobalMode(RSCFD_WorkMode TargetMode)
                         421 	.align	2
                         422 	.align	2
                         423 	.global	_RSCFD_SwitchGlobalMode
                         424 _RSCFD_SwitchGlobalMode:
00000100 581a            425 	add	-8,sp
00000102 63ff0500        426 	st.w	lp,4[sp]
00000106 63ef0100        427 	st.w	r29,0[sp]
0000010a 06e8            428 	mov	r6,r29
                         429 --	    .bf
                         430 .LDW91:
                         431 --220: {
                         432 --221: 	/* -> RESET if needed */
                         433 --222: 	if (TargetMode != RSCFD_MODE_SLEEP)
0000010c e0e9            434 	cmp	zero,r29
0000010e e21d*           435 	be	.L202
                         436 --223: 	{
                         437 --224: 		/* unit 0 */
                         438 --225: 		if (GSTS(RSCFD_UNIT_0).BIT.GSLPSTS)
                         439 --line225
                         440 ..lin.D.3A.5CCANFDGwMcuFirmRH850F1x.5Ccode.5CCANFDGwMcuFirmRH850F1x.5CCANFDGwMcuFirmRH850F1x.5Cprj.5CGHS.20MULTI.5CCAN.20Gateway.5Coutput.5Cobj.5Cpe1.5Crscanfd_drv.17::
                         441 .LDWlin17:
00000110 8007c90801a0    442 	ld.w	4291821708[zero],r1
00000116 c10e0400        443 	andi	4,r1,r1
0000011a e009            444 	cmp	zero,r1
0000011c f215*           445 	be	.L202
                         446 --226: 		{
                         447 --227: 			GCTR(RSCFD_UNIT_0).BIT.GSLPR = 0;
                         448 --line227
                         449 ..lin.D.3A.5CCANFDGwMcuFirmRH850F1x.5Ccode.5CCANFDGwMcuFirmRH850F1x.5CCANFDGwMcuFirmRH850F1x.5Cprj.5CGHS.20MULTI.5CCAN.20Gateway.5Coutput.5Cobj.5Cpe1.5Crscanfd_drv.18::
                         450 .LDWlin18:
0000011e 8007890801a0    451 	ld.w	4291821704[zero],r1
00000124 1b12            452 	mov	-5,r2
00000126 4209            453 	and	r2,r1
00000128 80078f0801a0    454 	st.w	r1,4291821704[zero]
                         455 --228: 			User_StartTimeCount();
                         456 	jarl	_User_StartTimeCount,lp
                         456 <EXPANSION BEGIN>
                         456 jarl22 _User_StartTimeCount , lp 
0000012e 80ff0000*       456 <EXPANSION END>

                                                                      Page 9
                                                              C:\Users\TIEZHU~1\AppData\Local\Temp\gh_000076o1.si
                         457 --229: 			while (GSTS(RSCFD_UNIT_0).BIT.GSLPSTS)
                         458 --line229
                         459 ..lin.D.3A.5CCANFDGwMcuFirmRH850F1x.5Ccode.5CCANFDGwMcuFirmRH850F1x.5CCANFDGwMcuFirmRH850F1x.5Cprj.5CGHS.20MULTI.5CCAN.20Gateway.5Coutput.5Cobj.5Cpe1.5Crscanfd_drv.19::
                         460 .LDWlin19:
00000132 d505*           461 	br	.L206
                         462 .L208:
                         463 --230: 			{
                         464 --231: 				if (TRUE == User_IsTimeOut())
                         465 --line231
                         466 ..lin.D.3A.5CCANFDGwMcuFirmRH850F1x.5Ccode.5CCANFDGwMcuFirmRH850F1x.5CCANFDGwMcuFirmRH850F1x.5Cprj.5CGHS.20MULTI.5CCAN.20Gateway.5Coutput.5Cobj.5Cpe1.5Crscanfd_drv.20::
                         467 .LDWlin20:
                         468 	jarl	_User_IsTimeOut,lp
                         468 <EXPANSION BEGIN>
                         468 jarl22 _User_IsTimeOut , lp 
00000134 80ff0000*       468 <EXPANSION END>
00000138 6152            469 	cmp	1,r10
0000013a 820d*           470 	be	.L202
                         471 .L206:
                         472 --232: 				{
                         473 --233: 					/* exit if timeout */
                         474 --234: 					break;
                         475 --line229
                         476 ..lin.D.3A.5CCANFDGwMcuFirmRH850F1x.5Ccode.5CCANFDGwMcuFirmRH850F1x.5CCANFDGwMcuFirmRH850F1x.5Cprj.5CGHS.20MULTI.5CCAN.20Gateway.5Coutput.5Cobj.5Cpe1.5Crscanfd_drv.21::
                         477 .LDWlin21:
0000013c 8007c90801a0    478 	ld.w	4291821708[zero],r1
00000142 c10e0400        479 	andi	4,r1,r1
00000146 e009            480 	cmp	zero,r1
00000148 eaf5*           481 	bne	.L208
                         482 .L202:
                         483 --235: 				}
                         484 --236: 			}
                         485 --237: 		}
                         486 --238: #ifdef RSCFD_UNIT_1
                         487 --239: 		/* unit 1 */
                         488 --240: 		if (GSTS(RSCFD_UNIT_1).BIT.GSLPSTS)
                         489 --241: 		{
                         490 --242: 			GCTR(RSCFD_UNIT_1).BIT.GSLPR = 0;
                         491 --243: 			User_StartTimeCount();
                         492 --244: 			while (GSTS(RSCFD_UNIT_1).BIT.GSLPSTS)
                         493 --245: 			{
                         494 --246: 				if(TRUE == User_IsTimeOut())
                         495 --247: 				{
                         496 --248: 					/* exit if timeout */
                         497 --249: 					break;
                         498 --250: 				}
                         499 --251: 			}
                         500 --252: 		}
                         501 --253: #endif
                         502 --254: 	}
                         503 --256: 	switch (TargetMode)
                         504 --line256
                         505 ..lin.D.3A.5CCANFDGwMcuFirmRH850F1x.5Ccode.5CCANFDGwMcuFirmRH850F1x.5CCANFDGwMcuFirmRH850F1x.5Cprj.5CGHS.20MULTI.5CCAN.20Gateway.5Coutput.5Cobj.5Cpe1.5Crscanfd_drv.22::
                         506 .LDWlin22:
0000014a 1d08            507 	mov	r29,r1
0000014c 610a            508 	cmp	1,r1
0000014e f105*           509 	bl	.L215
00000150 9265*           510 	be	.L247
00000152 630a            511 	cmp	3,r1
00000154 a13d*           512 	bl	.L232
00000156 e275*           513 	be	.L255
00000158 80071801*       514 	br	.L200

                                                                      Page 10
                                                              C:\Users\TIEZHU~1\AppData\Local\Temp\gh_000076o1.si
                         515 .L215:
                         516 --257: 	{
                         517 --258: 		case RSCFD_MODE_SLEEP:
                         518 --259: 			/* unit 0 */
                         519 --260: 			if (!GSTS(RSCFD_UNIT_0).BIT.GSLPSTS)
                         520 --line260
                         521 ..lin.D.3A.5CCANFDGwMcuFirmRH850F1x.5Ccode.5CCANFDGwMcuFirmRH850F1x.5CCANFDGwMcuFirmRH850F1x.5Cprj.5CGHS.20MULTI.5CCAN.20Gateway.5Coutput.5Cobj.5Cpe1.5Crscanfd_drv.23::
                         522 .LDWlin23:
0000015c 8007c90801a0    523 	ld.w	4291821708[zero],r1
00000162 c10e0400        524 	andi	4,r1,r1
00000166 e009            525 	cmp	zero,r1
00000168 ea070901*       526 	bne	.L200
                         527 --261: 			{
                         528 --262: 				/* -> RESET  */
                         529 --263: 				GCTR(RSCFD_UNIT_0).BIT.GMDC = 1;
                         530 --line263
                         531 ..lin.D.3A.5CCANFDGwMcuFirmRH850F1x.5Ccode.5CCANFDGwMcuFirmRH850F1x.5CCANFDGwMcuFirmRH850F1x.5Cprj.5CGHS.20MULTI.5CCAN.20Gateway.5Coutput.5Cobj.5Cpe1.5Crscanfd_drv.24::
                         532 .LDWlin24:
0000016c 8007890801a0    533 	ld.w	4291821704[zero],r1
00000172 0112            534 	mov	1,r2
00000174 e20fd010        535 	bins	r2,0,2,r1
00000178 80078f0801a0    536 	st.w	r1,4291821704[zero]
                         537 --264: 				User_StartTimeCount();
                         538 	jarl	_User_StartTimeCount,lp
                         538 <EXPANSION BEGIN>
                         538 jarl22 _User_StartTimeCount , lp 
0000017e 80ff0000*       538 <EXPANSION END>
                         539 --265: 				while (!GSTS(RSCFD_UNIT_0).BIT.GRSTSTS)
                         540 --line265
                         541 ..lin.D.3A.5CCANFDGwMcuFirmRH850F1x.5Ccode.5CCANFDGwMcuFirmRH850F1x.5CCANFDGwMcuFirmRH850F1x.5Cprj.5CGHS.20MULTI.5CCAN.20Gateway.5Coutput.5Cobj.5Cpe1.5Crscanfd_drv.25::
                         542 .LDWlin25:
00000182 d505*           543 	br	.L218
                         544 .L220:
                         545 --266: 				{
                         546 --267: 					if (TRUE == User_IsTimeOut())
                         547 --line267
                         548 ..lin.D.3A.5CCANFDGwMcuFirmRH850F1x.5Ccode.5CCANFDGwMcuFirmRH850F1x.5CCANFDGwMcuFirmRH850F1x.5Cprj.5CGHS.20MULTI.5CCAN.20Gateway.5Coutput.5Cobj.5Cpe1.5Crscanfd_drv.26::
                         549 .LDWlin26:
                         550 	jarl	_User_IsTimeOut,lp
                         550 <EXPANSION BEGIN>
                         550 jarl22 _User_IsTimeOut , lp 
00000184 80ff0000*       550 <EXPANSION END>
00000188 6152            551 	cmp	1,r10
0000018a 820d*           552 	be	.L223
                         553 .L218:
                         554 --268: 					{
                         555 --269: 						/* exit if timeout */
                         556 --270: 						break;
                         557 --line265
                         558 ..lin.D.3A.5CCANFDGwMcuFirmRH850F1x.5Ccode.5CCANFDGwMcuFirmRH850F1x.5CCANFDGwMcuFirmRH850F1x.5Cprj.5CGHS.20MULTI.5CCAN.20Gateway.5Coutput.5Cobj.5Cpe1.5Crscanfd_drv.27::
                         559 .LDWlin27:
0000018c 8007c90801a0    560 	ld.w	4291821708[zero],r1
00000192 c10e0100        561 	andi	1,r1,r1
00000196 e009            562 	cmp	zero,r1
00000198 e2f5*           563 	be	.L220
                         564 .L223:
                         565 --271: 					}
                         566 --272: 				}
                         567 --273: 				/* -> SLEEP */
                         568 --274: 				GCTR(RSCFD_UNIT_0).BIT.GSLPR = 1;
                         569 --line274

                                                                      Page 11
                                                              C:\Users\TIEZHU~1\AppData\Local\Temp\gh_000076o1.si
                         570 ..lin.D.3A.5CCANFDGwMcuFirmRH850F1x.5Ccode.5CCANFDGwMcuFirmRH850F1x.5CCANFDGwMcuFirmRH850F1x.5Cprj.5CGHS.20MULTI.5CCAN.20Gateway.5Coutput.5Cobj.5Cpe1.5Crscanfd_drv.28::
                         571 .LDWlin28:
0000019a 8007890801a0    572 	ld.w	4291821704[zero],r1
000001a0 810e0400        573 	ori	4,r1,r1
000001a4 80078f0801a0    574 	st.w	r1,4291821704[zero]
                         575 --275: 				User_StartTimeCount();
                         576 	jarl	_User_StartTimeCount,lp
                         576 <EXPANSION BEGIN>
                         576 jarl22 _User_StartTimeCount , lp 
000001aa 80ff0000*       576 <EXPANSION END>
                         577 --276: 				while (!GSTS(RSCFD_UNIT_0).BIT.GSLPSTS)
                         578 --line276
                         579 ..lin.D.3A.5CCANFDGwMcuFirmRH850F1x.5Ccode.5CCANFDGwMcuFirmRH850F1x.5CCANFDGwMcuFirmRH850F1x.5Cprj.5CGHS.20MULTI.5CCAN.20Gateway.5Coutput.5Cobj.5Cpe1.5Crscanfd_drv.29::
                         580 .LDWlin29:
000001ae d505*           581 	br	.L225
                         582 .L227:
                         583 --277: 				{
                         584 --278: 					if (TRUE == User_IsTimeOut())
                         585 --line278
                         586 ..lin.D.3A.5CCANFDGwMcuFirmRH850F1x.5Ccode.5CCANFDGwMcuFirmRH850F1x.5CCANFDGwMcuFirmRH850F1x.5Cprj.5CGHS.20MULTI.5CCAN.20Gateway.5Coutput.5Cobj.5Cpe1.5Crscanfd_drv.30::
                         587 .LDWlin30:
                         588 	jarl	_User_IsTimeOut,lp
                         588 <EXPANSION BEGIN>
                         588 jarl22 _User_IsTimeOut , lp 
000001b0 80ff0000*       588 <EXPANSION END>
000001b4 6152            589 	cmp	1,r10
000001b6 d25d*           590 	be	.L200
                         591 .L225:
                         592 --279: 					{
                         593 --280: 						/* exit if timeout */
                         594 --281: 						break;
                         595 --line276
                         596 ..lin.D.3A.5CCANFDGwMcuFirmRH850F1x.5Ccode.5CCANFDGwMcuFirmRH850F1x.5CCANFDGwMcuFirmRH850F1x.5Cprj.5CGHS.20MULTI.5CCAN.20Gateway.5Coutput.5Cobj.5Cpe1.5Crscanfd_drv.31::
                         597 .LDWlin31:
000001b8 8007c90801a0    598 	ld.w	4291821708[zero],r1
000001be c10e0400        599 	andi	4,r1,r1
000001c2 e009            600 	cmp	zero,r1
000001c4 e2f5*           601 	be	.L227
000001c6 d555*           602 	br	.L200
                         603 .L232:
                         604 --282: 					}
                         605 --283: 				}
                         606 --284: 			}
                         607 --285: #ifdef RSCFD_UNIT_1
                         608 --286: 			/* unit 1 */
                         609 --287: 			if (!GSTS(RSCFD_UNIT_1).BIT.GSLPSTS)
                         610 --288: 			{
                         611 --289: 				/* -> RESET  */
                         612 --290: 				GCTR(RSCFD_UNIT_1).BIT.GMDC = 1;
                         613 --291: 				User_StartTimeCount();
                         614 --292: 				while (!GSTS(RSCFD_UNIT_1).BIT.GRSTSTS)
                         615 --293: 				{
                         616 --294: 					if(TRUE == User_IsTimeOut())
                         617 --295: 					{
                         618 --296: 						/* exit if timeout */
                         619 --297: 						break;
                         620 --298: 					}
                         621 --299: 				}
                         622 --300: 				/* -> SLEEP */
                         623 --301: 				GCTR(RSCFD_UNIT_1).BIT.GSLPR = 1;
                         624 --302: 				User_StartTimeCount();

                                                                      Page 12
                                                              C:\Users\TIEZHU~1\AppData\Local\Temp\gh_000076o1.si
                         625 --303: 				while (!GSTS(RSCFD_UNIT_1).BIT.GSLPSTS)
                         626 --304: 				{
                         627 --305: 					if(TRUE == User_IsTimeOut())
                         628 --306: 					{
                         629 --307: 						/* exit if timeout */
                         630 --308: 						break;
                         631 --309: 					}
                         632 --310: 				}
                         633 --311: 			}
                         634 --312: #endif
                         635 --313: 			break;
                         636 --315: 		case RSCFD_MODE_OPERATION:
                         637 --316: 			/* unit 0 */
                         638 --317: 			GCTR(RSCFD_UNIT_0).BIT.GMDC = 0;
                         639 --line317
                         640 ..lin.D.3A.5CCANFDGwMcuFirmRH850F1x.5Ccode.5CCANFDGwMcuFirmRH850F1x.5CCANFDGwMcuFirmRH850F1x.5Cprj.5CGHS.20MULTI.5CCAN.20Gateway.5Coutput.5Cobj.5Cpe1.5Crscanfd_drv.32::
                         641 .LDWlin32:
000001c8 8007890801a0    642 	ld.w	4291821704[zero],r1
000001ce 1c12            643 	mov	-4,r2
000001d0 4209            644 	and	r2,r1
000001d2 80078f0801a0    645 	st.w	r1,4291821704[zero]
                         646 --318: 			User_StartTimeCount();
                         647 	jarl	_User_StartTimeCount,lp
                         647 <EXPANSION BEGIN>
                         647 jarl22 _User_StartTimeCount , lp 
000001d8 80ff0000*       647 <EXPANSION END>
                         648 --319: 			while (GSTS(RSCFD_UNIT_0).BIT.GHLTSTS)
                         649 --line319
                         650 ..lin.D.3A.5CCANFDGwMcuFirmRH850F1x.5Ccode.5CCANFDGwMcuFirmRH850F1x.5CCANFDGwMcuFirmRH850F1x.5Cprj.5CGHS.20MULTI.5CCAN.20Gateway.5Coutput.5Cobj.5Cpe1.5Crscanfd_drv.33::
                         651 .LDWlin33:
000001dc d505*           652 	br	.L233
                         653 .L235:
                         654 --320: 			{
                         655 --321: 				if (TRUE == User_IsTimeOut())
                         656 --line321
                         657 ..lin.D.3A.5CCANFDGwMcuFirmRH850F1x.5Ccode.5CCANFDGwMcuFirmRH850F1x.5CCANFDGwMcuFirmRH850F1x.5Cprj.5CGHS.20MULTI.5CCAN.20Gateway.5Coutput.5Cobj.5Cpe1.5Crscanfd_drv.34::
                         658 .LDWlin34:
                         659 	jarl	_User_IsTimeOut,lp
                         659 <EXPANSION BEGIN>
                         659 jarl22 _User_IsTimeOut , lp 
000001de 80ff0000*       659 <EXPANSION END>
000001e2 6152            660 	cmp	1,r10
000001e4 820d*           661 	be	.L238
                         662 .L233:
                         663 --322: 				{
                         664 --323: 					/* exit if timeout */
                         665 --324: 					break;
                         666 --line319
                         667 ..lin.D.3A.5CCANFDGwMcuFirmRH850F1x.5Ccode.5CCANFDGwMcuFirmRH850F1x.5CCANFDGwMcuFirmRH850F1x.5Cprj.5CGHS.20MULTI.5CCAN.20Gateway.5Coutput.5Cobj.5Cpe1.5Crscanfd_drv.35::
                         668 .LDWlin35:
000001e6 8007c90801a0    669 	ld.w	4291821708[zero],r1
000001ec c10e0200        670 	andi	2,r1,r1
000001f0 e009            671 	cmp	zero,r1
000001f2 eaf5*           672 	bne	.L235
                         673 .L238:
                         674 --325: 				}
                         675 --326: 			}
                         676 --327: 			User_StartTimeCount();
                         677 --line327
                         678 ..lin.D.3A.5CCANFDGwMcuFirmRH850F1x.5Ccode.5CCANFDGwMcuFirmRH850F1x.5CCANFDGwMcuFirmRH850F1x.5Cprj.5CGHS.20MULTI.5CCAN.20Gateway.5Coutput.5Cobj.5Cpe1.5Crscanfd_drv.36::
                         679 .LDWlin36:

                                                                      Page 13
                                                              C:\Users\TIEZHU~1\AppData\Local\Temp\gh_000076o1.si
                         680 	jarl	_User_StartTimeCount,lp
                         680 <EXPANSION BEGIN>
                         680 jarl22 _User_StartTimeCount , lp 
000001f4 80ff0000*       680 <EXPANSION END>
                         681 --328: 			while (GSTS(RSCFD_UNIT_0).BIT.GRSTSTS)
                         682 --line328
                         683 ..lin.D.3A.5CCANFDGwMcuFirmRH850F1x.5Ccode.5CCANFDGwMcuFirmRH850F1x.5CCANFDGwMcuFirmRH850F1x.5Cprj.5CGHS.20MULTI.5CCAN.20Gateway.5Coutput.5Cobj.5Cpe1.5Crscanfd_drv.37::
                         684 .LDWlin37:
000001f8 d505*           685 	br	.L240
                         686 .L242:
                         687 --329: 			{
                         688 --330: 				if (TRUE == User_IsTimeOut())
                         689 --line330
                         690 ..lin.D.3A.5CCANFDGwMcuFirmRH850F1x.5Ccode.5CCANFDGwMcuFirmRH850F1x.5CCANFDGwMcuFirmRH850F1x.5Cprj.5CGHS.20MULTI.5CCAN.20Gateway.5Coutput.5Cobj.5Cpe1.5Crscanfd_drv.38::
                         691 .LDWlin38:
                         692 	jarl	_User_IsTimeOut,lp
                         692 <EXPANSION BEGIN>
                         692 jarl22 _User_IsTimeOut , lp 
000001fa 80ff0000*       692 <EXPANSION END>
000001fe 6152            693 	cmp	1,r10
00000200 823d*           694 	be	.L200
                         695 .L240:
                         696 --331: 				{
                         697 --332: 					/* exit if timeout */
                         698 --333: 					break;
                         699 --line328
                         700 ..lin.D.3A.5CCANFDGwMcuFirmRH850F1x.5Ccode.5CCANFDGwMcuFirmRH850F1x.5CCANFDGwMcuFirmRH850F1x.5Cprj.5CGHS.20MULTI.5CCAN.20Gateway.5Coutput.5Cobj.5Cpe1.5Crscanfd_drv.39::
                         701 .LDWlin39:
00000202 8007c90801a0    702 	ld.w	4291821708[zero],r1
00000208 c10e0100        703 	andi	1,r1,r1
0000020c e009            704 	cmp	zero,r1
0000020e eaf5*           705 	bne	.L242
00000210 8535*           706 	br	.L200
                         707 .L247:
                         708 --334: 				}
                         709 --335: 			}
                         710 --336: #ifdef RSCFD_UNIT_1
                         711 --337: 			/* unit 1 */
                         712 --338: 			GCTR(RSCFD_UNIT_1).BIT.GMDC = 0;
                         713 --339: 			User_StartTimeCount();
                         714 --340: 			while (GSTS(RSCFD_UNIT_1).BIT.GHLTSTS)
                         715 --341: 			{
                         716 --342: 				if(TRUE == User_IsTimeOut())
                         717 --343: 				{
                         718 --344: 					/* exit if timeout */
                         719 --345: 					break;
                         720 --346: 				}
                         721 --347: 			}
                         722 --348: 			User_StartTimeCount();
                         723 --349: 			while (GSTS(RSCFD_UNIT_1).BIT.GRSTSTS)
                         724 --350: 			{
                         725 --351: 				if(TRUE == User_IsTimeOut())
                         726 --352: 				{
                         727 --353: 					/* exit if timeout */
                         728 --354: 					break;
                         729 --355: 				}
                         730 --356: 			}
                         731 --357: #endif
                         732 --358: 			break;
                         733 --360: 		case RSCFD_MODE_RESET:
                         734 --361: 			/* unit 0 */

                                                                      Page 14
                                                              C:\Users\TIEZHU~1\AppData\Local\Temp\gh_000076o1.si
                         735 --362: 			GCTR(RSCFD_UNIT_0).BIT.GMDC = 1;
                         736 --line362
                         737 ..lin.D.3A.5CCANFDGwMcuFirmRH850F1x.5Ccode.5CCANFDGwMcuFirmRH850F1x.5CCANFDGwMcuFirmRH850F1x.5Cprj.5CGHS.20MULTI.5CCAN.20Gateway.5Coutput.5Cobj.5Cpe1.5Crscanfd_drv.40::
                         738 .LDWlin40:
00000212 8007890801a0    739 	ld.w	4291821704[zero],r1
00000218 0112            740 	mov	1,r2
0000021a e20fd010        741 	bins	r2,0,2,r1
0000021e 80078f0801a0    742 	st.w	r1,4291821704[zero]
                         743 --363: 			User_StartTimeCount();
                         744 	jarl	_User_StartTimeCount,lp
                         744 <EXPANSION BEGIN>
                         744 jarl22 _User_StartTimeCount , lp 
00000224 80ff0000*       744 <EXPANSION END>
                         745 --364: 			while (!GSTS(RSCFD_UNIT_0).BIT.GRSTSTS)
                         746 --line364
                         747 ..lin.D.3A.5CCANFDGwMcuFirmRH850F1x.5Ccode.5CCANFDGwMcuFirmRH850F1x.5CCANFDGwMcuFirmRH850F1x.5Cprj.5CGHS.20MULTI.5CCAN.20Gateway.5Coutput.5Cobj.5Cpe1.5Crscanfd_drv.41::
                         748 .LDWlin41:
00000228 d505*           749 	br	.L248
                         750 .L250:
                         751 --365: 			{
                         752 --366: 				if (TRUE == User_IsTimeOut())
                         753 --line366
                         754 ..lin.D.3A.5CCANFDGwMcuFirmRH850F1x.5Ccode.5CCANFDGwMcuFirmRH850F1x.5CCANFDGwMcuFirmRH850F1x.5Cprj.5CGHS.20MULTI.5CCAN.20Gateway.5Coutput.5Cobj.5Cpe1.5Crscanfd_drv.42::
                         755 .LDWlin42:
                         756 	jarl	_User_IsTimeOut,lp
                         756 <EXPANSION BEGIN>
                         756 jarl22 _User_IsTimeOut , lp 
0000022a 80ff0000*       756 <EXPANSION END>
0000022e 6152            757 	cmp	1,r10
00000230 8225*           758 	be	.L200
                         759 .L248:
                         760 --367: 				{
                         761 --368: 					/* exit if timeout */
                         762 --369: 					break;
                         763 --line364
                         764 ..lin.D.3A.5CCANFDGwMcuFirmRH850F1x.5Ccode.5CCANFDGwMcuFirmRH850F1x.5CCANFDGwMcuFirmRH850F1x.5Cprj.5CGHS.20MULTI.5CCAN.20Gateway.5Coutput.5Cobj.5Cpe1.5Crscanfd_drv.43::
                         765 .LDWlin43:
00000232 8007c90801a0    766 	ld.w	4291821708[zero],r1
00000238 c10e0100        767 	andi	1,r1,r1
0000023c e009            768 	cmp	zero,r1
0000023e e2f5*           769 	be	.L250
00000240 851d*           770 	br	.L200
                         771 .L255:
                         772 --370: 				}
                         773 --371: 			}
                         774 --372: #ifdef RSCFD_UNIT_1
                         775 --373: 			/* unit 1 */
                         776 --374: 			GCTR(RSCFD_UNIT_1).BIT.GMDC = 1;
                         777 --375: 			User_StartTimeCount();
                         778 --376: 			while (!GSTS(RSCFD_UNIT_1).BIT.GRSTSTS)
                         779 --377: 			{
                         780 --378: 				if(TRUE == User_IsTimeOut())
                         781 --379: 				{
                         782 --380: 					/* exit if timeout */
                         783 --381: 					break;
                         784 --382: 				}
                         785 --383: 			}
                         786 --384: #endif
                         787 --385: 			break;
                         788 --387: 		case RSCFD_MODE_HALT:
                         789 --388: 			/* unit 0 */

                                                                      Page 15
                                                              C:\Users\TIEZHU~1\AppData\Local\Temp\gh_000076o1.si
                         790 --389: 			GCTR(RSCFD_UNIT_0).BIT.GMDC = 2;
                         791 --line389
                         792 ..lin.D.3A.5CCANFDGwMcuFirmRH850F1x.5Ccode.5CCANFDGwMcuFirmRH850F1x.5CCANFDGwMcuFirmRH850F1x.5Cprj.5CGHS.20MULTI.5CCAN.20Gateway.5Coutput.5Cobj.5Cpe1.5Crscanfd_drv.44::
                         793 .LDWlin44:
00000242 8007890801a0    794 	ld.w	4291821704[zero],r1
00000248 0212            795 	mov	2,r2
0000024a e20fd010        796 	bins	r2,0,2,r1
0000024e 80078f0801a0    797 	st.w	r1,4291821704[zero]
                         798 --390: 			User_StartTimeCount();
                         799 	jarl	_User_StartTimeCount,lp
                         799 <EXPANSION BEGIN>
                         799 jarl22 _User_StartTimeCount , lp 
00000254 80ff0000*       799 <EXPANSION END>
                         800 --391: 			while (!GSTS(RSCFD_UNIT_0).BIT.GHLTSTS)
                         801 --line391
                         802 ..lin.D.3A.5CCANFDGwMcuFirmRH850F1x.5Ccode.5CCANFDGwMcuFirmRH850F1x.5CCANFDGwMcuFirmRH850F1x.5Cprj.5CGHS.20MULTI.5CCAN.20Gateway.5Coutput.5Cobj.5Cpe1.5Crscanfd_drv.45::
                         803 .LDWlin45:
00000258 d505*           804 	br	.L256
                         805 .L258:
                         806 --392: 			{
                         807 --393: 				if (TRUE == User_IsTimeOut())
                         808 --line393
                         809 ..lin.D.3A.5CCANFDGwMcuFirmRH850F1x.5Ccode.5CCANFDGwMcuFirmRH850F1x.5CCANFDGwMcuFirmRH850F1x.5Cprj.5CGHS.20MULTI.5CCAN.20Gateway.5Coutput.5Cobj.5Cpe1.5Crscanfd_drv.46::
                         810 .LDWlin46:
                         811 	jarl	_User_IsTimeOut,lp
                         811 <EXPANSION BEGIN>
                         811 jarl22 _User_IsTimeOut , lp 
0000025a 80ff0000*       811 <EXPANSION END>
0000025e 6152            812 	cmp	1,r10
00000260 820d*           813 	be	.L200
                         814 .L256:
                         815 --394: 				{
                         816 --395: 					/* exit if timeout */
                         817 --396: 					break;
                         818 --line391
                         819 ..lin.D.3A.5CCANFDGwMcuFirmRH850F1x.5Ccode.5CCANFDGwMcuFirmRH850F1x.5CCANFDGwMcuFirmRH850F1x.5Cprj.5CGHS.20MULTI.5CCAN.20Gateway.5Coutput.5Cobj.5Cpe1.5Crscanfd_drv.47::
                         820 .LDWlin47:
00000262 8007c90801a0    821 	ld.w	4291821708[zero],r1
00000268 c10e0200        822 	andi	2,r1,r1
0000026c e009            823 	cmp	zero,r1
0000026e e2f5*           824 	be	.L258
                         825 .L200:
                         826 --397: 				}
                         827 --398: 			}
                         828 --399: #ifdef RSCFD_UNIT_1
                         829 --400: 			/* unit 1 */
                         830 --401: 			GCTR(RSCFD_UNIT_1).BIT.GMDC = 2;
                         831 --402: 			User_StartTimeCount();
                         832 --403: 			while (!GSTS(RSCFD_UNIT_1).BIT.GHLTSTS)
                         833 --404: 			{
                         834 --405: 				if(TRUE == User_IsTimeOut())
                         835 --406: 				{
                         836 --407: 					/* exit if timeout */
                         837 --408: 					break;
                         838 --409: 				}
                         839 --410: 			}
                         840 --411: #endif
                         841 --412: 			break;
                         842 --414: 		default:
                         843 --415: 			/* ignore */
                         844 --416: 			break;

                                                                      Page 16
                                                              C:\Users\TIEZHU~1\AppData\Local\Temp\gh_000076o1.si
                         845 --417: 	}
                         846 --418: } /* End of RSCFD_SwitchGlobalMode() */
                         847 --	    .ef
                         848 .LDW02:
                         849 --line418
                         850 ..lin.D.3A.5CCANFDGwMcuFirmRH850F1x.5Ccode.5CCANFDGwMcuFirmRH850F1x.5CCANFDGwMcuFirmRH850F1x.5Cprj.5CGHS.20MULTI.5CCAN.20Gateway.5Coutput.5Cobj.5Cpe1.5Crscanfd_drv.48::
                         851 .LDWlin48:
00000270 23ff0500        852 	ld.w	4[sp],lp
00000274 23ef0100        853 	ld.w	0[sp],r29
00000278 481a            854 	add	8,sp
0000027a 7f00            855 	jmp	[lp]
                         856 	.type	_RSCFD_SwitchGlobalMode,@function
                         857 	.size	_RSCFD_SwitchGlobalMode,.-_RSCFD_SwitchGlobalMode
                         858 	.align	2
                         859 .LDW12:
                         860 
                         861 --_TargetMode	r29	param
                         862 
                         863 	.data
                         864 	.text
                         865 
                         866 
                         867 --420: /***********************************************************************************************************************
                         868 --421:  * Function Name: RSCFD_SetGlobalRx
                         869 --422:  * Description  : Set message pay load overflow configuration in CAN FD mode
                         870 --423:  * Arguments    : MsgOverflowMode -
                         871 --424:  *              :   specified overflow configuration
                         872 --425:  * Return Value : none
                         873 --426:  ***********************************************************************************************************************/
                         874 --427: void RSCFD_SetGlobalRx(RSCFD_MsgPayloadOverflowMode MsgOverflowMode)
                         875 	.align	2
                         876 	.align	2
                         877 	.global	_RSCFD_SetGlobalRx
                         878 _RSCFD_SetGlobalRx:
                         879 --	    .bf
                         880 .LDW22:
                         881 --428: {
                         882 --429: 	/* unit 0 */
                         883 --430: 	if (CFDGRMCFG(RSCFD_UNIT_0).BIT.RCMC == 1)
0000027c 8007c90f09a0    884 	ld.w	4291822844[zero],r1
00000282 c10e0100        885 	andi	1,r1,r1
00000286 e009            886 	cmp	zero,r1
00000288 920d*           887 	be	.L472
                         888 --431: 	{
                         889 --432: 		CFDGCFG(RSCFD_UNIT_0).BIT.CMPOC = MsgOverflowMode;
                         890 --line432
                         891 ..lin.D.3A.5CCANFDGwMcuFirmRH850F1x.5Ccode.5CCANFDGwMcuFirmRH850F1x.5CCANFDGwMcuFirmRH850F1x.5Cprj.5CGHS.20MULTI.5CCAN.20Gateway.5Coutput.5Cobj.5Cpe1.5Crscanfd_drv.49::
                         892 .LDWlin49:
0000028a 8007490801a0    893 	ld.w	4291821700[zero],r1
00000290 e60fda50        894 	bins	r6,5,1,r1
00000294 80074f0801a0    895 	st.w	r1,4291821700[zero]
                         896 .L472:
                         897 --433: 	}
                         898 --434: #ifdef RSCFD_UNIT_1
                         899 --435: 	/* unit 1 */
                         900 --436: 	if (CFDGRMCFG(RSCFD_UNIT_1).BIT.RCMC == 1)
                         901 --437: 	{
                         902 --438: 		CFDGCFG(RSCFD_UNIT_1).BIT.CMPOC = MsgOverflowMode;
                         903 --439: 	}
                         904 --440: #endif
                         905 --441: } /* End of RSCFD_SetGlobalRx() */

                                                                      Page 17
                                                              C:\Users\TIEZHU~1\AppData\Local\Temp\gh_000076o1.si
                         906 --	    .ef
                         907 .LDW32:
0000029a 7f00            908 	jmp	[lp]
                         909 	.type	_RSCFD_SetGlobalRx,@function
                         910 	.size	_RSCFD_SetGlobalRx,.-_RSCFD_SetGlobalRx
                         911 	.align	2
                         912 .LDW42:
                         913 
                         914 --_MsgOverflowMode	r6	param
                         915 
                         916 	.data
                         917 	.text
                         918 
                         919 
                         920 --443: /***********************************************************************************************************************
                         921 --444:  * Function Name: RSCFD_ConfigGlobal
                         922 --445:  * Description  : configure global settings
                         923 --446:  * Arguments    : GlobalConfig -
                         924 --447:  *              :   specified global settings
                         925 --448:  * Return Value : none
                         926 --449:  ***********************************************************************************************************************/
                         927 --450: void RSCFD_ConfigGlobal(RSCFD_U32 GlobalConfig)
                         928 	.align	2
                         929 	.align	2
                         930 	.global	_RSCFD_ConfigGlobal
                         931 _RSCFD_ConfigGlobal:
                         932 --	    .bf
                         933 .LDW52:
                         934 --451: {
                         935 --452: 	CFDGCFG(RSCFD_UNIT_0).LONG = GlobalConfig;
0000029c 80074f3001a0    936 	st.w	r6,4291821700[zero]
                         937 --453: #ifdef RSCFD_UNIT_1
                         938 --454: 	CFDGCFG(RSCFD_UNIT_1).LONG = GlobalConfig;
                         939 --455: #endif
                         940 --456: } /* End of RSCFD_ConfigGlobal() */
                         941 --	    .ef
                         942 .LDW62:
000002a2 7f00            943 	jmp	[lp]
                         944 	.type	_RSCFD_ConfigGlobal,@function
                         945 	.size	_RSCFD_ConfigGlobal,.-_RSCFD_ConfigGlobal
                         946 	.align	2
                         947 .LDW72:
                         948 
                         949 --_GlobalConfig	r6	param
                         950 
                         951 	.data
                         952 	.text
                         953 
                         954 
                         955 --458: /***********************************************************************************************************************
                         956 --459:  * Function Name: RSCFD_GetGlobalErrFlag
                         957 --460:  * Description  : get global error flag
                         958 --461:  * Arguments    : UnitIndex -
                         959 --462:  *              :   specified unit index
                         960 --463:  * Return Value : global error flag register
                         961 --464:  ***********************************************************************************************************************/
                         962 --465: RSCFD_U32 RSCFD_GetGlobalErrFlag(RSCFD_U8 UnitIndex)
                         963 	.align	2
                         964 	.align	2
                         965 	.global	_RSCFD_GetGlobalErrFlag
                         966 _RSCFD_GetGlobalErrFlag:

                                                                      Page 18
                                                              C:\Users\TIEZHU~1\AppData\Local\Temp\gh_000076o1.si
000002a4 8600            967 	zxb	r6
                         968 --	    .bf
                         969 .LDW82:
                         970 --466: {
                         971 --467: 	return CFDGERFL(UnitIndex).LONG;
000002a6 0608            972 	mov	r6,r1
000002a8 cf0a            973 	shl	15,r1
000002aa 4016d0ff        974 	movhi	hi(-3145728),zero,r2
000002ae c209            975 	add	r2,r1
000002b0 01f69000        976 	addi	144,r1,ep
000002b4 0055            977 	sld.w	0[ep],r10
                         978 --	    .ef
                         979 .LDW92:
000002b6 7f00            980 	jmp	[lp]
                         981 	.type	_RSCFD_GetGlobalErrFlag,@function
                         982 	.size	_RSCFD_GetGlobalErrFlag,.-_RSCFD_GetGlobalErrFlag
                         983 	.align	2
                         984 .LDW03:
                         985 
                         986 --_UnitIndex	r6	param
                         987 
                         988 	.data
                         989 	.text
                         990 
                         991 --468: }
                         992 
                         993 --470: /***********************************************************************************************************************
                         994 --471:  * Function Name: RSCFD_SetChannelBitrate
                         995 --472:  * Description  : set channel baud rate
                         996 --473:  * Arguments    : UnitIndex -
                         997 --474:  *              :   specified unit
                         998 --475:  *              : ChannelIndex -
                         999 --476:  *              :   specified channel
                        1000 --477:  *              : BitrateType -
                        1001 --478:  *              :   specified bit rate type: norminal or data field
                        1002 --479:  *              : Brp -
                        1003 --480:  *              :   baud rate prescaler division ratio
                        1004 --481:  *              : Tseg1 -
                        1005 --482:  *              :   timing segment 1
                        1006 --483:  *              : Tseg2 -
                        1007 --484:  *              :   timing segment 2
                        1008 --485:  *              : Sjw -
                        1009 --486:  *              :   resynchronization jump width
                        1010 --487:  * Return Value : none
                        1011 --488:  ***********************************************************************************************************************/
                        1012 --489: void RSCFD_SetChannelBitrate(RSCFD_U8 UnitIndex, RSCFD_U8 ChannelIndex, RSCFD_CanBitrateType BitrateType, RSCFD_U16 Brp,
                        1013 	.align	2
                        1014 	.align	2
                        1015 	.global	_RSCFD_SetChannelBitrate
                        1016 _RSCFD_SetChannelBitrate:
000002b8 8600           1017 	zxb	r6
000002ba 8700           1018 	zxb	r7
000002bc c900           1019 	zxh	r9
000002be 830f0100       1020 	ld.bu	0[sp],r1
000002c2 83170500       1021 	ld.bu	4[sp],r2
000002c6 839f0900       1022 	ld.bu	8[sp],r19
                        1023 --	    .bf
                        1024 .LDW13:
                        1025 --490:                              RSCFD_U8 Tseg1, RSCFD_U8 Tseg2, RSCFD_U8 Sjw)
                        1026 --491: {
                        1027 --492: 	if (BitrateType == RSCFD_BITRATE_NOMINAL)

                                                                      Page 19
                                                              C:\Users\TIEZHU~1\AppData\Local\Temp\gh_000076o1.si
000002ca e041           1028 	cmp	zero,r8
000002cc ea071301*      1029 	bne	.L565
                        1030 --493: 	{
                        1031 --494: 		if (CFDGRMCFG(UnitIndex).BIT.RCMC == 0)
                        1032 --line494
                        1033 ..lin.D.3A.5CCANFDGwMcuFirmRH850F1x.5Ccode.5CCANFDGwMcuFirmRH850F1x.5CCANFDGwMcuFirmRH850F1x.5Cprj.5CGHS.20MULTI.5CCAN.20Gateway.5Coutput.5Cobj.5Cpe1.5Crscanfd_drv.50::
                        1034 .LDWlin50:
000002d0 0690           1035 	mov	r6,r18
000002d2 cf92           1036 	shl	15,r18
000002d4 408ed0ff       1037 	movhi	hi(-3145728),zero,r17
000002d8 d191           1038 	add	r17,r18
000002da 12f6fc04       1039 	addi	1276,r18,ep
000002de 0095           1040 	sld.w	0[ep],r18
000002e0 d2960100       1041 	andi	1,r18,r18
000002e4 e091           1042 	cmp	zero,r18
000002e6 fa3d*          1043 	bne	.L567
                        1044 --495: 		{
                        1045 --496: 			CnCFG(UnitIndex, ChannelIndex).BIT.BRP = Brp - 1;
                        1046 --line496
                        1047 ..lin.D.3A.5CCANFDGwMcuFirmRH850F1x.5Ccode.5CCANFDGwMcuFirmRH850F1x.5CCANFDGwMcuFirmRH850F1x.5Cprj.5CGHS.20MULTI.5CCAN.20Gateway.5Coutput.5Cobj.5Cpe1.5Crscanfd_drv.51::
                        1048 .LDWlin51:
000002e8 0690           1049 	mov	r6,r18
000002ea cf92           1050 	shl	15,r18
000002ec 408ed0ff       1051 	movhi	hi(-3145728),zero,r17
000002f0 d191           1052 	add	r17,r18
000002f2 0788           1053 	mov	r7,r17
000002f4 c48a           1054 	shl	4,r17
000002f6 11f0           1055 	mov	r17,ep
000002f8 d2f1           1056 	add	r18,ep
000002fa 098effff       1057 	addi	-1,r9,r17
000002fe 0095           1058 	sld.w	0[ep],r18
00000300 f197d090       1059 	bins	r17,0,10,r18
00000304 0195           1060 	sst.w	r18,0[ep]
                        1061 --497: 			CnCFG(UnitIndex, ChannelIndex).BIT.TSEG1 = Tseg1 - 1;
00000306 0690           1062 	mov	r6,r18
00000308 cf92           1063 	shl	15,r18
0000030a 408ed0ff       1064 	movhi	hi(-3145728),zero,r17
0000030e d191           1065 	add	r17,r18
00000310 0788           1066 	mov	r7,r17
00000312 c48a           1067 	shl	4,r17
00000314 11f0           1068 	mov	r17,ep
00000316 d2f1           1069 	add	r18,ep
00000318 0196ffff       1070 	addi	-1,r1,r18
0000031c 000d           1071 	sld.w	0[ep],r1
0000031e f20f9030       1072 	bins	r18,16,4,r1
00000322 010d           1073 	sst.w	r1,0[ep]
                        1074 --498: 			CnCFG(UnitIndex, ChannelIndex).BIT.TSEG2 = Tseg2 - 1;
00000324 0608           1075 	mov	r6,r1
00000326 cf0a           1076 	shl	15,r1
00000328 4096d0ff       1077 	movhi	hi(-3145728),zero,r18
0000032c d209           1078 	add	r18,r1
0000032e 0790           1079 	mov	r7,r18
00000330 c492           1080 	shl	4,r18
00000332 12f0           1081 	mov	r18,ep
00000334 c1f1           1082 	add	r1,ep
00000336 0216ffff       1083 	addi	-1,r2,r2
0000033a 000d           1084 	sld.w	0[ep],r1
0000033c e20f9860       1085 	bins	r2,20,3,r1
00000340 010d           1086 	sst.w	r1,0[ep]
                        1087 --499: 			CnCFG(UnitIndex, ChannelIndex).BIT.SJW = Sjw - 1;
00000342 0608           1088 	mov	r6,r1

                                                                      Page 20
                                                              C:\Users\TIEZHU~1\AppData\Local\Temp\gh_000076o1.si
00000344 cf0a           1089 	shl	15,r1
00000346 4016d0ff       1090 	movhi	hi(-3145728),zero,r2
0000034a c209           1091 	add	r2,r1
0000034c 0710           1092 	mov	r7,r2
0000034e c412           1093 	shl	4,r2
00000350 02f0           1094 	mov	r2,ep
00000352 c1f1           1095 	add	r1,ep
00000354 1316ffff       1096 	addi	-1,r19,r2
00000358 000d           1097 	sld.w	0[ep],r1
0000035a e20f9098       1098 	bins	r2,24,2,r1
0000035e 010d           1099 	sst.w	r1,0[ep]
00000360 80072201*      1100 	br	.L563
                        1101 .L567:
                        1102 --500: 		}
                        1103 --501: 		else
                        1104 --502: 		{
                        1105 --503: 			CFDCnNCFG(UnitIndex, ChannelIndex).BIT.NBRP = Brp - 1;
                        1106 --line503
                        1107 ..lin.D.3A.5CCANFDGwMcuFirmRH850F1x.5Ccode.5CCANFDGwMcuFirmRH850F1x.5CCANFDGwMcuFirmRH850F1x.5Cprj.5CGHS.20MULTI.5CCAN.20Gateway.5Coutput.5Cobj.5Cpe1.5Crscanfd_drv.52::
                        1108 .LDWlin52:
00000364 0690           1109 	mov	r6,r18
00000366 cf92           1110 	shl	15,r18
00000368 408ed0ff       1111 	movhi	hi(-3145728),zero,r17
0000036c d191           1112 	add	r17,r18
0000036e 0788           1113 	mov	r7,r17
00000370 c48a           1114 	shl	4,r17
00000372 11f0           1115 	mov	r17,ep
00000374 d2f1           1116 	add	r18,ep
00000376 098effff       1117 	addi	-1,r9,r17
0000037a 0095           1118 	sld.w	0[ep],r18
0000037c f197d090       1119 	bins	r17,0,10,r18
00000380 0195           1120 	sst.w	r18,0[ep]
                        1121 --504: 			CFDCnNCFG(UnitIndex, ChannelIndex).BIT.NTSEG1 = Tseg1 - 1;
00000382 0690           1122 	mov	r6,r18
00000384 cf92           1123 	shl	15,r18
00000386 408ed0ff       1124 	movhi	hi(-3145728),zero,r17
0000038a d191           1125 	add	r17,r18
0000038c 0788           1126 	mov	r7,r17
0000038e c48a           1127 	shl	4,r17
00000390 11f0           1128 	mov	r17,ep
00000392 d2f1           1129 	add	r18,ep
00000394 0196ffff       1130 	addi	-1,r1,r18
00000398 000d           1131 	sld.w	0[ep],r1
0000039a f20f9060       1132 	bins	r18,16,7,r1
0000039e 010d           1133 	sst.w	r1,0[ep]
                        1134 --505: 			CFDCnNCFG(UnitIndex, ChannelIndex).BIT.NTSEG2 = Tseg2 - 1;
000003a0 0608           1135 	mov	r6,r1
000003a2 cf0a           1136 	shl	15,r1
000003a4 4096d0ff       1137 	movhi	hi(-3145728),zero,r18
000003a8 d209           1138 	add	r18,r1
000003aa 0790           1139 	mov	r7,r18
000003ac c492           1140 	shl	4,r18
000003ae 12f0           1141 	mov	r18,ep
000003b0 c1f1           1142 	add	r1,ep
000003b2 0216ffff       1143 	addi	-1,r2,r2
000003b6 000d           1144 	sld.w	0[ep],r1
000003b8 e20f90c8       1145 	bins	r2,24,5,r1
000003bc 010d           1146 	sst.w	r1,0[ep]
                        1147 --506: 			CFDCnNCFG(UnitIndex, ChannelIndex).BIT.NSJW = Sjw - 1;
000003be 0608           1148 	mov	r6,r1
000003c0 cf0a           1149 	shl	15,r1

                                                                      Page 21
                                                              C:\Users\TIEZHU~1\AppData\Local\Temp\gh_000076o1.si
000003c2 4016d0ff       1150 	movhi	hi(-3145728),zero,r2
000003c6 c209           1151 	add	r2,r1
000003c8 0710           1152 	mov	r7,r2
000003ca c412           1153 	shl	4,r2
000003cc 02f0           1154 	mov	r2,ep
000003ce c1f1           1155 	add	r1,ep
000003d0 1316ffff       1156 	addi	-1,r19,r2
000003d4 000d           1157 	sld.w	0[ep],r1
000003d6 e20fd6f8       1158 	bins	r2,11,5,r1
000003da 010d           1159 	sst.w	r1,0[ep]
000003dc b555*          1160 	br	.L563
                        1161 .L565:
                        1162 --507: 		}
                        1163 --508: 	}
                        1164 --510: 	else if (BitrateType == RSCFD_BITRATE_DATA)
                        1165 --line510
                        1166 ..lin.D.3A.5CCANFDGwMcuFirmRH850F1x.5Ccode.5CCANFDGwMcuFirmRH850F1x.5CCANFDGwMcuFirmRH850F1x.5Cprj.5CGHS.20MULTI.5CCAN.20Gateway.5Coutput.5Cobj.5Cpe1.5Crscanfd_drv.53::
                        1167 .LDWlin53:
000003de 6142           1168 	cmp	1,r8
000003e0 9a55*          1169 	bne	.L563
                        1170 --511: 	{
                        1171 --512: 		if (CFDGRMCFG(UnitIndex).BIT.RCMC == 1)
                        1172 --line512
                        1173 ..lin.D.3A.5CCANFDGwMcuFirmRH850F1x.5Ccode.5CCANFDGwMcuFirmRH850F1x.5CCANFDGwMcuFirmRH850F1x.5Cprj.5CGHS.20MULTI.5CCAN.20Gateway.5Coutput.5Cobj.5Cpe1.5Crscanfd_drv.54::
                        1174 .LDWlin54:
000003e2 0690           1175 	mov	r6,r18
000003e4 cf92           1176 	shl	15,r18
000003e6 408ed0ff       1177 	movhi	hi(-3145728),zero,r17
000003ea d191           1178 	add	r17,r18
000003ec 12f6fc04       1179 	addi	1276,r18,ep
000003f0 0095           1180 	sld.w	0[ep],r18
000003f2 d2960100       1181 	andi	1,r18,r18
000003f6 e091           1182 	cmp	zero,r18
000003f8 d245*          1183 	be	.L563
                        1184 --513: 		{
                        1185 --514: 			CFDCnDCFG(UnitIndex, ChannelIndex).BIT.DBRP = Brp - 1;
                        1186 --line514
                        1187 ..lin.D.3A.5CCANFDGwMcuFirmRH850F1x.5Ccode.5CCANFDGwMcuFirmRH850F1x.5CCANFDGwMcuFirmRH850F1x.5Cprj.5CGHS.20MULTI.5CCAN.20Gateway.5Coutput.5Cobj.5Cpe1.5Crscanfd_drv.55::
                        1188 .LDWlin55:
000003fa 0690           1189 	mov	r6,r18
000003fc cf92           1190 	shl	15,r18
000003fe 408ed0ff       1191 	movhi	hi(-3145728),zero,r17
00000402 d191           1192 	add	r17,r18
00000404 128e0005       1193 	addi	1280,r18,r17
00000408 0790           1194 	mov	r7,r18
0000040a c592           1195 	shl	5,r18
0000040c 12f0           1196 	mov	r18,ep
0000040e d1f1           1197 	add	r17,ep
00000410 098effff       1198 	addi	-1,r9,r17
00000414 0095           1199 	sld.w	0[ep],r18
00000416 f197d070       1200 	bins	r17,0,8,r18
0000041a 0195           1201 	sst.w	r18,0[ep]
                        1202 --515: 			CFDCnDCFG(UnitIndex, ChannelIndex).BIT.DTSEG1 = Tseg1 - 1;
0000041c 0690           1203 	mov	r6,r18
0000041e cf92           1204 	shl	15,r18
00000420 408ed0ff       1205 	movhi	hi(-3145728),zero,r17
00000424 d191           1206 	add	r17,r18
00000426 128e0005       1207 	addi	1280,r18,r17
0000042a 0790           1208 	mov	r7,r18
0000042c c592           1209 	shl	5,r18
0000042e 12f0           1210 	mov	r18,ep

                                                                      Page 22
                                                              C:\Users\TIEZHU~1\AppData\Local\Temp\gh_000076o1.si
00000430 d1f1           1211 	add	r17,ep
00000432 0196ffff       1212 	addi	-1,r1,r18
00000436 000d           1213 	sld.w	0[ep],r1
00000438 f20f9030       1214 	bins	r18,16,4,r1
0000043c 010d           1215 	sst.w	r1,0[ep]
                        1216 --516: 			CFDCnDCFG(UnitIndex, ChannelIndex).BIT.DTSEG2 = Tseg2 - 1;
0000043e 0608           1217 	mov	r6,r1
00000440 cf0a           1218 	shl	15,r1
00000442 4096d0ff       1219 	movhi	hi(-3145728),zero,r18
00000446 d209           1220 	add	r18,r1
00000448 01960005       1221 	addi	1280,r1,r18
0000044c 0708           1222 	mov	r7,r1
0000044e c50a           1223 	shl	5,r1
00000450 01f0           1224 	mov	r1,ep
00000452 d2f1           1225 	add	r18,ep
00000454 0216ffff       1226 	addi	-1,r2,r2
00000458 000d           1227 	sld.w	0[ep],r1
0000045a e20f9860       1228 	bins	r2,20,3,r1
0000045e 010d           1229 	sst.w	r1,0[ep]
                        1230 --517: 			CFDCnDCFG(UnitIndex, ChannelIndex).BIT.DSJW = Sjw - 1;
00000460 0608           1231 	mov	r6,r1
00000462 cf0a           1232 	shl	15,r1
00000464 4016d0ff       1233 	movhi	hi(-3145728),zero,r2
00000468 c209           1234 	add	r2,r1
0000046a 01160005       1235 	addi	1280,r1,r2
0000046e 0708           1236 	mov	r7,r1
00000470 c50a           1237 	shl	5,r1
00000472 01f0           1238 	mov	r1,ep
00000474 c2f1           1239 	add	r2,ep
00000476 1316ffff       1240 	addi	-1,r19,r2
0000047a 000d           1241 	sld.w	0[ep],r1
0000047c e20f90a8       1242 	bins	r2,24,3,r1
00000480 010d           1243 	sst.w	r1,0[ep]
                        1244 .L563:
                        1245 --518: 		}
                        1246 --519: 	}
                        1247 --520: } /* End of RSCFD_SetChannelBitrate() */
                        1248 --	    .ef
                        1249 .LDW23:
00000482 7f00           1250 	jmp	[lp]
                        1251 	.type	_RSCFD_SetChannelBitrate,@function
                        1252 	.size	_RSCFD_SetChannelBitrate,.-_RSCFD_SetChannelBitrate
                        1253 	.align	2
                        1254 .LDW33:
                        1255 
                        1256 --_UnitIndex	r6	param
                        1257 --_ChannelIndex	r7	param
                        1258 --_BitrateType	r8	param
                        1259 --_Brp	r9	param
                        1260 --_Tseg1	r1	param
                        1261 --_Tseg2	r2	param
                        1262 --_Sjw	r19	param
                        1263 
                        1264 	.data
                        1265 	.text
                        1266 
                        1267 
                        1268 --522: /***********************************************************************************************************************
                        1269 --523:  * Function Name: RSCFD_SetChannelTDC
                        1270 --524:  * Description  : set Transceiver Delay Compensation
                        1271 --525:  * Arguments    : UnitIndex -

                                                                      Page 23
                                                              C:\Users\TIEZHU~1\AppData\Local\Temp\gh_000076o1.si
                        1272 --526:  *              :   specified unit
                        1273 --527:  *              : ChannelIndex -
                        1274 --528:  *              :   specified channel
                        1275 --529:  *              : Enable -
                        1276 --530:  *              :   enable or disable transceiver delay compensation
                        1277 --531:  *              : TdcMode -
                        1278 --532:  *              :   TDC offset setting
                        1279 --533:  *              : TdcOffset -
                        1280 --534:  *              :   TDC offset setting
                        1281 --535:  * Return Value : none
                        1282 --536:  ***********************************************************************************************************************/
                        1283 --537: void RSCFD_SetChannelTDC(RSCFD_U8 UnitIndex, RSCFD_U8 ChannelIndex, RSCFD_BOOL Enable, RSCFD_TDCMode TdcMode,
                        1284 	.align	2
                        1285 	.align	2
                        1286 	.global	_RSCFD_SetChannelTDC
                        1287 _RSCFD_SetChannelTDC:
00000484 8600           1288 	zxb	r6
00000486 8700           1289 	zxb	r7
00000488 8800           1290 	zxb	r8
0000048a 83170100       1291 	ld.bu	0[sp],r2
                        1292 --	    .bf
                        1293 .LDW43:
                        1294 --538:                          RSCFD_U8 TdcOffset)
                        1295 --539: {
                        1296 --540: 	if (CFDGRMCFG(UnitIndex).BIT.RCMC == 1)
0000048e 0608           1297 	mov	r6,r1
00000490 cf0a           1298 	shl	15,r1
00000492 409ed0ff       1299 	movhi	hi(-3145728),zero,r19
00000496 d309           1300 	add	r19,r1
00000498 01f6fc04       1301 	addi	1276,r1,ep
0000049c 000d           1302 	sld.w	0[ep],r1
0000049e c10e0100       1303 	andi	1,r1,r1
000004a2 e009           1304 	cmp	zero,r1
000004a4 8235*          1305 	be	.L625
                        1306 --541: 	{
                        1307 --542: 		CFDCnCFG(UnitIndex, ChannelIndex).BIT.TDCE = Enable;
                        1308 --line542
                        1309 ..lin.D.3A.5CCANFDGwMcuFirmRH850F1x.5Ccode.5CCANFDGwMcuFirmRH850F1x.5CCANFDGwMcuFirmRH850F1x.5Cprj.5CGHS.20MULTI.5CCAN.20Gateway.5Coutput.5Cobj.5Cpe1.5Crscanfd_drv.56::
                        1310 .LDWlin56:
000004a6 0608           1311 	mov	r6,r1
000004a8 cf0a           1312 	shl	15,r1
000004aa 409ed0ff       1313 	movhi	hi(-3145728),zero,r19
000004ae d309           1314 	add	r19,r1
000004b0 019e0405       1315 	addi	1284,r1,r19
000004b4 0708           1316 	mov	r7,r1
000004b6 c50a           1317 	shl	5,r1
000004b8 01f0           1318 	mov	r1,ep
000004ba d3f1           1319 	add	r19,ep
000004bc 000d           1320 	sld.w	0[ep],r1
000004be e80fd298       1321 	bins	r8,9,1,r1
000004c2 010d           1322 	sst.w	r1,0[ep]
                        1323 --543: 		CFDCnCFG(UnitIndex, ChannelIndex).BIT.TDCOC = TdcMode;
000004c4 0608           1324 	mov	r6,r1
000004c6 cf0a           1325 	shl	15,r1
000004c8 409ed0ff       1326 	movhi	hi(-3145728),zero,r19
000004cc d309           1327 	add	r19,r1
000004ce 019e0405       1328 	addi	1284,r1,r19
000004d2 0708           1329 	mov	r7,r1
000004d4 c50a           1330 	shl	5,r1
000004d6 01f0           1331 	mov	r1,ep
000004d8 d3f1           1332 	add	r19,ep

                                                                      Page 24
                                                              C:\Users\TIEZHU~1\AppData\Local\Temp\gh_000076o1.si
000004da 000d           1333 	sld.w	0[ep],r1
000004dc e90fd088       1334 	bins	r9,8,1,r1
000004e0 010d           1335 	sst.w	r1,0[ep]
                        1336 --544: 		CFDCnCFG(UnitIndex, ChannelIndex).BIT.DTDCO = TdcOffset - 1;
000004e2 0608           1337 	mov	r6,r1
000004e4 cf0a           1338 	shl	15,r1
000004e6 409ed0ff       1339 	movhi	hi(-3145728),zero,r19
000004ea d309           1340 	add	r19,r1
000004ec 019e0405       1341 	addi	1284,r1,r19
000004f0 0708           1342 	mov	r7,r1
000004f2 c50a           1343 	shl	5,r1
000004f4 01f0           1344 	mov	r1,ep
000004f6 d3f1           1345 	add	r19,ep
000004f8 0216ffff       1346 	addi	-1,r2,r2
000004fc 000d           1347 	sld.w	0[ep],r1
000004fe e20f9060       1348 	bins	r2,16,7,r1
00000502 010d           1349 	sst.w	r1,0[ep]
                        1350 .L625:
                        1351 --545: 	}
                        1352 --546: } /* End of RSCFD_SetChannelTDC() */
                        1353 --	    .ef
                        1354 .LDW53:
00000504 7f00           1355 	jmp	[lp]
                        1356 	.type	_RSCFD_SetChannelTDC,@function
                        1357 	.size	_RSCFD_SetChannelTDC,.-_RSCFD_SetChannelTDC
                        1358 	.align	2
                        1359 .LDW63:
                        1360 
                        1361 --_UnitIndex	r6	param
                        1362 --_ChannelIndex	r7	param
                        1363 --_Enable	r8	param
                        1364 --_TdcMode	r9	param
                        1365 --_TdcOffset	r2	param
                        1366 
                        1367 	.data
                        1368 	.text
                        1369 
                        1370 
                        1371 --548: /***********************************************************************************************************************
                        1372 --549:  * Function Name: RSCFD_SetChannelMultiGateway
                        1373 --550:  * Description  : set Transceiver Delay Compensation
                        1374 --551:  * Arguments    : UnitIndex -
                        1375 --552:  *              :   specified unit
                        1376 --553:  *              : ChannelIndex -
                        1377 --554:  *              :   specified channel
                        1378 --555:  *              : Enable -
                        1379 --556:  *              :   enable or disable multi-gateway
                        1380 --557:  *              : GwFDF -
                        1381 --558:  *              :   gateway frame is as classic or CAN-FD frame
                        1382 --559:  *              : GwBRS -
                        1383 --560:  *              :   BRS bit setting
                        1384 --561:  * Return Value : none
                        1385 --562:  ***********************************************************************************************************************/
                        1386 --563: void RSCFD_SetChannelMultiGateway(RSCFD_U8 UnitIndex, RSCFD_U8 ChannelIndex, RSCFD_BOOL Enable, RSCFD_BOOL GwFDF,
                        1387 	.align	2
                        1388 	.align	2
                        1389 	.global	_RSCFD_SetChannelMultiGateway
                        1390 _RSCFD_SetChannelMultiGateway:
00000506 8600           1391 	zxb	r6
00000508 8700           1392 	zxb	r7
0000050a 8800           1393 	zxb	r8

                                                                      Page 25
                                                              C:\Users\TIEZHU~1\AppData\Local\Temp\gh_000076o1.si
0000050c 8900           1394 	zxb	r9
0000050e 83170100       1395 	ld.bu	0[sp],r2
                        1396 --	    .bf
                        1397 .LDW73:
                        1398 --564:                                   RSCFD_BOOL GwBRS)
                        1399 --565: {
                        1400 --566: 	if (CFDGRMCFG(UnitIndex).BIT.RCMC == 1)
00000512 0608           1401 	mov	r6,r1
00000514 cf0a           1402 	shl	15,r1
00000516 409ed0ff       1403 	movhi	hi(-3145728),zero,r19
0000051a d309           1404 	add	r19,r1
0000051c 01f6fc04       1405 	addi	1276,r1,ep
00000520 000d           1406 	sld.w	0[ep],r1
00000522 c10e0100       1407 	andi	1,r1,r1
00000526 e009           1408 	cmp	zero,r1
00000528 e22d*          1409 	be	.L664
                        1410 --567: 	{
                        1411 --568: 		CFDCnCFG(UnitIndex, ChannelIndex).BIT.GWFDF = GwFDF;
                        1412 --line568
                        1413 ..lin.D.3A.5CCANFDGwMcuFirmRH850F1x.5Ccode.5CCANFDGwMcuFirmRH850F1x.5CCANFDGwMcuFirmRH850F1x.5Cprj.5CGHS.20MULTI.5CCAN.20Gateway.5Coutput.5Cobj.5Cpe1.5Crscanfd_drv.57::
                        1414 .LDWlin57:
0000052a 0608           1415 	mov	r6,r1
0000052c cf0a           1416 	shl	15,r1
0000052e 409ed0ff       1417 	movhi	hi(-3145728),zero,r19
00000532 d309           1418 	add	r19,r1
00000534 019e0405       1419 	addi	1284,r1,r19
00000538 0708           1420 	mov	r7,r1
0000053a c50a           1421 	shl	5,r1
0000053c 01f0           1422 	mov	r1,ep
0000053e d3f1           1423 	add	r19,ep
00000540 000d           1424 	sld.w	0[ep],r1
00000542 e90f9298       1425 	bins	r9,25,1,r1
00000546 010d           1426 	sst.w	r1,0[ep]
                        1427 --569: 		CFDCnCFG(UnitIndex, ChannelIndex).BIT.GWBRS = GwBRS;
00000548 0608           1428 	mov	r6,r1
0000054a cf0a           1429 	shl	15,r1
0000054c 409ed0ff       1430 	movhi	hi(-3145728),zero,r19
00000550 d309           1431 	add	r19,r1
00000552 019e0405       1432 	addi	1284,r1,r19
00000556 0708           1433 	mov	r7,r1
00000558 c50a           1434 	shl	5,r1
0000055a 01f0           1435 	mov	r1,ep
0000055c d3f1           1436 	add	r19,ep
0000055e 000d           1437 	sld.w	0[ep],r1
00000560 e20f94a8       1438 	bins	r2,26,1,r1
00000564 010d           1439 	sst.w	r1,0[ep]
                        1440 --570: 		CFDCnCFG(UnitIndex, ChannelIndex).BIT.GWEN = Enable;
00000566 0608           1441 	mov	r6,r1
00000568 cf0a           1442 	shl	15,r1
0000056a 4016d0ff       1443 	movhi	hi(-3145728),zero,r2
0000056e c209           1444 	add	r2,r1
00000570 01160405       1445 	addi	1284,r1,r2
00000574 0708           1446 	mov	r7,r1
00000576 c50a           1447 	shl	5,r1
00000578 01f0           1448 	mov	r1,ep
0000057a c2f1           1449 	add	r2,ep
0000057c 000d           1450 	sld.w	0[ep],r1
0000057e e80f9088       1451 	bins	r8,24,1,r1
00000582 010d           1452 	sst.w	r1,0[ep]
                        1453 .L664:
                        1454 --571: 	}

                                                                      Page 26
                                                              C:\Users\TIEZHU~1\AppData\Local\Temp\gh_000076o1.si
                        1455 --572: } /* End of RSCFD_SetChannelMultiGateway() */
                        1456 --	    .ef
                        1457 .LDW83:
00000584 7f00           1458 	jmp	[lp]
                        1459 	.type	_RSCFD_SetChannelMultiGateway,@function
                        1460 	.size	_RSCFD_SetChannelMultiGateway,.-_RSCFD_SetChannelMultiGateway
                        1461 	.align	2
                        1462 .LDW93:
                        1463 
                        1464 --_UnitIndex	r6	param
                        1465 --_ChannelIndex	r7	param
                        1466 --_Enable	r8	param
                        1467 --_GwFDF	r9	param
                        1468 --_GwBRS	r2	param
                        1469 
                        1470 	.data
                        1471 	.text
                        1472 
                        1473 
                        1474 --574: /***********************************************************************************************************************
                        1475 --575:  * Function Name: RSCFD_SwitchChannelMode
                        1476 --576:  * Description  : transfer to specified channel mode
                        1477 --577:  * Arguments    : UnitIndex -
                        1478 --578:  *              :   specified unit
                        1479 --579:  *              : ChannelIndex -
                        1480 --580:  *              :   specified channel
                        1481 --581:  *              : TargetMode -
                        1482 --582:  *              :   specified channel mode to be transferred
                        1483 --583:  * Return Value : none
                        1484 --584:  ***********************************************************************************************************************/
                        1485 --585: void RSCFD_SwitchChannelMode(RSCFD_U8 UnitIndex, RSCFD_U8 ChannelIndex, RSCFD_WorkMode TargetMode)
                        1486 	.align	2
                        1487 	.align	2
                        1488 	.global	_RSCFD_SwitchChannelMode
                        1489 _RSCFD_SwitchChannelMode:
00000586 501a           1490 	add	-16,sp
00000588 63ff0d00       1491 	st.w	lp,12[sp]
0000058c 63df0900       1492 	st.w	r27,8[sp]
00000590 63e70500       1493 	st.w	r28,4[sp]
00000594 63ef0100       1494 	st.w	r29,0[sp]
00000598 c6eeff00       1495 	andi	255,r6,r29
0000059c c7e6ff00       1496 	andi	255,r7,r28
000005a0 08d8           1497 	mov	r8,r27
                        1498 --	    .bf
                        1499 .LDW04:
                        1500 --586: {
                        1501 --587: 	/* -> RESET if needed */
                        1502 --588: 	if (TargetMode != RSCFD_MODE_SLEEP)
000005a2 e0d9           1503 	cmp	zero,r27
000005a4 f235*          1504 	be	.L698
                        1505 --589: 	{
                        1506 --590: 		if (CnSTS(UnitIndex, ChannelIndex).BIT.CSLPSTS)
                        1507 --line590
                        1508 ..lin.D.3A.5CCANFDGwMcuFirmRH850F1x.5Ccode.5CCANFDGwMcuFirmRH850F1x.5CCANFDGwMcuFirmRH850F1x.5Cprj.5CGHS.20MULTI.5CCAN.20Gateway.5Coutput.5Cobj.5Cpe1.5Crscanfd_drv.58::
                        1509 .LDWlin58:
000005a6 1d08           1510 	mov	r29,r1
000005a8 cf0a           1511 	shl	15,r1
000005aa 4016d0ff       1512 	movhi	hi(-3145728),zero,r2
000005ae c209           1513 	add	r2,r1
000005b0 01160800       1514 	addi	8,r1,r2
000005b4 1c08           1515 	mov	r28,r1

                                                                      Page 27
                                                              C:\Users\TIEZHU~1\AppData\Local\Temp\gh_000076o1.si
000005b6 c40a           1516 	shl	4,r1
000005b8 01f0           1517 	mov	r1,ep
000005ba c2f1           1518 	add	r2,ep
000005bc 000d           1519 	sld.w	0[ep],r1
000005be c10e0400       1520 	andi	4,r1,r1
000005c2 e009           1521 	cmp	zero,r1
000005c4 f225*          1522 	be	.L698
                        1523 --591: 		{
                        1524 --592: 			CnCTR(UnitIndex, ChannelIndex).BIT.CSLPR = 0;
                        1525 --line592
                        1526 ..lin.D.3A.5CCANFDGwMcuFirmRH850F1x.5Ccode.5CCANFDGwMcuFirmRH850F1x.5CCANFDGwMcuFirmRH850F1x.5Cprj.5CGHS.20MULTI.5CCAN.20Gateway.5Coutput.5Cobj.5Cpe1.5Crscanfd_drv.59::
                        1527 .LDWlin59:
000005c6 1d08           1528 	mov	r29,r1
000005c8 cf0a           1529 	shl	15,r1
000005ca 4016d0ff       1530 	movhi	hi(-3145728),zero,r2
000005ce c209           1531 	add	r2,r1
000005d0 01160400       1532 	addi	4,r1,r2
000005d4 1c08           1533 	mov	r28,r1
000005d6 c40a           1534 	shl	4,r1
000005d8 01f0           1535 	mov	r1,ep
000005da c2f1           1536 	add	r2,ep
000005dc 000d           1537 	sld.w	0[ep],r1
000005de 1b12           1538 	mov	-5,r2
000005e0 4209           1539 	and	r2,r1
000005e2 010d           1540 	sst.w	r1,0[ep]
                        1541 --593: 			User_StartTimeCount();
                        1542 	jarl	_User_StartTimeCount,lp
                        1542 <EXPANSION BEGIN>
                        1542 jarl22 _User_StartTimeCount , lp 
000005e4 80ff0000*      1542 <EXPANSION END>
                        1543 --594: 			while (CnSTS(UnitIndex, ChannelIndex).BIT.CSLPSTS)
                        1544 --line594
                        1545 ..lin.D.3A.5CCANFDGwMcuFirmRH850F1x.5Ccode.5CCANFDGwMcuFirmRH850F1x.5CCANFDGwMcuFirmRH850F1x.5Cprj.5CGHS.20MULTI.5CCAN.20Gateway.5Coutput.5Cobj.5Cpe1.5Crscanfd_drv.60::
                        1546 .LDWlin60:
000005e8 d505*          1547 	br	.L702
                        1548 .L704:
                        1549 --595: 			{
                        1550 --596: 				if (TRUE == User_IsTimeOut())
                        1551 --line596
                        1552 ..lin.D.3A.5CCANFDGwMcuFirmRH850F1x.5Ccode.5CCANFDGwMcuFirmRH850F1x.5CCANFDGwMcuFirmRH850F1x.5Cprj.5CGHS.20MULTI.5CCAN.20Gateway.5Coutput.5Cobj.5Cpe1.5Crscanfd_drv.61::
                        1553 .LDWlin61:
                        1554 	jarl	_User_IsTimeOut,lp
                        1554 <EXPANSION BEGIN>
                        1554 jarl22 _User_IsTimeOut , lp 
000005ea 80ff0000*      1554 <EXPANSION END>
000005ee 6152           1555 	cmp	1,r10
000005f0 9215*          1556 	be	.L698
                        1557 .L702:
                        1558 --597: 				{
                        1559 --598: 					/* exit if timeout */
                        1560 --599: 					break;
                        1561 --line594
                        1562 ..lin.D.3A.5CCANFDGwMcuFirmRH850F1x.5Ccode.5CCANFDGwMcuFirmRH850F1x.5CCANFDGwMcuFirmRH850F1x.5Cprj.5CGHS.20MULTI.5CCAN.20Gateway.5Coutput.5Cobj.5Cpe1.5Crscanfd_drv.62::
                        1563 .LDWlin62:
000005f2 1d08           1564 	mov	r29,r1
000005f4 cf0a           1565 	shl	15,r1
000005f6 4016d0ff       1566 	movhi	hi(-3145728),zero,r2
000005fa c209           1567 	add	r2,r1
000005fc 01160800       1568 	addi	8,r1,r2
00000600 1c08           1569 	mov	r28,r1
00000602 c40a           1570 	shl	4,r1

                                                                      Page 28
                                                              C:\Users\TIEZHU~1\AppData\Local\Temp\gh_000076o1.si
00000604 01f0           1571 	mov	r1,ep
00000606 c2f1           1572 	add	r2,ep
00000608 000d           1573 	sld.w	0[ep],r1
0000060a c10e0400       1574 	andi	4,r1,r1
0000060e e009           1575 	cmp	zero,r1
00000610 daed*          1576 	bne	.L704
                        1577 .L698:
                        1578 --600: 				}
                        1579 --601: 			}
                        1580 --602: 		}
                        1581 --603: 	}
                        1582 --605: 	switch (TargetMode)
                        1583 --line605
                        1584 ..lin.D.3A.5CCANFDGwMcuFirmRH850F1x.5Ccode.5CCANFDGwMcuFirmRH850F1x.5CCANFDGwMcuFirmRH850F1x.5Cprj.5CGHS.20MULTI.5CCAN.20Gateway.5Coutput.5Cobj.5Cpe1.5Crscanfd_drv.63::
                        1585 .LDWlin63:
00000612 1b08           1586 	mov	r27,r1
00000614 610a           1587 	cmp	1,r1
00000616 910d*          1588 	bl	.L711
00000618 e2074f01*      1589 	be	.L743
0000061c 630a           1590 	cmp	3,r1
0000061e e165*          1591 	bl	.L728
00000620 e2079701*      1592 	be	.L751
00000624 8007e001*      1593 	br	.L696
                        1594 .L711:
                        1595 --606: 	{
                        1596 --607: 		case RSCFD_MODE_SLEEP:
                        1597 --608: 			if (!CnSTS(UnitIndex, ChannelIndex).BIT.CSLPSTS)
                        1598 --line608
                        1599 ..lin.D.3A.5CCANFDGwMcuFirmRH850F1x.5Ccode.5CCANFDGwMcuFirmRH850F1x.5CCANFDGwMcuFirmRH850F1x.5Cprj.5CGHS.20MULTI.5CCAN.20Gateway.5Coutput.5Cobj.5Cpe1.5Crscanfd_drv.64::
                        1600 .LDWlin64:
00000628 1d08           1601 	mov	r29,r1
0000062a cf0a           1602 	shl	15,r1
0000062c 4016d0ff       1603 	movhi	hi(-3145728),zero,r2
00000630 c209           1604 	add	r2,r1
00000632 01160800       1605 	addi	8,r1,r2
00000636 1c08           1606 	mov	r28,r1
00000638 c40a           1607 	shl	4,r1
0000063a 01f0           1608 	mov	r1,ep
0000063c c2f1           1609 	add	r2,ep
0000063e 000d           1610 	sld.w	0[ep],r1
00000640 c10e0400       1611 	andi	4,r1,r1
00000644 e009           1612 	cmp	zero,r1
00000646 ea07bf01*      1613 	bne	.L696
                        1614 --609: 			{
                        1615 --610: 				/* -> RESET  */
                        1616 --611: 				CnCTR(UnitIndex, ChannelIndex).BIT.CHMDC = 1;
                        1617 --line611
                        1618 ..lin.D.3A.5CCANFDGwMcuFirmRH850F1x.5Ccode.5CCANFDGwMcuFirmRH850F1x.5CCANFDGwMcuFirmRH850F1x.5Cprj.5CGHS.20MULTI.5CCAN.20Gateway.5Coutput.5Cobj.5Cpe1.5Crscanfd_drv.65::
                        1619 .LDWlin65:
0000064a 1d08           1620 	mov	r29,r1
0000064c cf0a           1621 	shl	15,r1
0000064e 4016d0ff       1622 	movhi	hi(-3145728),zero,r2
00000652 c209           1623 	add	r2,r1
00000654 01160400       1624 	addi	4,r1,r2
00000658 1c08           1625 	mov	r28,r1
0000065a c40a           1626 	shl	4,r1
0000065c 01f0           1627 	mov	r1,ep
0000065e c2f1           1628 	add	r2,ep
00000660 000d           1629 	sld.w	0[ep],r1
00000662 0112           1630 	mov	1,r2
00000664 e20fd010       1631 	bins	r2,0,2,r1

                                                                      Page 29
                                                              C:\Users\TIEZHU~1\AppData\Local\Temp\gh_000076o1.si
00000668 010d           1632 	sst.w	r1,0[ep]
                        1633 --612: 				User_StartTimeCount();
                        1634 	jarl	_User_StartTimeCount,lp
                        1634 <EXPANSION BEGIN>
                        1634 jarl22 _User_StartTimeCount , lp 
0000066a 80ff0000*      1634 <EXPANSION END>
                        1635 --613: 				while (!CnSTS(UnitIndex, ChannelIndex).BIT.CRSTSTS)
                        1636 --line613
                        1637 ..lin.D.3A.5CCANFDGwMcuFirmRH850F1x.5Ccode.5CCANFDGwMcuFirmRH850F1x.5CCANFDGwMcuFirmRH850F1x.5Cprj.5CGHS.20MULTI.5CCAN.20Gateway.5Coutput.5Cobj.5Cpe1.5Crscanfd_drv.66::
                        1638 .LDWlin66:
0000066e d505*          1639 	br	.L714
                        1640 .L716:
                        1641 --614: 				{
                        1642 --615: 					if (TRUE == User_IsTimeOut())
                        1643 --line615
                        1644 ..lin.D.3A.5CCANFDGwMcuFirmRH850F1x.5Ccode.5CCANFDGwMcuFirmRH850F1x.5CCANFDGwMcuFirmRH850F1x.5Cprj.5CGHS.20MULTI.5CCAN.20Gateway.5Coutput.5Cobj.5Cpe1.5Crscanfd_drv.67::
                        1645 .LDWlin67:
                        1646 	jarl	_User_IsTimeOut,lp
                        1646 <EXPANSION BEGIN>
                        1646 jarl22 _User_IsTimeOut , lp 
00000670 80ff0000*      1646 <EXPANSION END>
00000674 6152           1647 	cmp	1,r10
00000676 9215*          1648 	be	.L719
                        1649 .L714:
                        1650 --616: 					{
                        1651 --617: 						/* exit if timeout */
                        1652 --618: 						break;
                        1653 --line613
                        1654 ..lin.D.3A.5CCANFDGwMcuFirmRH850F1x.5Ccode.5CCANFDGwMcuFirmRH850F1x.5CCANFDGwMcuFirmRH850F1x.5Cprj.5CGHS.20MULTI.5CCAN.20Gateway.5Coutput.5Cobj.5Cpe1.5Crscanfd_drv.68::
                        1655 .LDWlin68:
00000678 1d08           1656 	mov	r29,r1
0000067a cf0a           1657 	shl	15,r1
0000067c 4016d0ff       1658 	movhi	hi(-3145728),zero,r2
00000680 c209           1659 	add	r2,r1
00000682 01160800       1660 	addi	8,r1,r2
00000686 1c08           1661 	mov	r28,r1
00000688 c40a           1662 	shl	4,r1
0000068a 01f0           1663 	mov	r1,ep
0000068c c2f1           1664 	add	r2,ep
0000068e 000d           1665 	sld.w	0[ep],r1
00000690 c10e0100       1666 	andi	1,r1,r1
00000694 e009           1667 	cmp	zero,r1
00000696 d2ed*          1668 	be	.L716
                        1669 .L719:
                        1670 --619: 					}
                        1671 --620: 				}
                        1672 --621: 				/* -> SLEEP */
                        1673 --622: 				CnCTR(UnitIndex, ChannelIndex).BIT.CSLPR = 1;
                        1674 --line622
                        1675 ..lin.D.3A.5CCANFDGwMcuFirmRH850F1x.5Ccode.5CCANFDGwMcuFirmRH850F1x.5CCANFDGwMcuFirmRH850F1x.5Cprj.5CGHS.20MULTI.5CCAN.20Gateway.5Coutput.5Cobj.5Cpe1.5Crscanfd_drv.69::
                        1676 .LDWlin69:
00000698 1d08           1677 	mov	r29,r1
0000069a cf0a           1678 	shl	15,r1
0000069c 4016d0ff       1679 	movhi	hi(-3145728),zero,r2
000006a0 c209           1680 	add	r2,r1
000006a2 01160400       1681 	addi	4,r1,r2
000006a6 1c08           1682 	mov	r28,r1
000006a8 c40a           1683 	shl	4,r1
000006aa 01f0           1684 	mov	r1,ep
000006ac c2f1           1685 	add	r2,ep
000006ae 000d           1686 	sld.w	0[ep],r1

                                                                      Page 30
                                                              C:\Users\TIEZHU~1\AppData\Local\Temp\gh_000076o1.si
000006b0 810e0400       1687 	ori	4,r1,r1
000006b4 010d           1688 	sst.w	r1,0[ep]
                        1689 --623: 				User_StartTimeCount();
                        1690 	jarl	_User_StartTimeCount,lp
                        1690 <EXPANSION BEGIN>
                        1690 jarl22 _User_StartTimeCount , lp 
000006b6 80ff0000*      1690 <EXPANSION END>
                        1691 --624: 				while (!CnSTS(UnitIndex, ChannelIndex).BIT.CSLPSTS)
                        1692 --line624
                        1693 ..lin.D.3A.5CCANFDGwMcuFirmRH850F1x.5Ccode.5CCANFDGwMcuFirmRH850F1x.5CCANFDGwMcuFirmRH850F1x.5Cprj.5CGHS.20MULTI.5CCAN.20Gateway.5Coutput.5Cobj.5Cpe1.5Crscanfd_drv.70::
                        1694 .LDWlin70:
000006ba e505*          1695 	br	.L721
                        1696 .L723:
                        1697 --625: 				{
                        1698 --626: 					if (TRUE == User_IsTimeOut())
                        1699 --line626
                        1700 ..lin.D.3A.5CCANFDGwMcuFirmRH850F1x.5Ccode.5CCANFDGwMcuFirmRH850F1x.5CCANFDGwMcuFirmRH850F1x.5Cprj.5CGHS.20MULTI.5CCAN.20Gateway.5Coutput.5Cobj.5Cpe1.5Crscanfd_drv.71::
                        1701 .LDWlin71:
                        1702 	jarl	_User_IsTimeOut,lp
                        1702 <EXPANSION BEGIN>
                        1702 jarl22 _User_IsTimeOut , lp 
000006bc 80ff0000*      1702 <EXPANSION END>
000006c0 6152           1703 	cmp	1,r10
000006c2 e2074301*      1704 	be	.L696
                        1705 .L721:
                        1706 --627: 					{
                        1707 --628: 						/* exit if timeout */
                        1708 --629: 						break;
                        1709 --line624
                        1710 ..lin.D.3A.5CCANFDGwMcuFirmRH850F1x.5Ccode.5CCANFDGwMcuFirmRH850F1x.5CCANFDGwMcuFirmRH850F1x.5Cprj.5CGHS.20MULTI.5CCAN.20Gateway.5Coutput.5Cobj.5Cpe1.5Crscanfd_drv.72::
                        1711 .LDWlin72:
000006c6 1d08           1712 	mov	r29,r1
000006c8 cf0a           1713 	shl	15,r1
000006ca 4016d0ff       1714 	movhi	hi(-3145728),zero,r2
000006ce c209           1715 	add	r2,r1
000006d0 01160800       1716 	addi	8,r1,r2
000006d4 1c08           1717 	mov	r28,r1
000006d6 c40a           1718 	shl	4,r1
000006d8 01f0           1719 	mov	r1,ep
000006da c2f1           1720 	add	r2,ep
000006dc 000d           1721 	sld.w	0[ep],r1
000006de c10e0400       1722 	andi	4,r1,r1
000006e2 e009           1723 	cmp	zero,r1
000006e4 c2ed*          1724 	be	.L723
000006e6 80071e01*      1725 	br	.L696
                        1726 .L728:
                        1727 --630: 					}
                        1728 --631: 				}
                        1729 --632: 			}
                        1730 --633: 			break;
                        1731 --635: 		case RSCFD_MODE_OPERATION:
                        1732 --636: 			CnCTR(UnitIndex, ChannelIndex).BIT.CHMDC = 0;
                        1733 --line636
                        1734 ..lin.D.3A.5CCANFDGwMcuFirmRH850F1x.5Ccode.5CCANFDGwMcuFirmRH850F1x.5CCANFDGwMcuFirmRH850F1x.5Cprj.5CGHS.20MULTI.5CCAN.20Gateway.5Coutput.5Cobj.5Cpe1.5Crscanfd_drv.73::
                        1735 .LDWlin73:
000006ea 1d08           1736 	mov	r29,r1
000006ec cf0a           1737 	shl	15,r1
000006ee 4016d0ff       1738 	movhi	hi(-3145728),zero,r2
000006f2 c209           1739 	add	r2,r1
000006f4 01160400       1740 	addi	4,r1,r2
000006f8 1c08           1741 	mov	r28,r1

                                                                      Page 31
                                                              C:\Users\TIEZHU~1\AppData\Local\Temp\gh_000076o1.si
000006fa c40a           1742 	shl	4,r1
000006fc 01f0           1743 	mov	r1,ep
000006fe c2f1           1744 	add	r2,ep
00000700 000d           1745 	sld.w	0[ep],r1
00000702 1c12           1746 	mov	-4,r2
00000704 4209           1747 	and	r2,r1
00000706 010d           1748 	sst.w	r1,0[ep]
                        1749 --637: 			User_StartTimeCount();
                        1750 	jarl	_User_StartTimeCount,lp
                        1750 <EXPANSION BEGIN>
                        1750 jarl22 _User_StartTimeCount , lp 
00000708 80ff0000*      1750 <EXPANSION END>
                        1751 --638: 			while (CnSTS(UnitIndex, ChannelIndex).BIT.CHLTSTS)
                        1752 --line638
                        1753 ..lin.D.3A.5CCANFDGwMcuFirmRH850F1x.5Ccode.5CCANFDGwMcuFirmRH850F1x.5CCANFDGwMcuFirmRH850F1x.5Cprj.5CGHS.20MULTI.5CCAN.20Gateway.5Coutput.5Cobj.5Cpe1.5Crscanfd_drv.74::
                        1754 .LDWlin74:
0000070c d505*          1755 	br	.L729
                        1756 .L731:
                        1757 --639: 			{
                        1758 --640: 				if (TRUE == User_IsTimeOut())
                        1759 --line640
                        1760 ..lin.D.3A.5CCANFDGwMcuFirmRH850F1x.5Ccode.5CCANFDGwMcuFirmRH850F1x.5CCANFDGwMcuFirmRH850F1x.5Cprj.5CGHS.20MULTI.5CCAN.20Gateway.5Coutput.5Cobj.5Cpe1.5Crscanfd_drv.75::
                        1761 .LDWlin75:
                        1762 	jarl	_User_IsTimeOut,lp
                        1762 <EXPANSION BEGIN>
                        1762 jarl22 _User_IsTimeOut , lp 
0000070e 80ff0000*      1762 <EXPANSION END>
00000712 6152           1763 	cmp	1,r10
00000714 9215*          1764 	be	.L734
                        1765 .L729:
                        1766 --641: 				{
                        1767 --642: 					/* exit if timeout */
                        1768 --643: 					break;
                        1769 --line638
                        1770 ..lin.D.3A.5CCANFDGwMcuFirmRH850F1x.5Ccode.5CCANFDGwMcuFirmRH850F1x.5CCANFDGwMcuFirmRH850F1x.5Cprj.5CGHS.20MULTI.5CCAN.20Gateway.5Coutput.5Cobj.5Cpe1.5Crscanfd_drv.76::
                        1771 .LDWlin76:
00000716 1d08           1772 	mov	r29,r1
00000718 cf0a           1773 	shl	15,r1
0000071a 4016d0ff       1774 	movhi	hi(-3145728),zero,r2
0000071e c209           1775 	add	r2,r1
00000720 01160800       1776 	addi	8,r1,r2
00000724 1c08           1777 	mov	r28,r1
00000726 c40a           1778 	shl	4,r1
00000728 01f0           1779 	mov	r1,ep
0000072a c2f1           1780 	add	r2,ep
0000072c 000d           1781 	sld.w	0[ep],r1
0000072e c10e0200       1782 	andi	2,r1,r1
00000732 e009           1783 	cmp	zero,r1
00000734 daed*          1784 	bne	.L731
                        1785 .L734:
                        1786 --644: 				}
                        1787 --645: 			}
                        1788 --646: 			User_StartTimeCount();
                        1789 --line646
                        1790 ..lin.D.3A.5CCANFDGwMcuFirmRH850F1x.5Ccode.5CCANFDGwMcuFirmRH850F1x.5CCANFDGwMcuFirmRH850F1x.5Cprj.5CGHS.20MULTI.5CCAN.20Gateway.5Coutput.5Cobj.5Cpe1.5Crscanfd_drv.77::
                        1791 .LDWlin77:
                        1792 	jarl	_User_StartTimeCount,lp
                        1792 <EXPANSION BEGIN>
                        1792 jarl22 _User_StartTimeCount , lp 
00000736 80ff0000*      1792 <EXPANSION END>
                        1793 --647: 			while (CnSTS(UnitIndex, ChannelIndex).BIT.CRSTSTS)

                                                                      Page 32
                                                              C:\Users\TIEZHU~1\AppData\Local\Temp\gh_000076o1.si
                        1794 --line647
                        1795 ..lin.D.3A.5CCANFDGwMcuFirmRH850F1x.5Ccode.5CCANFDGwMcuFirmRH850F1x.5CCANFDGwMcuFirmRH850F1x.5Cprj.5CGHS.20MULTI.5CCAN.20Gateway.5Coutput.5Cobj.5Cpe1.5Crscanfd_drv.78::
                        1796 .LDWlin78:
0000073a d505*          1797 	br	.L736
                        1798 .L738:
                        1799 --648: 			{
                        1800 --649: 				if (TRUE == User_IsTimeOut())
                        1801 --line649
                        1802 ..lin.D.3A.5CCANFDGwMcuFirmRH850F1x.5Ccode.5CCANFDGwMcuFirmRH850F1x.5CCANFDGwMcuFirmRH850F1x.5Cprj.5CGHS.20MULTI.5CCAN.20Gateway.5Coutput.5Cobj.5Cpe1.5Crscanfd_drv.79::
                        1803 .LDWlin79:
                        1804 	jarl	_User_IsTimeOut,lp
                        1804 <EXPANSION BEGIN>
                        1804 jarl22 _User_IsTimeOut , lp 
0000073c 80ff0000*      1804 <EXPANSION END>
00000740 6152           1805 	cmp	1,r10
00000742 9265*          1806 	be	.L696
                        1807 .L736:
                        1808 --650: 				{
                        1809 --651: 					/* exit if timeout */
                        1810 --652: 					break;
                        1811 --line647
                        1812 ..lin.D.3A.5CCANFDGwMcuFirmRH850F1x.5Ccode.5CCANFDGwMcuFirmRH850F1x.5CCANFDGwMcuFirmRH850F1x.5Cprj.5CGHS.20MULTI.5CCAN.20Gateway.5Coutput.5Cobj.5Cpe1.5Crscanfd_drv.80::
                        1813 .LDWlin80:
00000744 1d08           1814 	mov	r29,r1
00000746 cf0a           1815 	shl	15,r1
00000748 4016d0ff       1816 	movhi	hi(-3145728),zero,r2
0000074c c209           1817 	add	r2,r1
0000074e 01160800       1818 	addi	8,r1,r2
00000752 1c08           1819 	mov	r28,r1
00000754 c40a           1820 	shl	4,r1
00000756 01f0           1821 	mov	r1,ep
00000758 c2f1           1822 	add	r2,ep
0000075a 000d           1823 	sld.w	0[ep],r1
0000075c c10e0100       1824 	andi	1,r1,r1
00000760 e009           1825 	cmp	zero,r1
00000762 daed*          1826 	bne	.L738
00000764 8555*          1827 	br	.L696
                        1828 .L743:
                        1829 --653: 				}
                        1830 --654: 			}
                        1831 --655: 			break;
                        1832 --657: 		case RSCFD_MODE_RESET:
                        1833 --658: 			CnCTR(UnitIndex, ChannelIndex).BIT.CHMDC = 1;
                        1834 --line658
                        1835 ..lin.D.3A.5CCANFDGwMcuFirmRH850F1x.5Ccode.5CCANFDGwMcuFirmRH850F1x.5CCANFDGwMcuFirmRH850F1x.5Cprj.5CGHS.20MULTI.5CCAN.20Gateway.5Coutput.5Cobj.5Cpe1.5Crscanfd_drv.81::
                        1836 .LDWlin81:
00000766 1d08           1837 	mov	r29,r1
00000768 cf0a           1838 	shl	15,r1
0000076a 4016d0ff       1839 	movhi	hi(-3145728),zero,r2
0000076e c209           1840 	add	r2,r1
00000770 01160400       1841 	addi	4,r1,r2
00000774 1c08           1842 	mov	r28,r1
00000776 c40a           1843 	shl	4,r1
00000778 01f0           1844 	mov	r1,ep
0000077a c2f1           1845 	add	r2,ep
0000077c 000d           1846 	sld.w	0[ep],r1
0000077e 0112           1847 	mov	1,r2
00000780 e20fd010       1848 	bins	r2,0,2,r1
00000784 010d           1849 	sst.w	r1,0[ep]
                        1850 --659: 			User_StartTimeCount();
                        1851 	jarl	_User_StartTimeCount,lp

                                                                      Page 33
                                                              C:\Users\TIEZHU~1\AppData\Local\Temp\gh_000076o1.si
                        1851 <EXPANSION BEGIN>
                        1851 jarl22 _User_StartTimeCount , lp 
00000786 80ff0000*      1851 <EXPANSION END>
                        1852 --660: 			while (!CnSTS(UnitIndex, ChannelIndex).BIT.CRSTSTS)
                        1853 --line660
                        1854 ..lin.D.3A.5CCANFDGwMcuFirmRH850F1x.5Ccode.5CCANFDGwMcuFirmRH850F1x.5CCANFDGwMcuFirmRH850F1x.5Cprj.5CGHS.20MULTI.5CCAN.20Gateway.5Coutput.5Cobj.5Cpe1.5Crscanfd_drv.82::
                        1855 .LDWlin82:
0000078a d505*          1856 	br	.L744
                        1857 .L746:
                        1858 --661: 			{
                        1859 --662: 				if (TRUE == User_IsTimeOut())
                        1860 --line662
                        1861 ..lin.D.3A.5CCANFDGwMcuFirmRH850F1x.5Ccode.5CCANFDGwMcuFirmRH850F1x.5CCANFDGwMcuFirmRH850F1x.5Cprj.5CGHS.20MULTI.5CCAN.20Gateway.5Coutput.5Cobj.5Cpe1.5Crscanfd_drv.83::
                        1862 .LDWlin83:
                        1863 	jarl	_User_IsTimeOut,lp
                        1863 <EXPANSION BEGIN>
                        1863 jarl22 _User_IsTimeOut , lp 
0000078c 80ff0000*      1863 <EXPANSION END>
00000790 6152           1864 	cmp	1,r10
00000792 923d*          1865 	be	.L696
                        1866 .L744:
                        1867 --663: 				{
                        1868 --664: 					/* exit if timeout */
                        1869 --665: 					break;
                        1870 --line660
                        1871 ..lin.D.3A.5CCANFDGwMcuFirmRH850F1x.5Ccode.5CCANFDGwMcuFirmRH850F1x.5CCANFDGwMcuFirmRH850F1x.5Cprj.5CGHS.20MULTI.5CCAN.20Gateway.5Coutput.5Cobj.5Cpe1.5Crscanfd_drv.84::
                        1872 .LDWlin84:
00000794 1d08           1873 	mov	r29,r1
00000796 cf0a           1874 	shl	15,r1
00000798 4016d0ff       1875 	movhi	hi(-3145728),zero,r2
0000079c c209           1876 	add	r2,r1
0000079e 01160800       1877 	addi	8,r1,r2
000007a2 1c08           1878 	mov	r28,r1
000007a4 c40a           1879 	shl	4,r1
000007a6 01f0           1880 	mov	r1,ep
000007a8 c2f1           1881 	add	r2,ep
000007aa 000d           1882 	sld.w	0[ep],r1
000007ac c10e0100       1883 	andi	1,r1,r1
000007b0 e009           1884 	cmp	zero,r1
000007b2 d2ed*          1885 	be	.L746
000007b4 852d*          1886 	br	.L696
                        1887 .L751:
                        1888 --666: 				}
                        1889 --667: 			}
                        1890 --668: 			break;
                        1891 --670: 		case RSCFD_MODE_HALT:
                        1892 --671: 			CnCTR(UnitIndex, ChannelIndex).BIT.CHMDC = 2;
                        1893 --line671
                        1894 ..lin.D.3A.5CCANFDGwMcuFirmRH850F1x.5Ccode.5CCANFDGwMcuFirmRH850F1x.5CCANFDGwMcuFirmRH850F1x.5Cprj.5CGHS.20MULTI.5CCAN.20Gateway.5Coutput.5Cobj.5Cpe1.5Crscanfd_drv.85::
                        1895 .LDWlin85:
000007b6 1d08           1896 	mov	r29,r1
000007b8 cf0a           1897 	shl	15,r1
000007ba 4016d0ff       1898 	movhi	hi(-3145728),zero,r2
000007be c209           1899 	add	r2,r1
000007c0 01160400       1900 	addi	4,r1,r2
000007c4 1c08           1901 	mov	r28,r1
000007c6 c40a           1902 	shl	4,r1
000007c8 01f0           1903 	mov	r1,ep
000007ca c2f1           1904 	add	r2,ep
000007cc 000d           1905 	sld.w	0[ep],r1
000007ce 0212           1906 	mov	2,r2

                                                                      Page 34
                                                              C:\Users\TIEZHU~1\AppData\Local\Temp\gh_000076o1.si
000007d0 e20fd010       1907 	bins	r2,0,2,r1
000007d4 010d           1908 	sst.w	r1,0[ep]
                        1909 --672: 			User_StartTimeCount();
                        1910 	jarl	_User_StartTimeCount,lp
                        1910 <EXPANSION BEGIN>
                        1910 jarl22 _User_StartTimeCount , lp 
000007d6 80ff0000*      1910 <EXPANSION END>
                        1911 --673: 			while (!CnSTS(UnitIndex, ChannelIndex).BIT.CHLTSTS)
                        1912 --line673
                        1913 ..lin.D.3A.5CCANFDGwMcuFirmRH850F1x.5Ccode.5CCANFDGwMcuFirmRH850F1x.5CCANFDGwMcuFirmRH850F1x.5Cprj.5CGHS.20MULTI.5CCAN.20Gateway.5Coutput.5Cobj.5Cpe1.5Crscanfd_drv.86::
                        1914 .LDWlin86:
000007da d505*          1915 	br	.L752
                        1916 .L754:
                        1917 --674: 			{
                        1918 --675: 				if (TRUE == User_IsTimeOut())
                        1919 --line675
                        1920 ..lin.D.3A.5CCANFDGwMcuFirmRH850F1x.5Ccode.5CCANFDGwMcuFirmRH850F1x.5CCANFDGwMcuFirmRH850F1x.5Cprj.5CGHS.20MULTI.5CCAN.20Gateway.5Coutput.5Cobj.5Cpe1.5Crscanfd_drv.87::
                        1921 .LDWlin87:
                        1922 	jarl	_User_IsTimeOut,lp
                        1922 <EXPANSION BEGIN>
                        1922 jarl22 _User_IsTimeOut , lp 
000007dc 80ff0000*      1922 <EXPANSION END>
000007e0 6152           1923 	cmp	1,r10
000007e2 9215*          1924 	be	.L696
                        1925 .L752:
                        1926 --676: 				{
                        1927 --677: 					/* exit if timeout */
                        1928 --678: 					break;
                        1929 --line673
                        1930 ..lin.D.3A.5CCANFDGwMcuFirmRH850F1x.5Ccode.5CCANFDGwMcuFirmRH850F1x.5CCANFDGwMcuFirmRH850F1x.5Cprj.5CGHS.20MULTI.5CCAN.20Gateway.5Coutput.5Cobj.5Cpe1.5Crscanfd_drv.88::
                        1931 .LDWlin88:
000007e4 1d08           1932 	mov	r29,r1
000007e6 cf0a           1933 	shl	15,r1
000007e8 4016d0ff       1934 	movhi	hi(-3145728),zero,r2
000007ec c209           1935 	add	r2,r1
000007ee 01160800       1936 	addi	8,r1,r2
000007f2 1c08           1937 	mov	r28,r1
000007f4 c40a           1938 	shl	4,r1
000007f6 01f0           1939 	mov	r1,ep
000007f8 c2f1           1940 	add	r2,ep
000007fa 000d           1941 	sld.w	0[ep],r1
000007fc c10e0200       1942 	andi	2,r1,r1
00000800 e009           1943 	cmp	zero,r1
00000802 d2ed*          1944 	be	.L754
                        1945 .L696:
                        1946 --679: 				}
                        1947 --680: 			}
                        1948 --681: 			break;
                        1949 --683: 		default:
                        1950 --684: 			break;
                        1951 --685: 	}
                        1952 --686: } /* End of RSCFD_SwitchChannelMode() */
                        1953 --	    .ef
                        1954 .LDW14:
                        1955 --line686
                        1956 ..lin.D.3A.5CCANFDGwMcuFirmRH850F1x.5Ccode.5CCANFDGwMcuFirmRH850F1x.5CCANFDGwMcuFirmRH850F1x.5Cprj.5CGHS.20MULTI.5CCAN.20Gateway.5Coutput.5Cobj.5Cpe1.5Crscanfd_drv.89::
                        1957 .LDWlin89:
00000804 23ff0d00       1958 	ld.w	12[sp],lp
00000808 23ef0100       1959 	ld.w	0[sp],r29
0000080c 23e70500       1960 	ld.w	4[sp],r28
00000810 23df0900       1961 	ld.w	8[sp],r27

                                                                      Page 35
                                                              C:\Users\TIEZHU~1\AppData\Local\Temp\gh_000076o1.si
00000814 031e1000       1962 	addi	16,sp,sp
00000818 7f00           1963 	jmp	[lp]
                        1964 	.type	_RSCFD_SwitchChannelMode,@function
                        1965 	.size	_RSCFD_SwitchChannelMode,.-_RSCFD_SwitchChannelMode
                        1966 	.align	2
                        1967 .LDW24:
                        1968 
                        1969 --_UnitIndex	r29	param
                        1970 --_ChannelIndex	r28	param
                        1971 --_TargetMode	r27	param
                        1972 
                        1973 	.data
                        1974 	.text
                        1975 
                        1976 
                        1977 --688: /***********************************************************************************************************************
                        1978 --689:  * Function Name: RSCFD_SetChannelTestMode
                        1979 --690:  * Description  : set channel test mode
                        1980 --691:  * Arguments    : UnitIndex -
                        1981 --692:  *              :   specified unit
                        1982 --693:  *              : ChannelIndex -
                        1983 --694:  *              :   specified channel
                        1984 --695:  *              : TestMode -
                        1985 --696:  *              :   specified test mode
                        1986 --697:  *              : Enable -
                        1987 --698:  *              :   enable or disable channel test mode
                        1988 --699:  * Return Value : TRUE if set test mode successfully
                        1989 --700:  ***********************************************************************************************************************/
                        1990 --701: RSCFD_BOOL RSCFD_SetChannelTestMode(RSCFD_U8 UnitIndex, RSCFD_U8 ChannelIndex, RSCFD_TestMode TestMode,
                        1991 	.align	2
                        1992 	.align	2
                        1993 	.global	_RSCFD_SetChannelTestMode
                        1994 _RSCFD_SetChannelTestMode:
0000081a 8600           1995 	zxb	r6
0000081c 8700           1996 	zxb	r7
0000081e 8900           1997 	zxb	r9
                        1998 --	    .bf
                        1999 .LDW34:
                        2000 --702:                                     RSCFD_BOOL Enable)
                        2001 --703: {
                        2002 --704: 	RSCFD_BOOL bRes = RSCFD_FALSE;
00000820 0012           2003 	mov	0,r2
                        2004 --706: 	if (CnSTS(UnitIndex, ChannelIndex).BIT.CHLTSTS)
00000822 0608           2005 	mov	r6,r1
00000824 cf0a           2006 	shl	15,r1
00000826 409ed0ff       2007 	movhi	hi(-3145728),zero,r19
0000082a d309           2008 	add	r19,r1
0000082c 019e0800       2009 	addi	8,r1,r19
00000830 0708           2010 	mov	r7,r1
00000832 c40a           2011 	shl	4,r1
00000834 01f0           2012 	mov	r1,ep
00000836 d3f1           2013 	add	r19,ep
00000838 000d           2014 	sld.w	0[ep],r1
0000083a c10e0200       2015 	andi	2,r1,r1
0000083e e009           2016 	cmp	zero,r1
00000840 e25d*          2017 	be	.L970
                        2018 --707: 	{
                        2019 --708: 		if (TestMode == RSCFD_TEST_RESTRICTED_OPERATION)
                        2020 --line708
                        2021 ..lin.D.3A.5CCANFDGwMcuFirmRH850F1x.5Ccode.5CCANFDGwMcuFirmRH850F1x.5CCANFDGwMcuFirmRH850F1x.5Cprj.5CGHS.20MULTI.5CCAN.20Gateway.5Coutput.5Cobj.5Cpe1.5Crscanfd_drv.90::
                        2022 .LDWlin90:

                                                                      Page 36
                                                              C:\Users\TIEZHU~1\AppData\Local\Temp\gh_000076o1.si
00000842 6442           2023 	cmp	4,r8
00000844 da3d*          2024 	bne	.L972
                        2025 --709: 		{
                        2026 --710: 			if (CFDGRMCFG(UnitIndex).BIT.RCMC == 1U)
                        2027 --line710
                        2028 ..lin.D.3A.5CCANFDGwMcuFirmRH850F1x.5Ccode.5CCANFDGwMcuFirmRH850F1x.5CCANFDGwMcuFirmRH850F1x.5Cprj.5CGHS.20MULTI.5CCAN.20Gateway.5Coutput.5Cobj.5Cpe1.5Crscanfd_drv.91::
                        2029 .LDWlin91:
00000846 0608           2030 	mov	r6,r1
00000848 cf0a           2031 	shl	15,r1
0000084a 409ed0ff       2032 	movhi	hi(-3145728),zero,r19
0000084e d309           2033 	add	r19,r1
00000850 01f6fc04       2034 	addi	1276,r1,ep
00000854 000d           2035 	sld.w	0[ep],r1
00000856 c10e0100       2036 	andi	1,r1,r1
0000085a e009           2037 	cmp	zero,r1
0000085c 8255*          2038 	be	.L970
                        2039 --711: 			{
                        2040 --712: 				CFDCnCTR(UnitIndex, ChannelIndex).BIT.ROM = 1U;
                        2041 --line712
                        2042 ..lin.D.3A.5CCANFDGwMcuFirmRH850F1x.5Ccode.5CCANFDGwMcuFirmRH850F1x.5CCANFDGwMcuFirmRH850F1x.5Cprj.5CGHS.20MULTI.5CCAN.20Gateway.5Coutput.5Cobj.5Cpe1.5Crscanfd_drv.92::
                        2043 .LDWlin92:
0000085e 0608           2044 	mov	r6,r1
00000860 cf0a           2045 	shl	15,r1
00000862 4016d0ff       2046 	movhi	hi(-3145728),zero,r2
00000866 c209           2047 	add	r2,r1
00000868 01160400       2048 	addi	4,r1,r2
0000086c 0708           2049 	mov	r7,r1
0000086e c40a           2050 	shl	4,r1
00000870 01f0           2051 	mov	r1,ep
00000872 c2f1           2052 	add	r2,ep
00000874 000d           2053 	sld.w	0[ep],r1
00000876 40160080       2054 	movhi	hi(-2147483648),zero,r2
0000087a 0209           2055 	or	r2,r1
0000087c 010d           2056 	sst.w	r1,0[ep]
                        2057 --713: 				CFDCnCTR(UnitIndex, ChannelIndex).BIT.CTMS = 0U;
0000087e 0608           2058 	mov	r6,r1
00000880 cf0a           2059 	shl	15,r1
00000882 4016d0ff       2060 	movhi	hi(-3145728),zero,r2
00000886 c209           2061 	add	r2,r1
00000888 01160400       2062 	addi	4,r1,r2
0000088c 0708           2063 	mov	r7,r1
0000088e c40a           2064 	shl	4,r1
00000890 01f0           2065 	mov	r1,ep
00000892 c2f1           2066 	add	r2,ep
00000894 000d           2067 	sld.w	0[ep],r1
00000896 e00f92a8       2068 	bins	zero,25,2,r1
0000089a 010d           2069 	sst.w	r1,0[ep]
                        2070 --714: 				CFDCnCTR(UnitIndex, ChannelIndex).BIT.CTME = Enable;
0000089c 0608           2071 	mov	r6,r1
0000089e cf0a           2072 	shl	15,r1
000008a0 4016d0ff       2073 	movhi	hi(-3145728),zero,r2
000008a4 c209           2074 	add	r2,r1
000008a6 01160400       2075 	addi	4,r1,r2
000008aa 0708           2076 	mov	r7,r1
000008ac c40a           2077 	shl	4,r1
000008ae 01f0           2078 	mov	r1,ep
000008b0 c2f1           2079 	add	r2,ep
000008b2 000d           2080 	sld.w	0[ep],r1
000008b4 e90f9088       2081 	bins	r9,24,1,r1
000008b8 010d           2082 	sst.w	r1,0[ep]
                        2083 --715: 				bRes = RSCFD_TRUE;

                                                                      Page 37
                                                              C:\Users\TIEZHU~1\AppData\Local\Temp\gh_000076o1.si
000008ba 0112           2084 	mov	1,r2
000008bc 8525*          2085 	br	.L970
                        2086 .L972:
                        2087 --716: 			}
                        2088 --717: 		}
                        2089 --718: 		else
                        2090 --719: 		{
                        2091 --720: 			CnCTR(UnitIndex, ChannelIndex).BIT.CTMS = TestMode;
                        2092 --line720
                        2093 ..lin.D.3A.5CCANFDGwMcuFirmRH850F1x.5Ccode.5CCANFDGwMcuFirmRH850F1x.5CCANFDGwMcuFirmRH850F1x.5Cprj.5CGHS.20MULTI.5CCAN.20Gateway.5Coutput.5Cobj.5Cpe1.5Crscanfd_drv.93::
                        2094 .LDWlin93:
000008be 0608           2095 	mov	r6,r1
000008c0 cf0a           2096 	shl	15,r1
000008c2 4016d0ff       2097 	movhi	hi(-3145728),zero,r2
000008c6 c209           2098 	add	r2,r1
000008c8 01160400       2099 	addi	4,r1,r2
000008cc 0708           2100 	mov	r7,r1
000008ce c40a           2101 	shl	4,r1
000008d0 01f0           2102 	mov	r1,ep
000008d2 c2f1           2103 	add	r2,ep
000008d4 000d           2104 	sld.w	0[ep],r1
000008d6 e80f92a8       2105 	bins	r8,25,2,r1
000008da 010d           2106 	sst.w	r1,0[ep]
                        2107 --721: 			CnCTR(UnitIndex, ChannelIndex).BIT.CTME = Enable;
000008dc 0608           2108 	mov	r6,r1
000008de cf0a           2109 	shl	15,r1
000008e0 4016d0ff       2110 	movhi	hi(-3145728),zero,r2
000008e4 c209           2111 	add	r2,r1
000008e6 01160400       2112 	addi	4,r1,r2
000008ea 0708           2113 	mov	r7,r1
000008ec c40a           2114 	shl	4,r1
000008ee 01f0           2115 	mov	r1,ep
000008f0 c2f1           2116 	add	r2,ep
000008f2 000d           2117 	sld.w	0[ep],r1
000008f4 e90f9088       2118 	bins	r9,24,1,r1
000008f8 010d           2119 	sst.w	r1,0[ep]
                        2120 --722: 			bRes = RSCFD_TRUE;
000008fa 0112           2121 	mov	1,r2
                        2122 .L970:
                        2123 --723: 		}
                        2124 --724: 	}
                        2125 --726: 	return bRes;
000008fc 0250           2126 	mov	r2,r10
                        2127 --	    .ef
                        2128 .LDW44:
000008fe 7f00           2129 	jmp	[lp]
                        2130 	.type	_RSCFD_SetChannelTestMode,@function
                        2131 	.size	_RSCFD_SetChannelTestMode,.-_RSCFD_SetChannelTestMode
                        2132 	.align	2
                        2133 .LDW54:
                        2134 --_bRes	r2	local
                        2135 
                        2136 --_UnitIndex	r6	param
                        2137 --_ChannelIndex	r7	param
                        2138 --_TestMode	r8	param
                        2139 --_Enable	r9	param
                        2140 
                        2141 	.data
                        2142 	.text
                        2143 
                        2144 --727: } /* End of RSCFD_SetChannelTestMode() */

                                                                      Page 38
                                                              C:\Users\TIEZHU~1\AppData\Local\Temp\gh_000076o1.si
                        2145 
                        2146 --729: /***********************************************************************************************************************
                        2147 --730:  * Function Name: RSCFD_SetChannelTestMode
                        2148 --731:  * Description  : enable or disable channel interrupt
                        2149 --732:  * Arguments    : UnitIndex -
                        2150 --733:  *              :   specified unit
                        2151 --734:  *              : ChannelIndex -
                        2152 --735:  *              :   specified channel
                        2153 --736:  *              : pIntEnableConfig -
                        2154 --737:  *              :   related interrupt enable/disable settings
                        2155 --738:  * Return Value : TRUE if set interrupt successfully
                        2156 --739:  ***********************************************************************************************************************/
                        2157 --740: RSCFD_BOOL RSCFD_SetChannelInterrupt(RSCFD_U8 UnitIndex, RSCFD_U8 ChannelIndex,
                        2158 	.align	2
                        2159 	.align	2
                        2160 	.global	_RSCFD_SetChannelInterrupt
                        2161 _RSCFD_SetChannelInterrupt:
00000900 8600           2162 	zxb	r6
00000902 8700           2163 	zxb	r7
                        2164 --	    .bf
                        2165 .LDW64:
                        2166 --741:                                      RSCFD_CanChanelIntEnable* pIntEnableConfig)
                        2167 --742: {
                        2168 --743: 	RSCFD_BOOL bRes = RSCFD_FALSE;
00000904 0012           2169 	mov	0,r2
                        2170 --745: 	if (CnSTS(UnitIndex, ChannelIndex).BIT.CRSTSTS)
00000906 0608           2171 	mov	r6,r1
00000908 cf0a           2172 	shl	15,r1
0000090a 409ed0ff       2173 	movhi	hi(-3145728),zero,r19
0000090e d309           2174 	add	r19,r1
00000910 019e0800       2175 	addi	8,r1,r19
00000914 0708           2176 	mov	r7,r1
00000916 c40a           2177 	shl	4,r1
00000918 01f0           2178 	mov	r1,ep
0000091a d3f1           2179 	add	r19,ep
0000091c 000d           2180 	sld.w	0[ep],r1
0000091e c10e0100       2181 	andi	1,r1,r1
00000922 e009           2182 	cmp	zero,r1
00000924 e2073901*      2183 	be	.L1022
                        2184 --746: 	{
                        2185 --747: 		CnCTR(UnitIndex, ChannelIndex).BIT.TAIE = pIntEnableConfig->TxAbortIntEnable;
                        2186 --line747
                        2187 ..lin.D.3A.5CCANFDGwMcuFirmRH850F1x.5Ccode.5CCANFDGwMcuFirmRH850F1x.5CCANFDGwMcuFirmRH850F1x.5Cprj.5CGHS.20MULTI.5CCAN.20Gateway.5Coutput.5Cobj.5Cpe1.5Crscanfd_drv.94::
                        2188 .LDWlin94:
00000928 0608           2189 	mov	r6,r1
0000092a cf0a           2190 	shl	15,r1
0000092c 4016d0ff       2191 	movhi	hi(-3145728),zero,r2
00000930 c209           2192 	add	r2,r1
00000932 01160400       2193 	addi	4,r1,r2
00000936 0708           2194 	mov	r7,r1
00000938 c40a           2195 	shl	4,r1
0000093a 01f0           2196 	mov	r1,ep
0000093c c2f1           2197 	add	r2,ep
0000093e 88170100       2198 	ld.bu	0[r8],r2
00000942 000d           2199 	sld.w	0[ep],r1
00000944 e20f9000       2200 	bins	r2,16,1,r1
00000948 010d           2201 	sst.w	r1,0[ep]
                        2202 --748: 		CnCTR(UnitIndex, ChannelIndex).BIT.ALIE = pIntEnableConfig->ArbLostIntEnable;
0000094a 0608           2203 	mov	r6,r1
0000094c cf0a           2204 	shl	15,r1
0000094e 4016d0ff       2205 	movhi	hi(-3145728),zero,r2

                                                                      Page 39
                                                              C:\Users\TIEZHU~1\AppData\Local\Temp\gh_000076o1.si
00000952 c209           2206 	add	r2,r1
00000954 01160400       2207 	addi	4,r1,r2
00000958 0708           2208 	mov	r7,r1
0000095a c40a           2209 	shl	4,r1
0000095c 01f0           2210 	mov	r1,ep
0000095e c2f1           2211 	add	r2,ep
00000960 a8170100       2212 	ld.bu	1[r8],r2
00000964 000d           2213 	sld.w	0[ep],r1
00000966 e20fdef8       2214 	bins	r2,15,1,r1
0000096a 010d           2215 	sst.w	r1,0[ep]
                        2216 --749: 		CnCTR(UnitIndex, ChannelIndex).BIT.BLIE = pIntEnableConfig->BusLockIntEnable;
0000096c 0608           2217 	mov	r6,r1
0000096e cf0a           2218 	shl	15,r1
00000970 4016d0ff       2219 	movhi	hi(-3145728),zero,r2
00000974 c209           2220 	add	r2,r1
00000976 01160400       2221 	addi	4,r1,r2
0000097a 0708           2222 	mov	r7,r1
0000097c c40a           2223 	shl	4,r1
0000097e 01f0           2224 	mov	r1,ep
00000980 c2f1           2225 	add	r2,ep
00000982 88170300       2226 	ld.bu	2[r8],r2
00000986 000d           2227 	sld.w	0[ep],r1
00000988 e20fdce8       2228 	bins	r2,14,1,r1
0000098c 010d           2229 	sst.w	r1,0[ep]
                        2230 --750: 		CnCTR(UnitIndex, ChannelIndex).BIT.OLIE = pIntEnableConfig->OvrLoadFrmTxIntEnable;
0000098e 0608           2231 	mov	r6,r1
00000990 cf0a           2232 	shl	15,r1
00000992 4016d0ff       2233 	movhi	hi(-3145728),zero,r2
00000996 c209           2234 	add	r2,r1
00000998 01160400       2235 	addi	4,r1,r2
0000099c 0708           2236 	mov	r7,r1
0000099e c40a           2237 	shl	4,r1
000009a0 01f0           2238 	mov	r1,ep
000009a2 c2f1           2239 	add	r2,ep
000009a4 a8170300       2240 	ld.bu	3[r8],r2
000009a8 000d           2241 	sld.w	0[ep],r1
000009aa e20fdad8       2242 	bins	r2,13,1,r1
000009ae 010d           2243 	sst.w	r1,0[ep]
                        2244 --751: 		CnCTR(UnitIndex, ChannelIndex).BIT.BORIE = pIntEnableConfig->BusOffRecoveryIntEnable;
000009b0 0608           2245 	mov	r6,r1
000009b2 cf0a           2246 	shl	15,r1
000009b4 4016d0ff       2247 	movhi	hi(-3145728),zero,r2
000009b8 c209           2248 	add	r2,r1
000009ba 01160400       2249 	addi	4,r1,r2
000009be 0708           2250 	mov	r7,r1
000009c0 c40a           2251 	shl	4,r1
000009c2 01f0           2252 	mov	r1,ep
000009c4 c2f1           2253 	add	r2,ep
000009c6 88170500       2254 	ld.bu	4[r8],r2
000009ca 000d           2255 	sld.w	0[ep],r1
000009cc e20fd8c8       2256 	bins	r2,12,1,r1
000009d0 010d           2257 	sst.w	r1,0[ep]
                        2258 --752: 		CnCTR(UnitIndex, ChannelIndex).BIT.BOEIE = pIntEnableConfig->BusOffEntryIntEnable;
000009d2 0608           2259 	mov	r6,r1
000009d4 cf0a           2260 	shl	15,r1
000009d6 4016d0ff       2261 	movhi	hi(-3145728),zero,r2
000009da c209           2262 	add	r2,r1
000009dc 01160400       2263 	addi	4,r1,r2
000009e0 0708           2264 	mov	r7,r1
000009e2 c40a           2265 	shl	4,r1
000009e4 01f0           2266 	mov	r1,ep

                                                                      Page 40
                                                              C:\Users\TIEZHU~1\AppData\Local\Temp\gh_000076o1.si
000009e6 c2f1           2267 	add	r2,ep
000009e8 a8170500       2268 	ld.bu	5[r8],r2
000009ec 000d           2269 	sld.w	0[ep],r1
000009ee e20fd6b8       2270 	bins	r2,11,1,r1
000009f2 010d           2271 	sst.w	r1,0[ep]
                        2272 --753: 		CnCTR(UnitIndex, ChannelIndex).BIT.EPIE = pIntEnableConfig->ErrPassiveIntEnable;
000009f4 0608           2273 	mov	r6,r1
000009f6 cf0a           2274 	shl	15,r1
000009f8 4016d0ff       2275 	movhi	hi(-3145728),zero,r2
000009fc c209           2276 	add	r2,r1
000009fe 01160400       2277 	addi	4,r1,r2
00000a02 0708           2278 	mov	r7,r1
00000a04 c40a           2279 	shl	4,r1
00000a06 01f0           2280 	mov	r1,ep
00000a08 c2f1           2281 	add	r2,ep
00000a0a 88170700       2282 	ld.bu	6[r8],r2
00000a0e 000d           2283 	sld.w	0[ep],r1
00000a10 e20fd4a8       2284 	bins	r2,10,1,r1
00000a14 010d           2285 	sst.w	r1,0[ep]
                        2286 --754: 		CnCTR(UnitIndex, ChannelIndex).BIT.EWIE = pIntEnableConfig->ErrWarningIntEnable;
00000a16 0608           2287 	mov	r6,r1
00000a18 cf0a           2288 	shl	15,r1
00000a1a 4016d0ff       2289 	movhi	hi(-3145728),zero,r2
00000a1e c209           2290 	add	r2,r1
00000a20 01160400       2291 	addi	4,r1,r2
00000a24 0708           2292 	mov	r7,r1
00000a26 c40a           2293 	shl	4,r1
00000a28 01f0           2294 	mov	r1,ep
00000a2a c2f1           2295 	add	r2,ep
00000a2c a8170700       2296 	ld.bu	7[r8],r2
00000a30 000d           2297 	sld.w	0[ep],r1
00000a32 e20fd298       2298 	bins	r2,9,1,r1
00000a36 010d           2299 	sst.w	r1,0[ep]
                        2300 --755: 		CnCTR(UnitIndex, ChannelIndex).BIT.BEIE = pIntEnableConfig->BusErrIntEnable;
00000a38 0608           2301 	mov	r6,r1
00000a3a cf0a           2302 	shl	15,r1
00000a3c 4016d0ff       2303 	movhi	hi(-3145728),zero,r2
00000a40 c209           2304 	add	r2,r1
00000a42 01160400       2305 	addi	4,r1,r2
00000a46 0708           2306 	mov	r7,r1
00000a48 c40a           2307 	shl	4,r1
00000a4a 01f0           2308 	mov	r1,ep
00000a4c c2f1           2309 	add	r2,ep
00000a4e 88170900       2310 	ld.bu	8[r8],r2
00000a52 000d           2311 	sld.w	0[ep],r1
00000a54 e20fd088       2312 	bins	r2,8,1,r1
00000a58 010d           2313 	sst.w	r1,0[ep]
                        2314 --756: 		bRes = RSCFD_TRUE;
00000a5a 0112           2315 	mov	1,r2
                        2316 .L1022:
                        2317 --757: 	}
                        2318 --759: 	return bRes;
00000a5c 0250           2319 	mov	r2,r10
                        2320 --	    .ef
                        2321 .LDW74:
00000a5e 7f00           2322 	jmp	[lp]
                        2323 	.type	_RSCFD_SetChannelInterrupt,@function
                        2324 	.size	_RSCFD_SetChannelInterrupt,.-_RSCFD_SetChannelInterrupt
                        2325 	.align	2
                        2326 .LDW84:
                        2327 --_bRes	r2	local

                                                                      Page 41
                                                              C:\Users\TIEZHU~1\AppData\Local\Temp\gh_000076o1.si
                        2328 
                        2329 --_UnitIndex	r6	param
                        2330 --_ChannelIndex	r7	param
                        2331 --_pIntEnableConfig	r8	param
                        2332 
                        2333 	.data
                        2334 	.text
                        2335 
                        2336 --760: } /* End of RSCFD_SetChannelInterrupt() */
                        2337 
                        2338 --762: /***********************************************************************************************************************
                        2339 --763:  * Function Name: RSCFD_IsChannelReady
                        2340 --764:  * Description  : check if channel is ready
                        2341 --765:  * Arguments    : UnitIndex -
                        2342 --766:  *              :   specified unit
                        2343 --767:  *              : ChannelIndex -
                        2344 --768:  *              :   specified channel
                        2345 --769:  * Return Value : COMSTS bit value
                        2346 --770:  ***********************************************************************************************************************/
                        2347 --771: RSCFD_BOOL RSCFD_IsChannelReady(RSCFD_U8 UnitIndex, RSCFD_U8 ChannelIndex)
                        2348 	.align	2
                        2349 	.align	2
                        2350 	.global	_RSCFD_IsChannelReady
                        2351 _RSCFD_IsChannelReady:
00000a60 8600           2352 	zxb	r6
00000a62 8700           2353 	zxb	r7
                        2354 --	    .bf
                        2355 .LDW94:
                        2356 --772: {
                        2357 --773: 	return (RSCFD_BOOL) (CnSTS(UnitIndex, ChannelIndex).BIT.COMSTS);
00000a64 0608           2358 	mov	r6,r1
00000a66 cf0a           2359 	shl	15,r1
00000a68 4016d0ff       2360 	movhi	hi(-3145728),zero,r2
00000a6c c209           2361 	add	r2,r1
00000a6e 01160800       2362 	addi	8,r1,r2
00000a72 0708           2363 	mov	r7,r1
00000a74 c40a           2364 	shl	4,r1
00000a76 01f0           2365 	mov	r1,ep
00000a78 c2f1           2366 	add	r2,ep
00000a7a 000d           2367 	sld.w	0[ep],r1
00000a7c d80a           2368 	shl	24,r1
00000a7e 9f0a           2369 	shr	31,r1
00000a80 0150           2370 	mov	r1,r10
                        2371 --	    .ef
                        2372 .LDW05:
00000a82 7f00           2373 	jmp	[lp]
                        2374 	.type	_RSCFD_IsChannelReady,@function
                        2375 	.size	_RSCFD_IsChannelReady,.-_RSCFD_IsChannelReady
                        2376 	.align	2
                        2377 .LDW15:
                        2378 
                        2379 --_UnitIndex	r6	param
                        2380 --_ChannelIndex	r7	param
                        2381 
                        2382 	.data
                        2383 	.text
                        2384 
                        2385 --774: } /* End of RSCFD_IsChannelReady() */
                        2386 
                        2387 --776: /***********************************************************************************************************************
                        2388 --777:  * Function Name: RSCFD_IsChannelBusOff

                                                                      Page 42
                                                              C:\Users\TIEZHU~1\AppData\Local\Temp\gh_000076o1.si
                        2389 --778:  * Description  : check if channel is in bus-off
                        2390 --779:  * Arguments    : UnitIndex -
                        2391 --780:  *              :   specified unit
                        2392 --781:  *              : ChannelIndex -
                        2393 --782:  *              :   specified channel
                        2394 --783:  * Return Value : BOSTS bit value
                        2395 --784:  ***********************************************************************************************************************/
                        2396 --785: RSCFD_BOOL RSCFD_IsChannelBusOff(RSCFD_U8 UnitIndex, RSCFD_U8 ChannelIndex)
                        2397 	.align	2
                        2398 	.align	2
                        2399 	.global	_RSCFD_IsChannelBusOff
                        2400 _RSCFD_IsChannelBusOff:
00000a84 8600           2401 	zxb	r6
00000a86 8700           2402 	zxb	r7
                        2403 --	    .bf
                        2404 .LDW25:
                        2405 --786: {
                        2406 --787: 	return (RSCFD_BOOL) (CnSTS(UnitIndex, ChannelIndex).BIT.BOSTS);
00000a88 0608           2407 	mov	r6,r1
00000a8a cf0a           2408 	shl	15,r1
00000a8c 4016d0ff       2409 	movhi	hi(-3145728),zero,r2
00000a90 c209           2410 	add	r2,r1
00000a92 01160800       2411 	addi	8,r1,r2
00000a96 0708           2412 	mov	r7,r1
00000a98 c40a           2413 	shl	4,r1
00000a9a 01f0           2414 	mov	r1,ep
00000a9c c2f1           2415 	add	r2,ep
00000a9e 000d           2416 	sld.w	0[ep],r1
00000aa0 db0a           2417 	shl	27,r1
00000aa2 9f0a           2418 	shr	31,r1
00000aa4 0150           2419 	mov	r1,r10
                        2420 --	    .ef
                        2421 .LDW35:
00000aa6 7f00           2422 	jmp	[lp]
                        2423 	.type	_RSCFD_IsChannelBusOff,@function
                        2424 	.size	_RSCFD_IsChannelBusOff,.-_RSCFD_IsChannelBusOff
                        2425 	.align	2
                        2426 .LDW45:
                        2427 
                        2428 --_UnitIndex	r6	param
                        2429 --_ChannelIndex	r7	param
                        2430 
                        2431 	.data
                        2432 	.text
                        2433 
                        2434 --788: } /* End of RSCFD_IsChannelBusOff() */
                        2435 
                        2436 --790: /***********************************************************************************************************************
                        2437 --791:  * Function Name: RSCFD_IsChannelReceiving
                        2438 --792:  * Description  : check if channel is receiving
                        2439 --793:  * Arguments    : UnitIndex -
                        2440 --794:  *              :   specified unit
                        2441 --795:  *              : ChannelIndex -
                        2442 --796:  *              :   specified channel
                        2443 --797:  * Return Value : RECSTS bit value
                        2444 --798:  ***********************************************************************************************************************/
                        2445 --799: RSCFD_BOOL RSCFD_IsChannelReceiving(RSCFD_U8 UnitIndex, RSCFD_U8 ChannelIndex)
                        2446 	.align	2
                        2447 	.align	2
                        2448 	.global	_RSCFD_IsChannelReceiving
                        2449 _RSCFD_IsChannelReceiving:

                                                                      Page 43
                                                              C:\Users\TIEZHU~1\AppData\Local\Temp\gh_000076o1.si
00000aa8 8600           2450 	zxb	r6
00000aaa 8700           2451 	zxb	r7
                        2452 --	    .bf
                        2453 .LDW55:
                        2454 --800: {
                        2455 --801: 	return (RSCFD_BOOL) (CnSTS(UnitIndex, ChannelIndex).BIT.RECSTS);
00000aac 0608           2456 	mov	r6,r1
00000aae cf0a           2457 	shl	15,r1
00000ab0 4016d0ff       2458 	movhi	hi(-3145728),zero,r2
00000ab4 c209           2459 	add	r2,r1
00000ab6 01160800       2460 	addi	8,r1,r2
00000aba 0708           2461 	mov	r7,r1
00000abc c40a           2462 	shl	4,r1
00000abe 01f0           2463 	mov	r1,ep
00000ac0 c2f1           2464 	add	r2,ep
00000ac2 000d           2465 	sld.w	0[ep],r1
00000ac4 d90a           2466 	shl	25,r1
00000ac6 9f0a           2467 	shr	31,r1
00000ac8 0150           2468 	mov	r1,r10
                        2469 --	    .ef
                        2470 .LDW65:
00000aca 7f00           2471 	jmp	[lp]
                        2472 	.type	_RSCFD_IsChannelReceiving,@function
                        2473 	.size	_RSCFD_IsChannelReceiving,.-_RSCFD_IsChannelReceiving
                        2474 	.align	2
                        2475 .LDW75:
                        2476 
                        2477 --_UnitIndex	r6	param
                        2478 --_ChannelIndex	r7	param
                        2479 
                        2480 	.data
                        2481 	.text
                        2482 
                        2483 --802: } /* End of RSCFD_IsChannelReceiving() */
                        2484 
                        2485 --804: /***********************************************************************************************************************
                        2486 --805:  * Function Name: RSCFD_IsChannelTransmitting
                        2487 --806:  * Description  : check if channel is transmitting
                        2488 --807:  * Arguments    : UnitIndex -
                        2489 --808:  *              :   specified unit
                        2490 --809:  *              : ChannelIndex -
                        2491 --810:  *              :   specified channel
                        2492 --811:  * Return Value : TRMSTS bit value
                        2493 --812:  ***********************************************************************************************************************/
                        2494 --813: RSCFD_BOOL RSCFD_IsChannelTransmitting(RSCFD_U8 UnitIndex, RSCFD_U8 ChannelIndex)
                        2495 	.align	2
                        2496 	.align	2
                        2497 	.global	_RSCFD_IsChannelTransmitting
                        2498 _RSCFD_IsChannelTransmitting:
00000acc 8600           2499 	zxb	r6
00000ace 8700           2500 	zxb	r7
                        2501 --	    .bf
                        2502 .LDW85:
                        2503 --814: {
                        2504 --815: 	return (RSCFD_BOOL) (CnSTS(UnitIndex, ChannelIndex).BIT.TRMSTS);
00000ad0 0608           2505 	mov	r6,r1
00000ad2 cf0a           2506 	shl	15,r1
00000ad4 4016d0ff       2507 	movhi	hi(-3145728),zero,r2
00000ad8 c209           2508 	add	r2,r1
00000ada 01160800       2509 	addi	8,r1,r2
00000ade 0708           2510 	mov	r7,r1

                                                                      Page 44
                                                              C:\Users\TIEZHU~1\AppData\Local\Temp\gh_000076o1.si
00000ae0 c40a           2511 	shl	4,r1
00000ae2 01f0           2512 	mov	r1,ep
00000ae4 c2f1           2513 	add	r2,ep
00000ae6 000d           2514 	sld.w	0[ep],r1
00000ae8 da0a           2515 	shl	26,r1
00000aea 9f0a           2516 	shr	31,r1
00000aec 0150           2517 	mov	r1,r10
                        2518 --	    .ef
                        2519 .LDW95:
00000aee 7f00           2520 	jmp	[lp]
                        2521 	.type	_RSCFD_IsChannelTransmitting,@function
                        2522 	.size	_RSCFD_IsChannelTransmitting,.-_RSCFD_IsChannelTransmitting
                        2523 	.align	2
                        2524 .LDW06:
                        2525 
                        2526 --_UnitIndex	r6	param
                        2527 --_ChannelIndex	r7	param
                        2528 
                        2529 	.data
                        2530 	.text
                        2531 
                        2532 --816: } /* End of RSCFD_IsChannelTransmitting() */
                        2533 
                        2534 --818: /***********************************************************************************************************************
                        2535 --819:  * Function Name: RSCFD_GetChannelREC
                        2536 --820:  * Description  : get REC value
                        2537 --821:  * Arguments    : UnitIndex -
                        2538 --822:  *              :   specified unit
                        2539 --823:  *              : ChannelIndex -
                        2540 --824:  *              :   specified channel
                        2541 --825:  * Return Value : REC value
                        2542 --826:  ***********************************************************************************************************************/
                        2543 --827: RSCFD_U8 RSCFD_GetChannelREC(RSCFD_U8 UnitIndex, RSCFD_U8 ChannelIndex)
                        2544 	.align	2
                        2545 	.align	2
                        2546 	.global	_RSCFD_GetChannelREC
                        2547 _RSCFD_GetChannelREC:
00000af0 8600           2548 	zxb	r6
00000af2 8700           2549 	zxb	r7
                        2550 --	    .bf
                        2551 .LDW16:
                        2552 --828: {
                        2553 --829: 	return (RSCFD_U8) (CnSTS(UnitIndex, ChannelIndex).BIT.REC);
00000af4 0608           2554 	mov	r6,r1
00000af6 cf0a           2555 	shl	15,r1
00000af8 4016d0ff       2556 	movhi	hi(-3145728),zero,r2
00000afc c209           2557 	add	r2,r1
00000afe 01160800       2558 	addi	8,r1,r2
00000b02 0708           2559 	mov	r7,r1
00000b04 c40a           2560 	shl	4,r1
00000b06 01f0           2561 	mov	r1,ep
00000b08 c2f1           2562 	add	r2,ep
00000b0a 000d           2563 	sld.w	0[ep],r1
00000b0c c80a           2564 	shl	8,r1
00000b0e 980a           2565 	shr	24,r1
00000b10 0150           2566 	mov	r1,r10
                        2567 --	    .ef
                        2568 .LDW26:
00000b12 7f00           2569 	jmp	[lp]
                        2570 	.type	_RSCFD_GetChannelREC,@function
                        2571 	.size	_RSCFD_GetChannelREC,.-_RSCFD_GetChannelREC

                                                                      Page 45
                                                              C:\Users\TIEZHU~1\AppData\Local\Temp\gh_000076o1.si
                        2572 	.align	2
                        2573 .LDW36:
                        2574 
                        2575 --_UnitIndex	r6	param
                        2576 --_ChannelIndex	r7	param
                        2577 
                        2578 	.data
                        2579 	.text
                        2580 
                        2581 --830: } /* End of RSCFD_GetChannelREC() */
                        2582 
                        2583 --832: /***********************************************************************************************************************
                        2584 --833:  * Function Name: RSCFD_GetChannelTEC
                        2585 --834:  * Description  : get TEC value
                        2586 --835:  * Arguments    : UnitIndex -
                        2587 --836:  *              :   specified unit
                        2588 --837:  *              : ChannelIndex -
                        2589 --838:  *              :   specified channel
                        2590 --839:  * Return Value : TEC value
                        2591 --840:  ***********************************************************************************************************************/
                        2592 --841: RSCFD_U8 RSCFD_GetChannelTEC(RSCFD_U8 UnitIndex, RSCFD_U8 ChannelIndex)
                        2593 	.align	2
                        2594 	.align	2
                        2595 	.global	_RSCFD_GetChannelTEC
                        2596 _RSCFD_GetChannelTEC:
00000b14 8600           2597 	zxb	r6
00000b16 8700           2598 	zxb	r7
                        2599 --	    .bf
                        2600 .LDW46:
                        2601 --842: {
                        2602 --843: 	return (RSCFD_U8) (CnSTS(UnitIndex, ChannelIndex).BIT.TEC);
00000b18 0608           2603 	mov	r6,r1
00000b1a cf0a           2604 	shl	15,r1
00000b1c 4016d0ff       2605 	movhi	hi(-3145728),zero,r2
00000b20 c209           2606 	add	r2,r1
00000b22 01160800       2607 	addi	8,r1,r2
00000b26 0708           2608 	mov	r7,r1
00000b28 c40a           2609 	shl	4,r1
00000b2a 01f0           2610 	mov	r1,ep
00000b2c c2f1           2611 	add	r2,ep
00000b2e 000d           2612 	sld.w	0[ep],r1
00000b30 980a           2613 	shr	24,r1
00000b32 0150           2614 	mov	r1,r10
                        2615 --	    .ef
                        2616 .LDW56:
00000b34 7f00           2617 	jmp	[lp]
                        2618 	.type	_RSCFD_GetChannelTEC,@function
                        2619 	.size	_RSCFD_GetChannelTEC,.-_RSCFD_GetChannelTEC
                        2620 	.align	2
                        2621 .LDW66:
                        2622 
                        2623 --_UnitIndex	r6	param
                        2624 --_ChannelIndex	r7	param
                        2625 
                        2626 	.data
                        2627 	.text
                        2628 
                        2629 --844: } /* End of RSCFD_GetChannelTEC() */
                        2630 
                        2631 --846: /***********************************************************************************************************************
                        2632 --847:  * Function Name: RSCFD_SetAFLNumber

                                                                      Page 46
                                                              C:\Users\TIEZHU~1\AppData\Local\Temp\gh_000076o1.si
                        2633 --848:  * Description  : set AFL number for specified channel
                        2634 --849:  * Arguments    : UnitIndex -
                        2635 --850:  *              :   specified unit
                        2636 --851:  *              : ChannelIndex -
                        2637 --852:  *              :   specified channel
                        2638 --853:  *              : RuleNumber -
                        2639 --854:  *              :   specified AFL number for channel
                        2640 --855:  * Return Value : none
                        2641 --856:  ***********************************************************************************************************************/
                        2642 --857: void RSCFD_SetAFLNumber(RSCFD_U8 UnitIndex, RSCFD_U8 ChannelIndex, RSCFD_U8 RuleNumber)
                        2643 	.align	2
                        2644 	.align	2
                        2645 	.global	_RSCFD_SetAFLNumber
                        2646 _RSCFD_SetAFLNumber:
00000b36 8600           2647 	zxb	r6
00000b38 8700           2648 	zxb	r7
00000b3a 8800           2649 	zxb	r8
                        2650 --	    .bf
                        2651 .LDW76:
                        2652 --858: {
                        2653 --859: 	switch (ChannelIndex)
00000b3c 0708           2654 	mov	r7,r1
00000b3e 670a           2655 	cmp	7,r1
00000b40 cb75*          2656 	bh	.L1235
00000b42 c20a           2657 	shl	2,r1
00000b44 e10600000000*  2658 	jmp	.L1295[r1]
                        2659 .L1295:
00000b4a 80072000*      2660 	jr	.L1239
00000b4e 80073400*      2661 	jr	.L1240
00000b52 80074800*      2662 	jr	.L1241
00000b56 80075c00*      2663 	jr	.L1242
00000b5a 80077000*      2664 	jr	.L1243
00000b5e 80078400*      2665 	jr	.L1244
00000b62 80079800*      2666 	jr	.L1245
00000b66 8007ac00*      2667 	jr	.L1246
                        2668 .L1239:
                        2669 --860: 	{
                        2670 --861: 		case 0:
                        2671 --862: 			GAFLCFG0(UnitIndex).BIT.RNC0 = RuleNumber;
                        2672 --line862
                        2673 ..lin.D.3A.5CCANFDGwMcuFirmRH850F1x.5Ccode.5CCANFDGwMcuFirmRH850F1x.5CCANFDGwMcuFirmRH850F1x.5Cprj.5CGHS.20MULTI.5CCAN.20Gateway.5Coutput.5Cobj.5Cpe1.5Crscanfd_drv.95::
                        2674 .LDWlin95:
00000b6a 0608           2675 	mov	r6,r1
00000b6c cf0a           2676 	shl	15,r1
00000b6e 4016d0ff       2677 	movhi	hi(-3145728),zero,r2
00000b72 c209           2678 	add	r2,r1
00000b74 01f69c00       2679 	addi	156,r1,ep
00000b78 000d           2680 	sld.w	0[ep],r1
00000b7a e80f90f8       2681 	bins	r8,24,8,r1
00000b7e 010d           2682 	sst.w	r1,0[ep]
00000b80 c555*          2683 	br	.L1235
                        2684 .L1240:
                        2685 --863: 			break;
                        2686 --864: 		case 1:
                        2687 --865: 			GAFLCFG0(UnitIndex).BIT.RNC1 = RuleNumber;
                        2688 --line865
                        2689 ..lin.D.3A.5CCANFDGwMcuFirmRH850F1x.5Ccode.5CCANFDGwMcuFirmRH850F1x.5CCANFDGwMcuFirmRH850F1x.5Cprj.5CGHS.20MULTI.5CCAN.20Gateway.5Coutput.5Cobj.5Cpe1.5Crscanfd_drv.96::
                        2690 .LDWlin96:
00000b82 0608           2691 	mov	r6,r1
00000b84 cf0a           2692 	shl	15,r1
00000b86 4016d0ff       2693 	movhi	hi(-3145728),zero,r2

                                                                      Page 47
                                                              C:\Users\TIEZHU~1\AppData\Local\Temp\gh_000076o1.si
00000b8a c209           2694 	add	r2,r1
00000b8c 01f69c00       2695 	addi	156,r1,ep
00000b90 000d           2696 	sld.w	0[ep],r1
00000b92 e80f9070       2697 	bins	r8,16,8,r1
00000b96 010d           2698 	sst.w	r1,0[ep]
00000b98 854d*          2699 	br	.L1235
                        2700 .L1241:
                        2701 --866: 			break;
                        2702 --867: 		case 2:
                        2703 --868: 			GAFLCFG0(UnitIndex).BIT.RNC2 = RuleNumber;
                        2704 --line868
                        2705 ..lin.D.3A.5CCANFDGwMcuFirmRH850F1x.5Ccode.5CCANFDGwMcuFirmRH850F1x.5CCANFDGwMcuFirmRH850F1x.5Cprj.5CGHS.20MULTI.5CCAN.20Gateway.5Coutput.5Cobj.5Cpe1.5Crscanfd_drv.97::
                        2706 .LDWlin97:
00000b9a 0608           2707 	mov	r6,r1
00000b9c cf0a           2708 	shl	15,r1
00000b9e 4016d0ff       2709 	movhi	hi(-3145728),zero,r2
00000ba2 c209           2710 	add	r2,r1
00000ba4 01f69c00       2711 	addi	156,r1,ep
00000ba8 000d           2712 	sld.w	0[ep],r1
00000baa e80fd0f8       2713 	bins	r8,8,8,r1
00000bae 010d           2714 	sst.w	r1,0[ep]
00000bb0 c53d*          2715 	br	.L1235
                        2716 .L1242:
                        2717 --869: 			break;
                        2718 --870: 		case 3:
                        2719 --871: 			GAFLCFG0(UnitIndex).BIT.RNC3 = RuleNumber;
                        2720 --line871
                        2721 ..lin.D.3A.5CCANFDGwMcuFirmRH850F1x.5Ccode.5CCANFDGwMcuFirmRH850F1x.5CCANFDGwMcuFirmRH850F1x.5Cprj.5CGHS.20MULTI.5CCAN.20Gateway.5Coutput.5Cobj.5Cpe1.5Crscanfd_drv.98::
                        2722 .LDWlin98:
00000bb2 0608           2723 	mov	r6,r1
00000bb4 cf0a           2724 	shl	15,r1
00000bb6 4016d0ff       2725 	movhi	hi(-3145728),zero,r2
00000bba c209           2726 	add	r2,r1
00000bbc 01f69c00       2727 	addi	156,r1,ep
00000bc0 000d           2728 	sld.w	0[ep],r1
00000bc2 e80fd070       2729 	bins	r8,0,8,r1
00000bc6 010d           2730 	sst.w	r1,0[ep]
00000bc8 8535*          2731 	br	.L1235
                        2732 .L1243:
                        2733 --872: 			break;
                        2734 --873: 		case 4:
                        2735 --874: 			GAFLCFG1(UnitIndex).BIT.RNC4 = RuleNumber;
                        2736 --line874
                        2737 ..lin.D.3A.5CCANFDGwMcuFirmRH850F1x.5Ccode.5CCANFDGwMcuFirmRH850F1x.5CCANFDGwMcuFirmRH850F1x.5Cprj.5CGHS.20MULTI.5CCAN.20Gateway.5Coutput.5Cobj.5Cpe1.5Crscanfd_drv.99::
                        2738 .LDWlin99:
00000bca 0608           2739 	mov	r6,r1
00000bcc cf0a           2740 	shl	15,r1
00000bce 4016d0ff       2741 	movhi	hi(-3145728),zero,r2
00000bd2 c209           2742 	add	r2,r1
00000bd4 01f6a000       2743 	addi	160,r1,ep
00000bd8 000d           2744 	sld.w	0[ep],r1
00000bda e80f90f8       2745 	bins	r8,24,8,r1
00000bde 010d           2746 	sst.w	r1,0[ep]
00000be0 c525*          2747 	br	.L1235
                        2748 .L1244:
                        2749 --875: 			break;
                        2750 --876: 		case 5:
                        2751 --877: 			GAFLCFG1(UnitIndex).BIT.RNC5 = RuleNumber;
                        2752 --line877
                        2753 ..lin.D.3A.5CCANFDGwMcuFirmRH850F1x.5Ccode.5CCANFDGwMcuFirmRH850F1x.5CCANFDGwMcuFirmRH850F1x.5Cprj.5CGHS.20MULTI.5CCAN.20Gateway.5Coutput.5Cobj.5Cpe1.5Crscanfd_drv.100::
                        2754 .LDWlin100:

                                                                      Page 48
                                                              C:\Users\TIEZHU~1\AppData\Local\Temp\gh_000076o1.si
00000be2 0608           2755 	mov	r6,r1
00000be4 cf0a           2756 	shl	15,r1
00000be6 4016d0ff       2757 	movhi	hi(-3145728),zero,r2
00000bea c209           2758 	add	r2,r1
00000bec 01f6a000       2759 	addi	160,r1,ep
00000bf0 000d           2760 	sld.w	0[ep],r1
00000bf2 e80f9070       2761 	bins	r8,16,8,r1
00000bf6 010d           2762 	sst.w	r1,0[ep]
00000bf8 851d*          2763 	br	.L1235
                        2764 .L1245:
                        2765 --878: 			break;
                        2766 --879: 		case 6:
                        2767 --880: 			GAFLCFG0(UnitIndex).BIT.RNC0 = RuleNumber;
                        2768 --line880
                        2769 ..lin.D.3A.5CCANFDGwMcuFirmRH850F1x.5Ccode.5CCANFDGwMcuFirmRH850F1x.5CCANFDGwMcuFirmRH850F1x.5Cprj.5CGHS.20MULTI.5CCAN.20Gateway.5Coutput.5Cobj.5Cpe1.5Crscanfd_drv.101::
                        2770 .LDWlin101:
00000bfa 0608           2771 	mov	r6,r1
00000bfc cf0a           2772 	shl	15,r1
00000bfe 4016d0ff       2773 	movhi	hi(-3145728),zero,r2
00000c02 c209           2774 	add	r2,r1
00000c04 01f69c00       2775 	addi	156,r1,ep
00000c08 000d           2776 	sld.w	0[ep],r1
00000c0a e80f90f8       2777 	bins	r8,24,8,r1
00000c0e 010d           2778 	sst.w	r1,0[ep]
00000c10 c50d*          2779 	br	.L1235
                        2780 .L1246:
                        2781 --881: 			break;
                        2782 --882: 		case 7:
                        2783 --883: 			GAFLCFG0(UnitIndex).BIT.RNC1 = RuleNumber;
                        2784 --line883
                        2785 ..lin.D.3A.5CCANFDGwMcuFirmRH850F1x.5Ccode.5CCANFDGwMcuFirmRH850F1x.5CCANFDGwMcuFirmRH850F1x.5Cprj.5CGHS.20MULTI.5CCAN.20Gateway.5Coutput.5Cobj.5Cpe1.5Crscanfd_drv.102::
                        2786 .LDWlin102:
00000c12 0608           2787 	mov	r6,r1
00000c14 cf0a           2788 	shl	15,r1
00000c16 4016d0ff       2789 	movhi	hi(-3145728),zero,r2
00000c1a c209           2790 	add	r2,r1
00000c1c 01f69c00       2791 	addi	156,r1,ep
00000c20 000d           2792 	sld.w	0[ep],r1
00000c22 e80f9070       2793 	bins	r8,16,8,r1
00000c26 010d           2794 	sst.w	r1,0[ep]
                        2795 .L1235:
                        2796 --884: 			break;
                        2797 --885: 		default:
                        2798 --886: 			break;
                        2799 --887: 	}
                        2800 --888: } /* End of RSCFD_SetAFLNumber() */
                        2801 --	    .ef
                        2802 .LDW86:
00000c28 7f00           2803 	jmp	[lp]
                        2804 	.type	_RSCFD_SetAFLNumber,@function
                        2805 	.size	_RSCFD_SetAFLNumber,.-_RSCFD_SetAFLNumber
                        2806 	.align	2
                        2807 .LDW96:
                        2808 
                        2809 --_UnitIndex	r6	param
                        2810 --_ChannelIndex	r7	param
                        2811 --_RuleNumber	r8	param
                        2812 
                        2813 	.data
                        2814 	.ghsnote jtable,2097156,.L1295,.L1295,.L1295,8
                        2815 	.text

                                                                      Page 49
                                                              C:\Users\TIEZHU~1\AppData\Local\Temp\gh_000076o1.si
                        2816 
                        2817 
                        2818 --890: /***********************************************************************************************************************
                        2819 --891:  * Function Name: RSCFD_WriteAFL
                        2820 --892:  * Description  : write specified AFL settings
                        2821 --893:  * Arguments    : UnitIndex -
                        2822 --894:  *              :   specified unit
                        2823 --895:  *              : ChannelIndex -
                        2824 --896:  *              :   specified channel
                        2825 --897:  *              : pAflRule -
                        2826 --898:  *              :   pointer to specified AFL settings
                        2827 --899:  * Return Value : none
                        2828 --900:  ***********************************************************************************************************************/
                        2829 --901: void RSCFD_WriteAFL(RSCFD_U8 UnitIndex, RSCFD_U16 RuleIndex, const T_GAFL* pAflRule)
                        2830 	.align	2
                        2831 	.align	2
                        2832 	.global	_RSCFD_WriteAFL
                        2833 _RSCFD_WriteAFL:
00000c2a 8600           2834 	zxb	r6
00000c2c c700           2835 	zxh	r7
                        2836 --	    .bf
                        2837 .LDW07:
                        2838 --902: {
                        2839 --903: 	GAFLECTR(UnitIndex).BIT.AFLDAE = RSCFD_ENABLE;
00000c2e 0608           2840 	mov	r6,r1
00000c30 cf0a           2841 	shl	15,r1
00000c32 4016d0ff       2842 	movhi	hi(-3145728),zero,r2
00000c36 c209           2843 	add	r2,r1
00000c38 01f69800       2844 	addi	152,r1,ep
00000c3c 000d           2845 	sld.w	0[ep],r1
00000c3e 810e0001       2846 	ori	256,r1,r1
00000c42 010d           2847 	sst.w	r1,0[ep]
                        2848 --904: 	GAFLECTR(UnitIndex).BIT.AFLPN = RuleIndex >> 4U;
00000c44 0608           2849 	mov	r6,r1
00000c46 cf0a           2850 	shl	15,r1
00000c48 4016d0ff       2851 	movhi	hi(-3145728),zero,r2
00000c4c c209           2852 	add	r2,r1
00000c4e 01f69800       2853 	addi	152,r1,ep
00000c52 0708           2854 	mov	r7,r1
00000c54 a40a           2855 	sar	4,r1
00000c56 0015           2856 	sld.w	0[ep],r2
00000c58 e117d040       2857 	bins	r1,0,5,r2
00000c5c 0115           2858 	sst.w	r2,0[ep]
                        2859 --905: 	if (CFDGRMCFG(UnitIndex).BIT.RCMC == 0)
00000c5e 0608           2860 	mov	r6,r1
00000c60 cf0a           2861 	shl	15,r1
00000c62 4016d0ff       2862 	movhi	hi(-3145728),zero,r2
00000c66 c209           2863 	add	r2,r1
00000c68 01f6fc04       2864 	addi	1276,r1,ep
00000c6c 000d           2865 	sld.w	0[ep],r1
00000c6e c10e0100       2866 	andi	1,r1,r1
00000c72 e009           2867 	cmp	zero,r1
00000c74 9a1d*          2868 	bne	.L1312
                        2869 --906: 	{
                        2870 --907: 		GAFL(UnitIndex, RuleIndex & 0xFU) = *pAflRule;
                        2871 --line907
                        2872 ..lin.D.3A.5CCANFDGwMcuFirmRH850F1x.5Ccode.5CCANFDGwMcuFirmRH850F1x.5CCANFDGwMcuFirmRH850F1x.5Cprj.5CGHS.20MULTI.5CCAN.20Gateway.5Coutput.5Cobj.5Cpe1.5Crscanfd_drv.103::
                        2873 .LDWlin103:
00000c76 0608           2874 	mov	r6,r1
00000c78 cf0a           2875 	shl	15,r1
00000c7a 4016d0ff       2876 	movhi	hi(-3145728),zero,r2

                                                                      Page 50
                                                              C:\Users\TIEZHU~1\AppData\Local\Temp\gh_000076o1.si
00000c7e c209           2877 	add	r2,r1
00000c80 01160005       2878 	addi	1280,r1,r2
00000c84 c70e0f00       2879 	andi	15,r7,r1
00000c88 c40a           2880 	shl	4,r1
00000c8a c209           2881 	add	r2,r1
00000c8c a80709900000   2882 	ld.dw	0[r8],r18
00000c92 a80789800000   2883 	ld.dw	8[r8],r16
00000c98 a1070f900000   2884 	st.dw	r18,0[r1]
00000c9e a1078f800000   2885 	st.dw	r16,8[r1]
00000ca4 851d*          2886 	br	.L1314
                        2887 .L1312:
                        2888 --908: 	}
                        2889 --909: 	else
                        2890 --910: 	{
                        2891 --911: 		CFDGAFL(UnitIndex, RuleIndex & 0xFU) = *pAflRule;
                        2892 --line911
                        2893 ..lin.D.3A.5CCANFDGwMcuFirmRH850F1x.5Ccode.5CCANFDGwMcuFirmRH850F1x.5CCANFDGwMcuFirmRH850F1x.5Cprj.5CGHS.20MULTI.5CCAN.20Gateway.5Coutput.5Cobj.5Cpe1.5Crscanfd_drv.104::
                        2894 .LDWlin104:
00000ca6 0608           2895 	mov	r6,r1
00000ca8 cf0a           2896 	shl	15,r1
00000caa 4016d0ff       2897 	movhi	hi(-3145728),zero,r2
00000cae c209           2898 	add	r2,r1
00000cb0 01160010       2899 	addi	4096,r1,r2
00000cb4 c70e0f00       2900 	andi	15,r7,r1
00000cb8 c40a           2901 	shl	4,r1
00000cba c209           2902 	add	r2,r1
00000cbc a80709900000   2903 	ld.dw	0[r8],r18
00000cc2 a80789800000   2904 	ld.dw	8[r8],r16
00000cc8 a1070f900000   2905 	st.dw	r18,0[r1]
00000cce a1078f800000   2906 	st.dw	r16,8[r1]
                        2907 .L1314:
                        2908 --912: 	}
                        2909 --913: 	GAFLECTR(UnitIndex).BIT.AFLDAE = RSCFD_DISABLE;
00000cd4 0608           2910 	mov	r6,r1
00000cd6 cf0a           2911 	shl	15,r1
00000cd8 4016d0ff       2912 	movhi	hi(-3145728),zero,r2
00000cdc c209           2913 	add	r2,r1
00000cde 01f69800       2914 	addi	152,r1,ep
00000ce2 000d           2915 	sld.w	0[ep],r1
00000ce4 2016fffe       2916 	movea	-257,zero,r2
00000ce8 4209           2917 	and	r2,r1
00000cea 010d           2918 	sst.w	r1,0[ep]
                        2919 --914: } /* End of RSCFD_WriteAFL() */
                        2920 --	    .ef
                        2921 .LDW17:
00000cec 7f00           2922 	jmp	[lp]
                        2923 	.type	_RSCFD_WriteAFL,@function
                        2924 	.size	_RSCFD_WriteAFL,.-_RSCFD_WriteAFL
                        2925 	.align	2
                        2926 .LDW27:
                        2927 
                        2928 --_UnitIndex	r6	param
                        2929 --_RuleIndex	r7	param
                        2930 --_pAflRule	r8	param
                        2931 
                        2932 	.data
                        2933 	.text
                        2934 
                        2935 
                        2936 --916: /***********************************************************************************************************************
                        2937 --917:  * Function Name: RSCFD_ReadAFL

                                                                      Page 51
                                                              C:\Users\TIEZHU~1\AppData\Local\Temp\gh_000076o1.si
                        2938 --918:  * Description  : read AFL content
                        2939 --919:  * Arguments    : UnitIndex -
                        2940 --920:  *              :   specified unit
                        2941 --921:  *              : ChannelIndex -
                        2942 --922:  *              :   specified channel
                        2943 --923:  *              : pAflRule -
                        2944 --924:  *              :   pointer to saved AFL settings
                        2945 --925:  * Return Value : none
                        2946 --926:  ***********************************************************************************************************************/
                        2947 --927: void RSCFD_ReadAFL(RSCFD_U8 UnitIndex, RSCFD_U8 RuleIndex, T_GAFL* pAflRule)
                        2948 	.align	2
                        2949 	.align	2
                        2950 	.global	_RSCFD_ReadAFL
                        2951 _RSCFD_ReadAFL:
00000cee 8600           2952 	zxb	r6
00000cf0 8700           2953 	zxb	r7
                        2954 --	    .bf
                        2955 .LDW37:
                        2956 --928: {
                        2957 --929: 	GAFLECTR(UnitIndex).BIT.AFLDAE = RSCFD_ENABLE;
00000cf2 0608           2958 	mov	r6,r1
00000cf4 cf0a           2959 	shl	15,r1
00000cf6 4016d0ff       2960 	movhi	hi(-3145728),zero,r2
00000cfa c209           2961 	add	r2,r1
00000cfc 01f69800       2962 	addi	152,r1,ep
00000d00 000d           2963 	sld.w	0[ep],r1
00000d02 810e0001       2964 	ori	256,r1,r1
00000d06 010d           2965 	sst.w	r1,0[ep]
                        2966 --930: 	GAFLECTR(UnitIndex).BIT.AFLPN = RuleIndex >> 4U;
00000d08 0608           2967 	mov	r6,r1
00000d0a cf0a           2968 	shl	15,r1
00000d0c 4016d0ff       2969 	movhi	hi(-3145728),zero,r2
00000d10 c209           2970 	add	r2,r1
00000d12 01f69800       2971 	addi	152,r1,ep
00000d16 0708           2972 	mov	r7,r1
00000d18 a40a           2973 	sar	4,r1
00000d1a 0015           2974 	sld.w	0[ep],r2
00000d1c e117d040       2975 	bins	r1,0,5,r2
00000d20 0115           2976 	sst.w	r2,0[ep]
                        2977 --931: 	if (CFDGRMCFG(UnitIndex).BIT.RCMC == 0)
00000d22 0608           2978 	mov	r6,r1
00000d24 cf0a           2979 	shl	15,r1
00000d26 4016d0ff       2980 	movhi	hi(-3145728),zero,r2
00000d2a c209           2981 	add	r2,r1
00000d2c 01f6fc04       2982 	addi	1276,r1,ep
00000d30 000d           2983 	sld.w	0[ep],r1
00000d32 c10e0100       2984 	andi	1,r1,r1
00000d36 e009           2985 	cmp	zero,r1
00000d38 9a1d*          2986 	bne	.L1364
                        2987 --932: 	{
                        2988 --933: 		*pAflRule = GAFL(UnitIndex, RuleIndex & 0xFU);
                        2989 --line933
                        2990 ..lin.D.3A.5CCANFDGwMcuFirmRH850F1x.5Ccode.5CCANFDGwMcuFirmRH850F1x.5CCANFDGwMcuFirmRH850F1x.5Cprj.5CGHS.20MULTI.5CCAN.20Gateway.5Coutput.5Cobj.5Cpe1.5Crscanfd_drv.105::
                        2991 .LDWlin105:
00000d3a 0608           2992 	mov	r6,r1
00000d3c cf0a           2993 	shl	15,r1
00000d3e 4016d0ff       2994 	movhi	hi(-3145728),zero,r2
00000d42 c209           2995 	add	r2,r1
00000d44 01160005       2996 	addi	1280,r1,r2
00000d48 c70e0f00       2997 	andi	15,r7,r1
00000d4c c40a           2998 	shl	4,r1

                                                                      Page 52
                                                              C:\Users\TIEZHU~1\AppData\Local\Temp\gh_000076o1.si
00000d4e c209           2999 	add	r2,r1
00000d50 a10709900000   3000 	ld.dw	0[r1],r18
00000d56 a10789800000   3001 	ld.dw	8[r1],r16
00000d5c a8070f900000   3002 	st.dw	r18,0[r8]
00000d62 a8078f800000   3003 	st.dw	r16,8[r8]
00000d68 851d*          3004 	br	.L1366
                        3005 .L1364:
                        3006 --934: 	}
                        3007 --935: 	else
                        3008 --936: 	{
                        3009 --937: 		*pAflRule = CFDGAFL(UnitIndex, RuleIndex & 0xFU);
                        3010 --line937
                        3011 ..lin.D.3A.5CCANFDGwMcuFirmRH850F1x.5Ccode.5CCANFDGwMcuFirmRH850F1x.5CCANFDGwMcuFirmRH850F1x.5Cprj.5CGHS.20MULTI.5CCAN.20Gateway.5Coutput.5Cobj.5Cpe1.5Crscanfd_drv.106::
                        3012 .LDWlin106:
00000d6a 0608           3013 	mov	r6,r1
00000d6c cf0a           3014 	shl	15,r1
00000d6e 4016d0ff       3015 	movhi	hi(-3145728),zero,r2
00000d72 c209           3016 	add	r2,r1
00000d74 01160010       3017 	addi	4096,r1,r2
00000d78 c70e0f00       3018 	andi	15,r7,r1
00000d7c c40a           3019 	shl	4,r1
00000d7e c209           3020 	add	r2,r1
00000d80 a10709900000   3021 	ld.dw	0[r1],r18
00000d86 a10789800000   3022 	ld.dw	8[r1],r16
00000d8c a8070f900000   3023 	st.dw	r18,0[r8]
00000d92 a8078f800000   3024 	st.dw	r16,8[r8]
                        3025 .L1366:
                        3026 --938: 	}
                        3027 --939: 	GAFLECTR(UnitIndex).BIT.AFLDAE = RSCFD_DISABLE;
00000d98 0608           3028 	mov	r6,r1
00000d9a cf0a           3029 	shl	15,r1
00000d9c 4016d0ff       3030 	movhi	hi(-3145728),zero,r2
00000da0 c209           3031 	add	r2,r1
00000da2 01f69800       3032 	addi	152,r1,ep
00000da6 000d           3033 	sld.w	0[ep],r1
00000da8 2016fffe       3034 	movea	-257,zero,r2
00000dac 4209           3035 	and	r2,r1
00000dae 010d           3036 	sst.w	r1,0[ep]
                        3037 --940: } /* End of RSCFD_ReadAFL() */
                        3038 --	    .ef
                        3039 .LDW47:
00000db0 7f00           3040 	jmp	[lp]
                        3041 	.type	_RSCFD_ReadAFL,@function
                        3042 	.size	_RSCFD_ReadAFL,.-_RSCFD_ReadAFL
                        3043 	.align	2
                        3044 .LDW57:
                        3045 
                        3046 --_UnitIndex	r6	param
                        3047 --_RuleIndex	r7	param
                        3048 --_pAflRule	r8	param
                        3049 
                        3050 	.data
                        3051 	.text
                        3052 
                        3053 
                        3054 --942: /***********************************************************************************************************************
                        3055 --943:  * Function Name: RSCFD_SetTMBMergeMode
                        3056 --944:  * Description  : set transmission merge mode if CAN-FD mode
                        3057 --945:  * Arguments    : UnitIndex -
                        3058 --946:  *              :   specified unit
                        3059 --947:  *              : ChannelIndex -

                                                                      Page 53
                                                              C:\Users\TIEZHU~1\AppData\Local\Temp\gh_000076o1.si
                        3060 --948:  *              :   specified channel
                        3061 --949:  *              : Enable -
                        3062 --950:  *              :   enable or disable transmission merge mode
                        3063 --951:  * Return Value : none
                        3064 --952:  ***********************************************************************************************************************/
                        3065 --953: void RSCFD_SetTMBMergeMode(RSCFD_U8 UnitIndex, RSCFD_U8 ChannelIndex, RSCFD_BOOL Enable)
                        3066 	.align	2
                        3067 	.align	2
                        3068 	.global	_RSCFD_SetTMBMergeMode
                        3069 _RSCFD_SetTMBMergeMode:
00000db2 8600           3070 	zxb	r6
00000db4 8700           3071 	zxb	r7
00000db6 8800           3072 	zxb	r8
                        3073 --	    .bf
                        3074 .LDW67:
                        3075 --954: {
                        3076 --955: 	if (CFDGRMCFG(UnitIndex).BIT.RCMC == 1)
00000db8 0608           3077 	mov	r6,r1
00000dba cf0a           3078 	shl	15,r1
00000dbc 4016d0ff       3079 	movhi	hi(-3145728),zero,r2
00000dc0 c209           3080 	add	r2,r1
00000dc2 01f6fc04       3081 	addi	1276,r1,ep
00000dc6 000d           3082 	sld.w	0[ep],r1
00000dc8 c10e0100       3083 	andi	1,r1,r1
00000dcc e009           3084 	cmp	zero,r1
00000dce 8215*          3085 	be	.L1410
                        3086 --956: 	{
                        3087 --957: 		CFDCnCFG(UnitIndex, ChannelIndex).BIT.TMME = Enable;
                        3088 --line957
                        3089 ..lin.D.3A.5CCANFDGwMcuFirmRH850F1x.5Ccode.5CCANFDGwMcuFirmRH850F1x.5CCANFDGwMcuFirmRH850F1x.5Cprj.5CGHS.20MULTI.5CCAN.20Gateway.5Coutput.5Cobj.5Cpe1.5Crscanfd_drv.107::
                        3090 .LDWlin107:
00000dd0 0608           3091 	mov	r6,r1
00000dd2 cf0a           3092 	shl	15,r1
00000dd4 4016d0ff       3093 	movhi	hi(-3145728),zero,r2
00000dd8 c209           3094 	add	r2,r1
00000dda 01160405       3095 	addi	1284,r1,r2
00000dde 0708           3096 	mov	r7,r1
00000de0 c50a           3097 	shl	5,r1
00000de2 01f0           3098 	mov	r1,ep
00000de4 c2f1           3099 	add	r2,ep
00000de6 000d           3100 	sld.w	0[ep],r1
00000de8 e80f96b8       3101 	bins	r8,27,1,r1
00000dec 010d           3102 	sst.w	r1,0[ep]
                        3103 .L1410:
                        3104 --958: 	}
                        3105 --959: } /* End of RSCFD_SetTMBMergeMode() */
                        3106 --	    .ef
                        3107 .LDW77:
00000dee 7f00           3108 	jmp	[lp]
                        3109 	.type	_RSCFD_SetTMBMergeMode,@function
                        3110 	.size	_RSCFD_SetTMBMergeMode,.-_RSCFD_SetTMBMergeMode
                        3111 	.align	2
                        3112 .LDW87:
                        3113 
                        3114 --_UnitIndex	r6	param
                        3115 --_ChannelIndex	r7	param
                        3116 --_Enable	r8	param
                        3117 
                        3118 	.data
                        3119 	.text
                        3120 

                                                                      Page 54
                                                              C:\Users\TIEZHU~1\AppData\Local\Temp\gh_000076o1.si
                        3121 
                        3122 --961: /***********************************************************************************************************************
                        3123 --962:  * Function Name: RSCFD_WriteTMB
                        3124 --963:  * Description  : write frame information to transmission message buffer
                        3125 --964:  * Arguments    : UnitIndex -
                        3126 --965:  *              :   specified unit
                        3127 --966:  *              : ChannelIndex -
                        3128 --967:  *              :   specified channel
                        3129 --968:  *              : TmbIndex
                        3130 --969:  *              :   specified transmission message buffer index
                        3131 --970:  *              : pFrame -
                        3132 --971:  *              :   pointer to which frame will be written
                        3133 --972:  *              : EnableTxHistory -
                        3134 --973:  *              :   enable or disable transmission history list
                        3135 --974:  *              : Label -
                        3136 --975:  *              :   transmission pointer to be transmitted
                        3137 --976:  * Return Value : none
                        3138 --977:  ***********************************************************************************************************************/
                        3139 --978: void RSCFD_WriteTMB(RSCFD_U8 UnitIndex, RSCFD_U8 ChannelIndex, RSCFD_U8 TmbIndex, const RSCFD_Frame* pFrame,
                        3140 	.align	2
                        3141 	.align	2
                        3142 	.align	2
                        3143 	.global	_RSCFD_WriteTMB
                        3144 _RSCFD_WriteTMB:
00000df0 031ea4ff       3145 	addi	-92,sp,sp
00000df4 8600           3146 	zxb	r6
00000df6 8700           3147 	zxb	r7
00000df8 8800           3148 	zxb	r8
00000dfa 83975d00       3149 	ld.bu	92[sp],r18
00000dfe 838f6100       3150 	ld.bu	96[sp],r17
                        3151 --	    .bf
                        3152 .LDW97:
                        3153 --979:                     RSCFD_BOOL EnableTxHistory, RSCFD_U8 Label)
                        3154 --980: {
                        3155 --981: 	T_TMBCP TempTmb;
                        3156 --982: 	T_CFDTMBCPMD TempCfdtmb;
                        3157 --983: 	RSCFD_U32 DBLong;
                        3158 --984: 	RSCFD_BOOL bIDE;
                        3159 --985: 	RSCFD_BOOL bRTR;
                        3160 --986: 	RSCFD_BOOL bFDF;
                        3161 --987: 	RSCFD_U8 i;
                        3162 --989: 	bIDE = RSCFD_FALSE;
00000e02 0012           3163 	mov	0,r2
                        3164 --990: 	if ((pFrame->Format == RSCFD_FRAME_FORMAT_CLASSICAL_EXTENDED) || (pFrame->Format == RSCFD_FRAME_FORMAT_FD_EXTENDED))
00000e04 290f0100       3165 	ld.w	0[r9],r1
00000e08 610a           3166 	cmp	1,r1
00000e0a d205*          3167 	be	.L1451
00000e0c 290f0100       3168 	ld.w	0[r9],r1
00000e10 630a           3169 	cmp	3,r1
00000e12 aa05*          3170 	bne	.L1450
                        3171 .L1451:
                        3172 --991: 	{
                        3173 --992: 		bIDE = RSCFD_TRUE;
                        3174 --line992
                        3175 ..lin.D.3A.5CCANFDGwMcuFirmRH850F1x.5Ccode.5CCANFDGwMcuFirmRH850F1x.5CCANFDGwMcuFirmRH850F1x.5Cprj.5CGHS.20MULTI.5CCAN.20Gateway.5Coutput.5Cobj.5Cpe1.5Crscanfd_drv.108::
                        3176 .LDWlin108:
00000e14 0112           3177 	mov	1,r2
                        3178 .L1450:
                        3179 --993: 	}
                        3180 --994: 	bRTR = (RSCFD_BOOL) (pFrame->Type == RSCFD_FRAME_TYPE_REMOTE);
00000e16 290f0500       3181 	ld.w	4[r9],r1

                                                                      Page 55
                                                              C:\Users\TIEZHU~1\AppData\Local\Temp\gh_000076o1.si
00000e1a 610a           3182 	cmp	1,r1
00000e1c e29f0000       3183 	setfe	r19
                        3184 --995: 	bFDF = (RSCFD_BOOL) (pFrame->Format > RSCFD_FRAME_FORMAT_CLASSICAL_EXTENDED);
00000e20 290f0100       3185 	ld.w	0[r9],r1
00000e24 610a           3186 	cmp	1,r1
00000e26 ef870000       3187 	setfgt	r16
                        3188 --997: 	if (CFDGRMCFG(UnitIndex).BIT.RCMC == 0)
00000e2a 0608           3189 	mov	r6,r1
00000e2c cf0a           3190 	shl	15,r1
00000e2e 407ed0ff       3191 	movhi	hi(-3145728),zero,r15
00000e32 cf09           3192 	add	r15,r1
00000e34 01f6fc04       3193 	addi	1276,r1,ep
00000e38 000d           3194 	sld.w	0[ep],r1
00000e3a c10e0100       3195 	andi	1,r1,r1
00000e3e e009           3196 	cmp	zero,r1
00000e40 da5d*          3197 	bne	.L1453
                        3198 --998: 	{
                        3199 --999: 		TempTmb.TMID.LONG = 0UL;
                        3200 --line999
                        3201 ..lin.D.3A.5CCANFDGwMcuFirmRH850F1x.5Ccode.5CCANFDGwMcuFirmRH850F1x.5CCANFDGwMcuFirmRH850F1x.5Cprj.5CGHS.20MULTI.5CCAN.20Gateway.5Coutput.5Cobj.5Cpe1.5Crscanfd_drv.109::
                        3202 .LDWlin109:
00000e42 63074d00       3203 	st.w	zero,76[sp]
                        3204 --1000: 		TempTmb.TMID.BIT.TMIDE = bIDE;
00000e46 230f4d00       3205 	ld.w	76[sp],r1
00000e4a e20f9ef8       3206 	bins	r2,31,1,r1
00000e4e 630f4d00       3207 	st.w	r1,76[sp]
                        3208 --1001: 		TempTmb.TMID.BIT.TMRTR = bRTR;
00000e52 230f4d00       3209 	ld.w	76[sp],r1
00000e56 f30f9ce8       3210 	bins	r19,30,1,r1
00000e5a 630f4d00       3211 	st.w	r1,76[sp]
                        3212 --1002: 		TempTmb.TMID.BIT.THLEN = EnableTxHistory;
00000e5e 230f4d00       3213 	ld.w	76[sp],r1
00000e62 f20f9ad8       3214 	bins	r18,29,1,r1
00000e66 630f4d00       3215 	st.w	r1,76[sp]
                        3216 --1003: 		TempTmb.TMID.BIT.TMID = pFrame->ID;
00000e6a 29170900       3217 	ld.w	8[r9],r2
00000e6e 230f4d00       3218 	ld.w	76[sp],r1
00000e72 e20fb0c0       3219 	bins	r2,0,29,r1
00000e76 630f4d00       3220 	st.w	r1,76[sp]
                        3221 --1004: 		TempTmb.TMPTR.LONG = 0UL;
00000e7a 63075100       3222 	st.w	zero,80[sp]
                        3223 --1005: 		TempTmb.TMPTR.BIT.TMDLC = pFrame->DLC;
00000e7e 89170d00       3224 	ld.bu	12[r9],r2
00000e82 230f5100       3225 	ld.w	80[sp],r1
00000e86 e20f98f8       3226 	bins	r2,28,4,r1
00000e8a 630f5100       3227 	st.w	r1,80[sp]
                        3228 --1006: 		TempTmb.TMPTR.BIT.TMPTR = Label;
00000e8e 230f5100       3229 	ld.w	80[sp],r1
00000e92 f10f9070       3230 	bins	r17,16,8,r1
00000e96 630f5100       3231 	st.w	r1,80[sp]
                        3232 --1007: 		for (i = 0; i < 8; i++)
00000e9a 000a           3233 	mov	0,r1
                        3234 .L1457:
                        3235 --1008: 		{
                        3236 --1009: #if (CPU_ENDIAN_TYPE == CPU_ENDIAN_BIG)
                        3237 --1010: 			/* TBD */
                        3238 --1011: #else
                        3239 --1012: 			TempTmb.TMDF_TMDB[i] = pFrame->Data[i];
00000e9c 23164c00       3240 	movea	76,sp,r2
00000ea0 02160800       3241 	addi	8,r2,r2
00000ea4 01f0           3242 	mov	r1,ep

                                                                      Page 56
                                                              C:\Users\TIEZHU~1\AppData\Local\Temp\gh_000076o1.si
00000ea6 c2f1           3243 	add	r2,ep
00000ea8 099e0d00       3244 	addi	13,r9,r19
00000eac 0110           3245 	mov	r1,r2
00000eae d311           3246 	add	r19,r2
00000eb0 82170100       3247 	ld.bu	0[r2],r2
00000eb4 8013           3248 	sst.b	r2,0[ep]
00000eb6 410a           3249 	add	1,r1
00000eb8 8100           3250 	zxb	r1
00000eba 680a           3251 	cmp	8,r1
00000ebc 81f5*          3252 	bl	.L1457
                        3253 --1013: #endif
                        3254 --1014: 		}
                        3255 --1015: 		TMBCP(UnitIndex, ChannelIndex, TmbIndex) = TempTmb;
                        3256 --line1015
                        3257 ..lin.D.3A.5CCANFDGwMcuFirmRH850F1x.5Ccode.5CCANFDGwMcuFirmRH850F1x.5CCANFDGwMcuFirmRH850F1x.5Cprj.5CGHS.20MULTI.5CCAN.20Gateway.5Coutput.5Cobj.5Cpe1.5Crscanfd_drv.110::
                        3258 .LDWlin110:
00000ebe 0608           3259 	mov	r6,r1
00000ec0 cf0a           3260 	shl	15,r1
00000ec2 4016d0ff       3261 	movhi	hi(-3145728),zero,r2
00000ec6 c209           3262 	add	r2,r1
00000ec8 019e0010       3263 	addi	4096,r1,r19
00000ecc 0708           3264 	mov	r7,r1
00000ece c80a           3265 	shl	8,r1
00000ed0 0110           3266 	mov	r1,r2
00000ed2 d311           3267 	add	r19,r2
00000ed4 0808           3268 	mov	r8,r1
00000ed6 c40a           3269 	shl	4,r1
00000ed8 c209           3270 	add	r2,r1
00000eda 23164c00       3271 	movea	76,sp,r2
00000ede a20709900000   3272 	ld.dw	0[r2],r18
00000ee4 a20789800000   3273 	ld.dw	8[r2],r16
00000eea a1070f900000   3274 	st.dw	r18,0[r1]
00000ef0 a1078f800000   3275 	st.dw	r16,8[r1]
00000ef6 80077a05*      3276 	br	.L1448
                        3277 .L1453:
                        3278 --1016: 	}
                        3279 --1018: 	else
                        3280 --1019: 	{
                        3281 --1020: 		TempCfdtmb.CFDTMID.LONG = 0UL;
                        3282 --line1020
                        3283 ..lin.D.3A.5CCANFDGwMcuFirmRH850F1x.5Ccode.5CCANFDGwMcuFirmRH850F1x.5CCANFDGwMcuFirmRH850F1x.5Cprj.5CGHS.20MULTI.5CCAN.20Gateway.5Coutput.5Cobj.5Cpe1.5Crscanfd_drv.111::
                        3284 .LDWlin111:
00000efa 63070100       3285 	st.w	zero,0[sp]
                        3286 --1021: 		TempCfdtmb.CFDTMID.BIT.TMIDE = bIDE;
00000efe 230f0100       3287 	ld.w	0[sp],r1
00000f02 e20f9ef8       3288 	bins	r2,31,1,r1
00000f06 630f0100       3289 	st.w	r1,0[sp]
                        3290 --1022: 		TempCfdtmb.CFDTMID.BIT.TMRTR = bRTR;
00000f0a 230f0100       3291 	ld.w	0[sp],r1
00000f0e f30f9ce8       3292 	bins	r19,30,1,r1
00000f12 630f0100       3293 	st.w	r1,0[sp]
                        3294 --1023: 		TempCfdtmb.CFDTMID.BIT.THLEN = EnableTxHistory;
00000f16 230f0100       3295 	ld.w	0[sp],r1
00000f1a f20f9ad8       3296 	bins	r18,29,1,r1
00000f1e 630f0100       3297 	st.w	r1,0[sp]
                        3298 --1024: 		TempCfdtmb.CFDTMID.BIT.TMID = pFrame->ID;
00000f22 29170900       3299 	ld.w	8[r9],r2
00000f26 230f0100       3300 	ld.w	0[sp],r1
00000f2a e20fb0c0       3301 	bins	r2,0,29,r1
00000f2e 630f0100       3302 	st.w	r1,0[sp]
                        3303 --1025: 		TempCfdtmb.CFDTMPTR.LONG = 0UL;

                                                                      Page 57
                                                              C:\Users\TIEZHU~1\AppData\Local\Temp\gh_000076o1.si
00000f32 63070500       3304 	st.w	zero,4[sp]
                        3305 --1026: 		TempCfdtmb.CFDTMPTR.BIT.TMDLC = pFrame->DLC;
00000f36 89170d00       3306 	ld.bu	12[r9],r2
00000f3a 230f0500       3307 	ld.w	4[sp],r1
00000f3e e20f98f8       3308 	bins	r2,28,4,r1
00000f42 630f0500       3309 	st.w	r1,4[sp]
                        3310 --1027: 		TempCfdtmb.CFDTMPTR.BIT.TMPTR = Label;
00000f46 230f0500       3311 	ld.w	4[sp],r1
00000f4a f10f9070       3312 	bins	r17,16,8,r1
00000f4e 630f0500       3313 	st.w	r1,4[sp]
                        3314 --1028: 		TempCfdtmb.CFDTMFDCTR.LONG = 0UL;
00000f52 63070900       3315 	st.w	zero,8[sp]
                        3316 --1029: 		TempCfdtmb.CFDTMFDCTR.BIT.TMFDF = bFDF;
00000f56 230f0900       3317 	ld.w	8[sp],r1
00000f5a f00fd420       3318 	bins	r16,2,1,r1
00000f5e 630f0900       3319 	st.w	r1,8[sp]
                        3320 --1030: 		TempCfdtmb.CFDTMFDCTR.BIT.TMBRS = pFrame->BRS;
00000f62 a9174d00       3321 	ld.bu	77[r9],r2
00000f66 230f0900       3322 	ld.w	8[sp],r1
00000f6a e20fd210       3323 	bins	r2,1,1,r1
00000f6e 630f0900       3324 	st.w	r1,8[sp]
                        3325 --1031: 		TempCfdtmb.CFDTMFDCTR.BIT.TMESI = pFrame->ESI;
00000f72 89174f00       3326 	ld.bu	78[r9],r2
00000f76 230f0900       3327 	ld.w	8[sp],r1
00000f7a e20fd000       3328 	bins	r2,0,1,r1
00000f7e 630f0900       3329 	st.w	r1,8[sp]
                        3330 --1032: 		CFDTMBCP(UnitIndex, ChannelIndex, TmbIndex).CFDTMID.LONG = TempCfdtmb.CFDTMID.LONG;
00000f82 0608           3331 	mov	r6,r1
00000f84 cf0a           3332 	shl	15,r1
00000f86 4016d0ff       3333 	movhi	hi(-3145728),zero,r2
00000f8a c209           3334 	add	r2,r1
00000f8c 01160040       3335 	addi	16384,r1,r2
00000f90 0708           3336 	mov	r7,r1
00000f92 c90a           3337 	shl	9,r1
00000f94 c209           3338 	add	r2,r1
00000f96 0810           3339 	mov	r8,r2
00000f98 c512           3340 	shl	5,r2
00000f9a 02f0           3341 	mov	r2,ep
00000f9c c1f1           3342 	add	r1,ep
00000f9e 230f0100       3343 	ld.w	0[sp],r1
00000fa2 010d           3344 	sst.w	r1,0[ep]
                        3345 --1033: 		CFDTMBCP(UnitIndex, ChannelIndex, TmbIndex).CFDTMPTR.LONG = TempCfdtmb.CFDTMPTR.LONG;
00000fa4 0608           3346 	mov	r6,r1
00000fa6 cf0a           3347 	shl	15,r1
00000fa8 4016d0ff       3348 	movhi	hi(-3145728),zero,r2
00000fac c209           3349 	add	r2,r1
00000fae 01160040       3350 	addi	16384,r1,r2
00000fb2 0708           3351 	mov	r7,r1
00000fb4 c90a           3352 	shl	9,r1
00000fb6 c209           3353 	add	r2,r1
00000fb8 0810           3354 	mov	r8,r2
00000fba c512           3355 	shl	5,r2
00000fbc 02f0           3356 	mov	r2,ep
00000fbe c1f1           3357 	add	r1,ep
00000fc0 230f0500       3358 	ld.w	4[sp],r1
00000fc4 030d           3359 	sst.w	r1,4[ep]
                        3360 --1034: 		CFDTMBCP(UnitIndex, ChannelIndex, TmbIndex).CFDTMFDCTR.LONG = TempCfdtmb.CFDTMFDCTR.LONG;
00000fc6 0608           3361 	mov	r6,r1
00000fc8 cf0a           3362 	shl	15,r1
00000fca 4016d0ff       3363 	movhi	hi(-3145728),zero,r2
00000fce c209           3364 	add	r2,r1

                                                                      Page 58
                                                              C:\Users\TIEZHU~1\AppData\Local\Temp\gh_000076o1.si
00000fd0 01160040       3365 	addi	16384,r1,r2
00000fd4 0708           3366 	mov	r7,r1
00000fd6 c90a           3367 	shl	9,r1
00000fd8 c209           3368 	add	r2,r1
00000fda 0810           3369 	mov	r8,r2
00000fdc c512           3370 	shl	5,r2
00000fde 02f0           3371 	mov	r2,ep
00000fe0 c1f1           3372 	add	r1,ep
00000fe2 230f0900       3373 	ld.w	8[sp],r1
00000fe6 050d           3374 	sst.w	r1,8[ep]
                        3375 --1036: 		if (CFDCnCFG(UnitIndex, ChannelIndex).BIT.TMME == RSCFD_ENABLE)
00000fe8 0608           3376 	mov	r6,r1
00000fea cf0a           3377 	shl	15,r1
00000fec 4016d0ff       3378 	movhi	hi(-3145728),zero,r2
00000ff0 c209           3379 	add	r2,r1
00000ff2 01160405       3380 	addi	1284,r1,r2
00000ff6 0708           3381 	mov	r7,r1
00000ff8 c50a           3382 	shl	5,r1
00000ffa 01f0           3383 	mov	r1,ep
00000ffc c2f1           3384 	add	r2,ep
00000ffe 000d           3385 	sld.w	0[ep],r1
00001000 40160008       3386 	movhi	hi(134217728),zero,r2
00001004 4209           3387 	and	r2,r1
00001006 e009           3388 	cmp	zero,r1
00001008 e2079102*      3389 	be	.L1459
                        3390 --1037: 		{
                        3391 --1038: 			if (TmbIndex == 0)
                        3392 --line1038
                        3393 ..lin.D.3A.5CCANFDGwMcuFirmRH850F1x.5Ccode.5CCANFDGwMcuFirmRH850F1x.5CCANFDGwMcuFirmRH850F1x.5Cprj.5CGHS.20MULTI.5CCAN.20Gateway.5Coutput.5Cobj.5Cpe1.5Crscanfd_drv.112::
                        3394 .LDWlin112:
0000100c e041           3395 	cmp	zero,r8
0000100e ea074101*      3396 	bne	.L1461
                        3397 --1039: 			{
                        3398 --1040: 				if (pFrame->DLC < 8)
                        3399 --line1040
                        3400 ..lin.D.3A.5CCANFDGwMcuFirmRH850F1x.5Ccode.5CCANFDGwMcuFirmRH850F1x.5CCANFDGwMcuFirmRH850F1x.5Cprj.5CGHS.20MULTI.5CCAN.20Gateway.5Coutput.5Cobj.5Cpe1.5Crscanfd_drv.113::
                        3401 .LDWlin113:
00001012 890f0d00       3402 	ld.bu	12[r9],r1
00001016 680a           3403 	cmp	8,r1
00001018 8955*          3404 	bnl	.L1463
                        3405 --1041: 				{
                        3406 --1042: 					for (i = 0; i < (FDDlcBytesMap[pFrame->DLC] / 5 + 1U); i++)
                        3407 --line1042
                        3408 ..lin.D.3A.5CCANFDGwMcuFirmRH850F1x.5Ccode.5CCANFDGwMcuFirmRH850F1x.5CCANFDGwMcuFirmRH850F1x.5Cprj.5CGHS.20MULTI.5CCAN.20Gateway.5Coutput.5Cobj.5Cpe1.5Crscanfd_drv.114::
                        3409 .LDWlin114:
0000101a 000a           3410 	mov	0,r1
0000101c d53d*          3411 	br	.L1468
                        3412 .L1467:
                        3413 --1043: 					{
                        3414 --1044: #if (CPU_ENDIAN_TYPE == CPU_ENDIAN_BIG)
                        3415 --1045: 						/* TBD */
                        3416 --1046: #else
                        3417 --1047: 						DBLong = (RSCFD_U32) 0;
                        3418 --line1047
                        3419 ..lin.D.3A.5CCANFDGwMcuFirmRH850F1x.5Ccode.5CCANFDGwMcuFirmRH850F1x.5CCANFDGwMcuFirmRH850F1x.5Cprj.5CGHS.20MULTI.5CCAN.20Gateway.5Coutput.5Cobj.5Cpe1.5Crscanfd_drv.115::
                        3420 .LDWlin115:
0000101e 0012           3421 	mov	0,r2
                        3422 --1048: 						DBLong = (RSCFD_U32) pFrame->Data[i * 4] | ((RSCFD_U32) (pFrame->Data[i * 4 + 1]) << 8)
00001020 0110           3423 	mov	r1,r2
00001022 c212           3424 	shl	2,r2
00001024 099e0d00       3425 	addi	13,r9,r19

                                                                      Page 59
                                                              C:\Users\TIEZHU~1\AppData\Local\Temp\gh_000076o1.si
00001028 02f0           3426 	mov	r2,ep
0000102a d3f1           3427 	add	r19,ep
0000102c 09160d00       3428 	addi	13,r9,r2
00001030 029e0100       3429 	addi	1,r2,r19
00001034 0110           3430 	mov	r1,r2
00001036 c212           3431 	shl	2,r2
00001038 d311           3432 	add	r19,r2
0000103a 82170100       3433 	ld.bu	0[r2],r2
0000103e c812           3434 	shl	8,r2
00001040 6098           3435 	sld.bu	0[ep],r19
00001042 1311           3436 	or	r19,r2
00001044 099e0d00       3437 	addi	13,r9,r19
00001048 13960200       3438 	addi	2,r19,r18
0000104c 0198           3439 	mov	r1,r19
0000104e c29a           3440 	shl	2,r19
00001050 13f0           3441 	mov	r19,ep
00001052 d2f1           3442 	add	r18,ep
00001054 6098           3443 	sld.bu	0[ep],r19
00001056 d09a           3444 	shl	16,r19
00001058 0299           3445 	or	r2,r19
0000105a 09160d00       3446 	addi	13,r9,r2
0000105e 02960300       3447 	addi	3,r2,r18
00001062 0110           3448 	mov	r1,r2
00001064 c212           3449 	shl	2,r2
00001066 02f0           3450 	mov	r2,ep
00001068 d2f1           3451 	add	r18,ep
0000106a 6010           3452 	sld.bu	0[ep],r2
0000106c d812           3453 	shl	24,r2
0000106e 1311           3454 	or	r19,r2
                        3455 --1049: 						    | ((RSCFD_U32) (pFrame->Data[i * 4 + 2]) << 16)
                        3456 --1050: 						    | ((RSCFD_U32) (pFrame->Data[i * 4 + 3]) << 24);
                        3457 --1051: 						*((T_U32*) &(CFDTMBCPMD_TMB0(UnitIndex, ChannelIndex).CFDTMDF_TMDB[i * 4])) = DBLong;
00001070 0698           3458 	mov	r6,r19
00001072 cf9a           3459 	shl	15,r19
00001074 4096d0ff       3460 	movhi	hi(-3145728),zero,r18
00001078 d299           3461 	add	r18,r19
0000107a 13960040       3462 	addi	16384,r19,r18
0000107e 0798           3463 	mov	r7,r19
00001080 c99a           3464 	shl	9,r19
00001082 d299           3465 	add	r18,r19
00001084 0190           3466 	mov	r1,r18
00001086 c292           3467 	shl	2,r18
00001088 139e0c00       3468 	addi	12,r19,r19
0000108c 12f0           3469 	mov	r18,ep
0000108e d3f1           3470 	add	r19,ep
00001090 0115           3471 	sst.w	r2,0[ep]
00001092 410a           3472 	add	1,r1
00001094 8100           3473 	zxb	r1
                        3474 .L1468:
00001096 89170d00       3475 	ld.bu	12[r9],r2
0000109a 330600000000*  3476 	mov	_FDDlcBytesMap,r19
000010a0 02f0           3477 	mov	r2,ep
000010a2 d3f1           3478 	add	r19,ep
000010a4 6010           3479 	sld.bu	0[ep],r2
000010a6 059a           3480 	mov	5,r19
000010a8 f317fc02       3481 	divq	r19,r2,zero
000010ac 02160100       3482 	addi	1,r2,r2
000010b0 e209           3483 	cmp	r2,r1
000010b2 e1b5*          3484 	bl	.L1467
000010b4 8007bc03*      3485 	br	.L1448
                        3486 .L1463:

                                                                      Page 60
                                                              C:\Users\TIEZHU~1\AppData\Local\Temp\gh_000076o1.si
                        3487 --1052: #endif
                        3488 --1053: 					}
                        3489 --1054: 				}
                        3490 --1055: 				else
                        3491 --1056: 				{
                        3492 --1057: 					for (i = 0; i < FDDlcBytesMap[pFrame->DLC] / 4; i++)
                        3493 --line1057
                        3494 ..lin.D.3A.5CCANFDGwMcuFirmRH850F1x.5Ccode.5CCANFDGwMcuFirmRH850F1x.5CCANFDGwMcuFirmRH850F1x.5Cprj.5CGHS.20MULTI.5CCAN.20Gateway.5Coutput.5Cobj.5Cpe1.5Crscanfd_drv.116::
                        3495 .LDWlin116:
000010b8 000a           3496 	mov	0,r1
000010ba d53d*          3497 	br	.L1473
                        3498 .L1472:
                        3499 --1058: 					{
                        3500 --1059: #if (CPU_ENDIAN_TYPE == CPU_ENDIAN_BIG)
                        3501 --1060: 						/* TBD */
                        3502 --1061: #else
                        3503 --1062: 						DBLong = (RSCFD_U32) 0;
                        3504 --line1062
                        3505 ..lin.D.3A.5CCANFDGwMcuFirmRH850F1x.5Ccode.5CCANFDGwMcuFirmRH850F1x.5CCANFDGwMcuFirmRH850F1x.5Cprj.5CGHS.20MULTI.5CCAN.20Gateway.5Coutput.5Cobj.5Cpe1.5Crscanfd_drv.117::
                        3506 .LDWlin117:
000010bc 0012           3507 	mov	0,r2
                        3508 --1063: 						DBLong = (RSCFD_U32) pFrame->Data[i * 4] | ((RSCFD_U32) (pFrame->Data[i * 4 + 1]) << 8)
000010be 0110           3509 	mov	r1,r2
000010c0 c212           3510 	shl	2,r2
000010c2 099e0d00       3511 	addi	13,r9,r19
000010c6 02f0           3512 	mov	r2,ep
000010c8 d3f1           3513 	add	r19,ep
000010ca 09160d00       3514 	addi	13,r9,r2
000010ce 029e0100       3515 	addi	1,r2,r19
000010d2 0110           3516 	mov	r1,r2
000010d4 c212           3517 	shl	2,r2
000010d6 d311           3518 	add	r19,r2
000010d8 82170100       3519 	ld.bu	0[r2],r2
000010dc c812           3520 	shl	8,r2
000010de 6098           3521 	sld.bu	0[ep],r19
000010e0 1311           3522 	or	r19,r2
000010e2 099e0d00       3523 	addi	13,r9,r19
000010e6 13960200       3524 	addi	2,r19,r18
000010ea 0198           3525 	mov	r1,r19
000010ec c29a           3526 	shl	2,r19
000010ee 13f0           3527 	mov	r19,ep
000010f0 d2f1           3528 	add	r18,ep
000010f2 6098           3529 	sld.bu	0[ep],r19
000010f4 d09a           3530 	shl	16,r19
000010f6 0299           3531 	or	r2,r19
000010f8 09160d00       3532 	addi	13,r9,r2
000010fc 02960300       3533 	addi	3,r2,r18
00001100 0110           3534 	mov	r1,r2
00001102 c212           3535 	shl	2,r2
00001104 02f0           3536 	mov	r2,ep
00001106 d2f1           3537 	add	r18,ep
00001108 6010           3538 	sld.bu	0[ep],r2
0000110a d812           3539 	shl	24,r2
0000110c 1311           3540 	or	r19,r2
                        3541 --1064: 						    | ((RSCFD_U32) (pFrame->Data[i * 4 + 2]) << 16)
                        3542 --1065: 						    | ((RSCFD_U32) (pFrame->Data[i * 4 + 3]) << 24);
                        3543 --1066: 						*((T_U32*) &(CFDTMBCPMD_TMB0(UnitIndex, ChannelIndex).CFDTMDF_TMDB[i * 4])) = DBLong;
0000110e 0698           3544 	mov	r6,r19
00001110 cf9a           3545 	shl	15,r19
00001112 4096d0ff       3546 	movhi	hi(-3145728),zero,r18
00001116 d299           3547 	add	r18,r19

                                                                      Page 61
                                                              C:\Users\TIEZHU~1\AppData\Local\Temp\gh_000076o1.si
00001118 13960040       3548 	addi	16384,r19,r18
0000111c 0798           3549 	mov	r7,r19
0000111e c99a           3550 	shl	9,r19
00001120 d299           3551 	add	r18,r19
00001122 0190           3552 	mov	r1,r18
00001124 c292           3553 	shl	2,r18
00001126 139e0c00       3554 	addi	12,r19,r19
0000112a 12f0           3555 	mov	r18,ep
0000112c d3f1           3556 	add	r19,ep
0000112e 0115           3557 	sst.w	r2,0[ep]
00001130 410a           3558 	add	1,r1
00001132 8100           3559 	zxb	r1
                        3560 .L1473:
00001134 89170d00       3561 	ld.bu	12[r9],r2
00001138 330600000000*  3562 	mov	_FDDlcBytesMap,r19
0000113e 02f0           3563 	mov	r2,ep
00001140 d3f1           3564 	add	r19,ep
00001142 6010           3565 	sld.bu	0[ep],r2
00001144 8212           3566 	shr	2,r2
00001146 e209           3567 	cmp	r2,r1
00001148 a6bd*          3568 	blt	.L1472
0000114a 80072603*      3569 	br	.L1448
                        3570 .L1461:
                        3571 --1067: #endif
                        3572 --1068: 					}
                        3573 --1069: 				}
                        3574 --1070: 				return;
                        3575 --1071: 			}
                        3576 --1072: 			else if (TmbIndex == 3)
                        3577 --line1072
                        3578 ..lin.D.3A.5CCANFDGwMcuFirmRH850F1x.5Ccode.5CCANFDGwMcuFirmRH850F1x.5CCANFDGwMcuFirmRH850F1x.5Cprj.5CGHS.20MULTI.5CCAN.20Gateway.5Coutput.5Cobj.5Cpe1.5Crscanfd_drv.118::
                        3579 .LDWlin118:
0000114e 6342           3580 	cmp	3,r8
00001150 ea074901*      3581 	bne	.L1459
                        3582 --1073: 			{
                        3583 --1074: 				if (pFrame->DLC < 8)
                        3584 --line1074
                        3585 ..lin.D.3A.5CCANFDGwMcuFirmRH850F1x.5Ccode.5CCANFDGwMcuFirmRH850F1x.5CCANFDGwMcuFirmRH850F1x.5Cprj.5CGHS.20MULTI.5CCAN.20Gateway.5Coutput.5Cobj.5Cpe1.5Crscanfd_drv.119::
                        3586 .LDWlin119:
00001154 890f0d00       3587 	ld.bu	12[r9],r1
00001158 680a           3588 	cmp	8,r1
0000115a a955*          3589 	bnl	.L1478
                        3590 --1075: 				{
                        3591 --1076: 					for (i = 0; i < (FDDlcBytesMap[pFrame->DLC] / 5 + 1U); i++)
                        3592 --line1076
                        3593 ..lin.D.3A.5CCANFDGwMcuFirmRH850F1x.5Ccode.5CCANFDGwMcuFirmRH850F1x.5CCANFDGwMcuFirmRH850F1x.5Cprj.5CGHS.20MULTI.5CCAN.20Gateway.5Coutput.5Cobj.5Cpe1.5Crscanfd_drv.120::
                        3594 .LDWlin120:
0000115c 000a           3595 	mov	0,r1
0000115e f53d*          3596 	br	.L1483
                        3597 .L1482:
                        3598 --1077: 					{
                        3599 --1078: #if (CPU_ENDIAN_TYPE == CPU_ENDIAN_BIG)
                        3600 --1079: 						/* TBD */
                        3601 --1080: #else
                        3602 --1081: 						DBLong = (RSCFD_U32) 0;
                        3603 --line1081
                        3604 ..lin.D.3A.5CCANFDGwMcuFirmRH850F1x.5Ccode.5CCANFDGwMcuFirmRH850F1x.5CCANFDGwMcuFirmRH850F1x.5Cprj.5CGHS.20MULTI.5CCAN.20Gateway.5Coutput.5Cobj.5Cpe1.5Crscanfd_drv.121::
                        3605 .LDWlin121:
00001160 0012           3606 	mov	0,r2
                        3607 --1082: 						DBLong = (RSCFD_U32) pFrame->Data[i * 4] | ((RSCFD_U32) (pFrame->Data[i * 4 + 1]) << 8)
00001162 0110           3608 	mov	r1,r2

                                                                      Page 62
                                                              C:\Users\TIEZHU~1\AppData\Local\Temp\gh_000076o1.si
00001164 c212           3609 	shl	2,r2
00001166 099e0d00       3610 	addi	13,r9,r19
0000116a 02f0           3611 	mov	r2,ep
0000116c d3f1           3612 	add	r19,ep
0000116e 09160d00       3613 	addi	13,r9,r2
00001172 029e0100       3614 	addi	1,r2,r19
00001176 0110           3615 	mov	r1,r2
00001178 c212           3616 	shl	2,r2
0000117a d311           3617 	add	r19,r2
0000117c 82170100       3618 	ld.bu	0[r2],r2
00001180 c812           3619 	shl	8,r2
00001182 6098           3620 	sld.bu	0[ep],r19
00001184 1311           3621 	or	r19,r2
00001186 099e0d00       3622 	addi	13,r9,r19
0000118a 13960200       3623 	addi	2,r19,r18
0000118e 0198           3624 	mov	r1,r19
00001190 c29a           3625 	shl	2,r19
00001192 13f0           3626 	mov	r19,ep
00001194 d2f1           3627 	add	r18,ep
00001196 6098           3628 	sld.bu	0[ep],r19
00001198 d09a           3629 	shl	16,r19
0000119a 0299           3630 	or	r2,r19
0000119c 09160d00       3631 	addi	13,r9,r2
000011a0 02960300       3632 	addi	3,r2,r18
000011a4 0110           3633 	mov	r1,r2
000011a6 c212           3634 	shl	2,r2
000011a8 02f0           3635 	mov	r2,ep
000011aa d2f1           3636 	add	r18,ep
000011ac 6010           3637 	sld.bu	0[ep],r2
000011ae d812           3638 	shl	24,r2
000011b0 1311           3639 	or	r19,r2
                        3640 --1083: 						    | ((RSCFD_U32) (pFrame->Data[i * 4 + 2]) << 16)
                        3641 --1084: 						    | ((RSCFD_U32) (pFrame->Data[i * 4 + 3]) << 24);
                        3642 --1085: 						*((T_U32*) &(CFDTMBCPMD_TMB3(UnitIndex, ChannelIndex).CFDTMDF_TMDB[i * 4])) = DBLong;
000011b2 0698           3643 	mov	r6,r19
000011b4 cf9a           3644 	shl	15,r19
000011b6 4096d0ff       3645 	movhi	hi(-3145728),zero,r18
000011ba d299           3646 	add	r18,r19
000011bc 13960040       3647 	addi	16384,r19,r18
000011c0 0798           3648 	mov	r7,r19
000011c2 c99a           3649 	shl	9,r19
000011c4 d299           3650 	add	r18,r19
000011c6 13966000       3651 	addi	96,r19,r18
000011ca 0198           3652 	mov	r1,r19
000011cc c29a           3653 	shl	2,r19
000011ce 12960c00       3654 	addi	12,r18,r18
000011d2 13f0           3655 	mov	r19,ep
000011d4 d2f1           3656 	add	r18,ep
000011d6 0115           3657 	sst.w	r2,0[ep]
000011d8 410a           3658 	add	1,r1
000011da 8100           3659 	zxb	r1
                        3660 .L1483:
000011dc 89170d00       3661 	ld.bu	12[r9],r2
000011e0 330600000000*  3662 	mov	_FDDlcBytesMap,r19
000011e6 02f0           3663 	mov	r2,ep
000011e8 d3f1           3664 	add	r19,ep
000011ea 6010           3665 	sld.bu	0[ep],r2
000011ec 059a           3666 	mov	5,r19
000011ee f317fc02       3667 	divq	r19,r2,zero
000011f2 02160100       3668 	addi	1,r2,r2
000011f6 e209           3669 	cmp	r2,r1

                                                                      Page 63
                                                              C:\Users\TIEZHU~1\AppData\Local\Temp\gh_000076o1.si
000011f8 c1b5*          3670 	bl	.L1482
000011fa 80077602*      3671 	br	.L1448
                        3672 .L1478:
                        3673 --1086: #endif
                        3674 --1087: 					}
                        3675 --1088: 				}
                        3676 --1089: 				else
                        3677 --1090: 				{
                        3678 --1091: 					for (i = 0; i < FDDlcBytesMap[pFrame->DLC] / 4; i++)
                        3679 --line1091
                        3680 ..lin.D.3A.5CCANFDGwMcuFirmRH850F1x.5Ccode.5CCANFDGwMcuFirmRH850F1x.5CCANFDGwMcuFirmRH850F1x.5Cprj.5CGHS.20MULTI.5CCAN.20Gateway.5Coutput.5Cobj.5Cpe1.5Crscanfd_drv.122::
                        3681 .LDWlin122:
000011fe 000a           3682 	mov	0,r1
00001200 f53d*          3683 	br	.L1488
                        3684 .L1487:
                        3685 --1092: 					{
                        3686 --1093: #if (CPU_ENDIAN_TYPE == CPU_ENDIAN_BIG)
                        3687 --1094: 						/* TBD */
                        3688 --1095: #else
                        3689 --1096: 						DBLong = (RSCFD_U32) 0;
                        3690 --line1096
                        3691 ..lin.D.3A.5CCANFDGwMcuFirmRH850F1x.5Ccode.5CCANFDGwMcuFirmRH850F1x.5CCANFDGwMcuFirmRH850F1x.5Cprj.5CGHS.20MULTI.5CCAN.20Gateway.5Coutput.5Cobj.5Cpe1.5Crscanfd_drv.123::
                        3692 .LDWlin123:
00001202 0012           3693 	mov	0,r2
                        3694 --1097: 						DBLong = (RSCFD_U32) pFrame->Data[i * 4] | ((RSCFD_U32) (pFrame->Data[i * 4 + 1]) << 8)
00001204 0110           3695 	mov	r1,r2
00001206 c212           3696 	shl	2,r2
00001208 099e0d00       3697 	addi	13,r9,r19
0000120c 02f0           3698 	mov	r2,ep
0000120e d3f1           3699 	add	r19,ep
00001210 09160d00       3700 	addi	13,r9,r2
00001214 029e0100       3701 	addi	1,r2,r19
00001218 0110           3702 	mov	r1,r2
0000121a c212           3703 	shl	2,r2
0000121c d311           3704 	add	r19,r2
0000121e 82170100       3705 	ld.bu	0[r2],r2
00001222 c812           3706 	shl	8,r2
00001224 6098           3707 	sld.bu	0[ep],r19
00001226 1311           3708 	or	r19,r2
00001228 099e0d00       3709 	addi	13,r9,r19
0000122c 13960200       3710 	addi	2,r19,r18
00001230 0198           3711 	mov	r1,r19
00001232 c29a           3712 	shl	2,r19
00001234 13f0           3713 	mov	r19,ep
00001236 d2f1           3714 	add	r18,ep
00001238 6098           3715 	sld.bu	0[ep],r19
0000123a d09a           3716 	shl	16,r19
0000123c 0299           3717 	or	r2,r19
0000123e 09160d00       3718 	addi	13,r9,r2
00001242 02960300       3719 	addi	3,r2,r18
00001246 0110           3720 	mov	r1,r2
00001248 c212           3721 	shl	2,r2
0000124a 02f0           3722 	mov	r2,ep
0000124c d2f1           3723 	add	r18,ep
0000124e 6010           3724 	sld.bu	0[ep],r2
00001250 d812           3725 	shl	24,r2
00001252 1311           3726 	or	r19,r2
                        3727 --1098: 						    | ((RSCFD_U32) (pFrame->Data[i * 4 + 2]) << 16)
                        3728 --1099: 						    | ((RSCFD_U32) (pFrame->Data[i * 4 + 3]) << 24);
                        3729 --1100: 						*((T_U32*) &(CFDTMBCPMD_TMB3(UnitIndex, ChannelIndex).CFDTMDF_TMDB[i * 4])) = DBLong;
00001254 0698           3730 	mov	r6,r19

                                                                      Page 64
                                                              C:\Users\TIEZHU~1\AppData\Local\Temp\gh_000076o1.si
00001256 cf9a           3731 	shl	15,r19
00001258 4096d0ff       3732 	movhi	hi(-3145728),zero,r18
0000125c d299           3733 	add	r18,r19
0000125e 13960040       3734 	addi	16384,r19,r18
00001262 0798           3735 	mov	r7,r19
00001264 c99a           3736 	shl	9,r19
00001266 d299           3737 	add	r18,r19
00001268 13966000       3738 	addi	96,r19,r18
0000126c 0198           3739 	mov	r1,r19
0000126e c29a           3740 	shl	2,r19
00001270 12960c00       3741 	addi	12,r18,r18
00001274 13f0           3742 	mov	r19,ep
00001276 d2f1           3743 	add	r18,ep
00001278 0115           3744 	sst.w	r2,0[ep]
0000127a 410a           3745 	add	1,r1
0000127c 8100           3746 	zxb	r1
                        3747 .L1488:
0000127e 89170d00       3748 	ld.bu	12[r9],r2
00001282 330600000000*  3749 	mov	_FDDlcBytesMap,r19
00001288 02f0           3750 	mov	r2,ep
0000128a d3f1           3751 	add	r19,ep
0000128c 6010           3752 	sld.bu	0[ep],r2
0000128e 8212           3753 	shr	2,r2
00001290 e209           3754 	cmp	r2,r1
00001292 86bd*          3755 	blt	.L1487
00001294 8007dc01*      3756 	br	.L1448
                        3757 .L1459:
                        3758 --1101: #endif
                        3759 --1102: 					}
                        3760 --1103: 				}
                        3761 --1104: 				return;
                        3762 --1105: 			}
                        3763 --1106: 		}
                        3764 --1108: 		if (pFrame->DLC < 8)
                        3765 --line1108
                        3766 ..lin.D.3A.5CCANFDGwMcuFirmRH850F1x.5Ccode.5CCANFDGwMcuFirmRH850F1x.5CCANFDGwMcuFirmRH850F1x.5Cprj.5CGHS.20MULTI.5CCAN.20Gateway.5Coutput.5Cobj.5Cpe1.5Crscanfd_drv.124::
                        3767 .LDWlin124:
00001298 890f0d00       3768 	ld.bu	12[r9],r1
0000129c 680a           3769 	cmp	8,r1
0000129e c955*          3770 	bnl	.L1490
                        3771 --1109: 		{ /* Data length [0, 7] */
                        3772 --1110: 			for (i = 0; i < (FDDlcBytesMap[pFrame->DLC] / 5 + 1U); i++)
                        3773 --line1110
                        3774 ..lin.D.3A.5CCANFDGwMcuFirmRH850F1x.5Ccode.5CCANFDGwMcuFirmRH850F1x.5CCANFDGwMcuFirmRH850F1x.5Cprj.5CGHS.20MULTI.5CCAN.20Gateway.5Coutput.5Cobj.5Cpe1.5Crscanfd_drv.125::
                        3775 .LDWlin125:
000012a0 000a           3776 	mov	0,r1
000012a2 9545*          3777 	br	.L1495
                        3778 .L1494:
                        3779 --1111: 			{
                        3780 --1112: #if (CPU_ENDIAN_TYPE == CPU_ENDIAN_BIG)
                        3781 --1113: 				/* TBD */
                        3782 --1114: #else
                        3783 --1115: 				DBLong = (RSCFD_U32) 0;
                        3784 --line1115
                        3785 ..lin.D.3A.5CCANFDGwMcuFirmRH850F1x.5Ccode.5CCANFDGwMcuFirmRH850F1x.5CCANFDGwMcuFirmRH850F1x.5Cprj.5CGHS.20MULTI.5CCAN.20Gateway.5Coutput.5Cobj.5Cpe1.5Crscanfd_drv.126::
                        3786 .LDWlin126:
000012a4 0012           3787 	mov	0,r2
                        3788 --1116: 				DBLong = (RSCFD_U32) pFrame->Data[i * 4] | ((RSCFD_U32) (pFrame->Data[i * 4 + 1]) << 8)
000012a6 0110           3789 	mov	r1,r2
000012a8 c212           3790 	shl	2,r2
000012aa 099e0d00       3791 	addi	13,r9,r19

                                                                      Page 65
                                                              C:\Users\TIEZHU~1\AppData\Local\Temp\gh_000076o1.si
000012ae 02f0           3792 	mov	r2,ep
000012b0 d3f1           3793 	add	r19,ep
000012b2 09160d00       3794 	addi	13,r9,r2
000012b6 029e0100       3795 	addi	1,r2,r19
000012ba 0110           3796 	mov	r1,r2
000012bc c212           3797 	shl	2,r2
000012be d311           3798 	add	r19,r2
000012c0 82170100       3799 	ld.bu	0[r2],r2
000012c4 c812           3800 	shl	8,r2
000012c6 6098           3801 	sld.bu	0[ep],r19
000012c8 1311           3802 	or	r19,r2
000012ca 099e0d00       3803 	addi	13,r9,r19
000012ce 13960200       3804 	addi	2,r19,r18
000012d2 0198           3805 	mov	r1,r19
000012d4 c29a           3806 	shl	2,r19
000012d6 13f0           3807 	mov	r19,ep
000012d8 d2f1           3808 	add	r18,ep
000012da 6098           3809 	sld.bu	0[ep],r19
000012dc d09a           3810 	shl	16,r19
000012de 0299           3811 	or	r2,r19
000012e0 09160d00       3812 	addi	13,r9,r2
000012e4 02960300       3813 	addi	3,r2,r18
000012e8 0110           3814 	mov	r1,r2
000012ea c212           3815 	shl	2,r2
000012ec 02f0           3816 	mov	r2,ep
000012ee d2f1           3817 	add	r18,ep
000012f0 6010           3818 	sld.bu	0[ep],r2
000012f2 d812           3819 	shl	24,r2
000012f4 1311           3820 	or	r19,r2
                        3821 --1117: 				    | ((RSCFD_U32) (pFrame->Data[i * 4 + 2]) << 16) | ((RSCFD_U32) (pFrame->Data[i * 4 + 3]) << 24);
                        3822 --1118: 				*((T_U32*) &(CFDTMBCP(UnitIndex, ChannelIndex, TmbIndex).CFDTMDF_TMDB[i * 4])) = DBLong;
000012f6 0698           3823 	mov	r6,r19
000012f8 cf9a           3824 	shl	15,r19
000012fa 4096d0ff       3825 	movhi	hi(-3145728),zero,r18
000012fe d299           3826 	add	r18,r19
00001300 138e0040       3827 	addi	16384,r19,r17
00001304 0798           3828 	mov	r7,r19
00001306 c99a           3829 	shl	9,r19
00001308 1390           3830 	mov	r19,r18
0000130a d191           3831 	add	r17,r18
0000130c 0898           3832 	mov	r8,r19
0000130e c59a           3833 	shl	5,r19
00001310 d299           3834 	add	r18,r19
00001312 0190           3835 	mov	r1,r18
00001314 c292           3836 	shl	2,r18
00001316 139e0c00       3837 	addi	12,r19,r19
0000131a 12f0           3838 	mov	r18,ep
0000131c d3f1           3839 	add	r19,ep
0000131e 0115           3840 	sst.w	r2,0[ep]
00001320 410a           3841 	add	1,r1
00001322 8100           3842 	zxb	r1
                        3843 .L1495:
00001324 89170d00       3844 	ld.bu	12[r9],r2
00001328 330600000000*  3845 	mov	_FDDlcBytesMap,r19
0000132e 02f0           3846 	mov	r2,ep
00001330 d3f1           3847 	add	r19,ep
00001332 6010           3848 	sld.bu	0[ep],r2
00001334 059a           3849 	mov	5,r19
00001336 f317fc02       3850 	divq	r19,r2,zero
0000133a 02160100       3851 	addi	1,r2,r2
0000133e e209           3852 	cmp	r2,r1

                                                                      Page 66
                                                              C:\Users\TIEZHU~1\AppData\Local\Temp\gh_000076o1.si
00001340 a1b5*          3853 	bl	.L1494
00001342 80072e01*      3854 	br	.L1448
                        3855 .L1490:
                        3856 --1119: #endif
                        3857 --1120: 			}
                        3858 --1121: 		}
                        3859 --1122: 		else if (pFrame->DLC <= 0xB)
                        3860 --line1122
                        3861 ..lin.D.3A.5CCANFDGwMcuFirmRH850F1x.5Ccode.5CCANFDGwMcuFirmRH850F1x.5CCANFDGwMcuFirmRH850F1x.5Cprj.5CGHS.20MULTI.5CCAN.20Gateway.5Coutput.5Cobj.5Cpe1.5Crscanfd_drv.127::
                        3862 .LDWlin127:
00001346 890f0d00       3863 	ld.bu	12[r9],r1
0000134a 6b0a           3864 	cmp	11,r1
0000134c fb4d*          3865 	bh	.L1497
                        3866 --1123: 		{ /* Data length [8, 20] */
                        3867 --1124: 			for (i = 0; i < FDDlcBytesMap[pFrame->DLC] / 4; i++)
                        3868 --line1124
                        3869 ..lin.D.3A.5CCANFDGwMcuFirmRH850F1x.5Ccode.5CCANFDGwMcuFirmRH850F1x.5CCANFDGwMcuFirmRH850F1x.5Cprj.5CGHS.20MULTI.5CCAN.20Gateway.5Coutput.5Cobj.5Cpe1.5Crscanfd_drv.128::
                        3870 .LDWlin128:
0000134e 000a           3871 	mov	0,r1
00001350 9545*          3872 	br	.L1502
                        3873 .L1501:
                        3874 --1125: 			{
                        3875 --1126: #if (CPU_ENDIAN_TYPE == CPU_ENDIAN_BIG)
                        3876 --1127: 				/* TBD */
                        3877 --1128: #else
                        3878 --1129: 				DBLong = (RSCFD_U32) 0;
                        3879 --line1129
                        3880 ..lin.D.3A.5CCANFDGwMcuFirmRH850F1x.5Ccode.5CCANFDGwMcuFirmRH850F1x.5CCANFDGwMcuFirmRH850F1x.5Cprj.5CGHS.20MULTI.5CCAN.20Gateway.5Coutput.5Cobj.5Cpe1.5Crscanfd_drv.129::
                        3881 .LDWlin129:
00001352 0012           3882 	mov	0,r2
                        3883 --1130: 				DBLong = (RSCFD_U32) pFrame->Data[i * 4] | ((RSCFD_U32) (pFrame->Data[i * 4 + 1]) << 8)
00001354 0110           3884 	mov	r1,r2
00001356 c212           3885 	shl	2,r2
00001358 099e0d00       3886 	addi	13,r9,r19
0000135c 02f0           3887 	mov	r2,ep
0000135e d3f1           3888 	add	r19,ep
00001360 09160d00       3889 	addi	13,r9,r2
00001364 029e0100       3890 	addi	1,r2,r19
00001368 0110           3891 	mov	r1,r2
0000136a c212           3892 	shl	2,r2
0000136c d311           3893 	add	r19,r2
0000136e 82170100       3894 	ld.bu	0[r2],r2
00001372 c812           3895 	shl	8,r2
00001374 6098           3896 	sld.bu	0[ep],r19
00001376 1311           3897 	or	r19,r2
00001378 099e0d00       3898 	addi	13,r9,r19
0000137c 13960200       3899 	addi	2,r19,r18
00001380 0198           3900 	mov	r1,r19
00001382 c29a           3901 	shl	2,r19
00001384 13f0           3902 	mov	r19,ep
00001386 d2f1           3903 	add	r18,ep
00001388 6098           3904 	sld.bu	0[ep],r19
0000138a d09a           3905 	shl	16,r19
0000138c 0299           3906 	or	r2,r19
0000138e 09160d00       3907 	addi	13,r9,r2
00001392 02960300       3908 	addi	3,r2,r18
00001396 0110           3909 	mov	r1,r2
00001398 c212           3910 	shl	2,r2
0000139a 02f0           3911 	mov	r2,ep
0000139c d2f1           3912 	add	r18,ep
0000139e 6010           3913 	sld.bu	0[ep],r2

                                                                      Page 67
                                                              C:\Users\TIEZHU~1\AppData\Local\Temp\gh_000076o1.si
000013a0 d812           3914 	shl	24,r2
000013a2 1311           3915 	or	r19,r2
                        3916 --1131: 				    | ((RSCFD_U32) (pFrame->Data[i * 4 + 2]) << 16) | ((RSCFD_U32) (pFrame->Data[i * 4 + 3]) << 24);
                        3917 --1132: 				*((T_U32*) &(CFDTMBCP(UnitIndex, ChannelIndex, TmbIndex).CFDTMDF_TMDB[i * 4])) = DBLong;
000013a4 0698           3918 	mov	r6,r19
000013a6 cf9a           3919 	shl	15,r19
000013a8 4096d0ff       3920 	movhi	hi(-3145728),zero,r18
000013ac d299           3921 	add	r18,r19
000013ae 138e0040       3922 	addi	16384,r19,r17
000013b2 0798           3923 	mov	r7,r19
000013b4 c99a           3924 	shl	9,r19
000013b6 1390           3925 	mov	r19,r18
000013b8 d191           3926 	add	r17,r18
000013ba 0898           3927 	mov	r8,r19
000013bc c59a           3928 	shl	5,r19
000013be d299           3929 	add	r18,r19
000013c0 0190           3930 	mov	r1,r18
000013c2 c292           3931 	shl	2,r18
000013c4 139e0c00       3932 	addi	12,r19,r19
000013c8 12f0           3933 	mov	r18,ep
000013ca d3f1           3934 	add	r19,ep
000013cc 0115           3935 	sst.w	r2,0[ep]
000013ce 410a           3936 	add	1,r1
000013d0 8100           3937 	zxb	r1
                        3938 .L1502:
000013d2 89170d00       3939 	ld.bu	12[r9],r2
000013d6 330600000000*  3940 	mov	_FDDlcBytesMap,r19
000013dc 02f0           3941 	mov	r2,ep
000013de d3f1           3942 	add	r19,ep
000013e0 6010           3943 	sld.bu	0[ep],r2
000013e2 8212           3944 	shr	2,r2
000013e4 e209           3945 	cmp	r2,r1
000013e6 e6b5*          3946 	blt	.L1501
000013e8 c545*          3947 	br	.L1448
                        3948 .L1497:
                        3949 --1133: #endif
                        3950 --1134: 			}
                        3951 --1135: 		}
                        3952 --1136: 		else
                        3953 --1137: 		{ /* Data length [24, 64] */
                        3954 --1138: 			for (i = 0; i < 5U; i++)
                        3955 --line1138
                        3956 ..lin.D.3A.5CCANFDGwMcuFirmRH850F1x.5Ccode.5CCANFDGwMcuFirmRH850F1x.5CCANFDGwMcuFirmRH850F1x.5Cprj.5CGHS.20MULTI.5CCAN.20Gateway.5Coutput.5Cobj.5Cpe1.5Crscanfd_drv.130::
                        3957 .LDWlin130:
000013ea 000a           3958 	mov	0,r1
                        3959 .L1506:
                        3960 --1139: 			{
                        3961 --1140: #if (CPU_ENDIAN_TYPE == CPU_ENDIAN_BIG)
                        3962 --1141: 				/* TBD */
                        3963 --1142: #else
                        3964 --1143: 				DBLong = (RSCFD_U32) 0;
000013ec 0012           3965 	mov	0,r2
                        3966 --1144: 				DBLong = (RSCFD_U32) pFrame->Data[i * 4] | ((RSCFD_U32) (pFrame->Data[i * 4 + 1]) << 8)
000013ee 0110           3967 	mov	r1,r2
000013f0 c212           3968 	shl	2,r2
000013f2 099e0d00       3969 	addi	13,r9,r19
000013f6 02f0           3970 	mov	r2,ep
000013f8 d3f1           3971 	add	r19,ep
000013fa 09160d00       3972 	addi	13,r9,r2
000013fe 029e0100       3973 	addi	1,r2,r19
00001402 0110           3974 	mov	r1,r2

                                                                      Page 68
                                                              C:\Users\TIEZHU~1\AppData\Local\Temp\gh_000076o1.si
00001404 c212           3975 	shl	2,r2
00001406 d311           3976 	add	r19,r2
00001408 82170100       3977 	ld.bu	0[r2],r2
0000140c c812           3978 	shl	8,r2
0000140e 6098           3979 	sld.bu	0[ep],r19
00001410 1311           3980 	or	r19,r2
00001412 099e0d00       3981 	addi	13,r9,r19
00001416 13960200       3982 	addi	2,r19,r18
0000141a 0198           3983 	mov	r1,r19
0000141c c29a           3984 	shl	2,r19
0000141e 13f0           3985 	mov	r19,ep
00001420 d2f1           3986 	add	r18,ep
00001422 6098           3987 	sld.bu	0[ep],r19
00001424 d09a           3988 	shl	16,r19
00001426 0299           3989 	or	r2,r19
00001428 09160d00       3990 	addi	13,r9,r2
0000142c 02960300       3991 	addi	3,r2,r18
00001430 0110           3992 	mov	r1,r2
00001432 c212           3993 	shl	2,r2
00001434 02f0           3994 	mov	r2,ep
00001436 d2f1           3995 	add	r18,ep
00001438 6010           3996 	sld.bu	0[ep],r2
0000143a d812           3997 	shl	24,r2
0000143c 1311           3998 	or	r19,r2
                        3999 --1145: 				    | ((RSCFD_U32) (pFrame->Data[i * 4 + 2]) << 16) | ((RSCFD_U32) (pFrame->Data[i * 4 + 3]) << 24);
                        4000 --1146: 				*((T_U32*) &(CFDTMBCP(UnitIndex, ChannelIndex, TmbIndex).CFDTMDF_TMDB[i * 4])) = DBLong;
0000143e 0698           4001 	mov	r6,r19
00001440 cf9a           4002 	shl	15,r19
00001442 4096d0ff       4003 	movhi	hi(-3145728),zero,r18
00001446 d299           4004 	add	r18,r19
00001448 138e0040       4005 	addi	16384,r19,r17
0000144c 0798           4006 	mov	r7,r19
0000144e c99a           4007 	shl	9,r19
00001450 1390           4008 	mov	r19,r18
00001452 d191           4009 	add	r17,r18
00001454 0898           4010 	mov	r8,r19
00001456 c59a           4011 	shl	5,r19
00001458 d299           4012 	add	r18,r19
0000145a 0190           4013 	mov	r1,r18
0000145c c292           4014 	shl	2,r18
0000145e 139e0c00       4015 	addi	12,r19,r19
00001462 12f0           4016 	mov	r18,ep
00001464 d3f1           4017 	add	r19,ep
00001466 0115           4018 	sst.w	r2,0[ep]
00001468 410a           4019 	add	1,r1
0000146a 8100           4020 	zxb	r1
0000146c 650a           4021 	cmp	5,r1
0000146e f1bd*          4022 	bl	.L1506
                        4023 .L1448:
                        4024 --1147: #endif
                        4025 --1148: 			}
                        4026 --1149: 		}
                        4027 --1150: 	}
                        4028 --1151: } /* End of RSCFD_WriteTMB() */
                        4029 --	    .ef
                        4030 .LDW08:
                        4031 --line1151
                        4032 ..lin.D.3A.5CCANFDGwMcuFirmRH850F1x.5Ccode.5CCANFDGwMcuFirmRH850F1x.5CCANFDGwMcuFirmRH850F1x.5Cprj.5CGHS.20MULTI.5CCAN.20Gateway.5Coutput.5Cobj.5Cpe1.5Crscanfd_drv.131::
                        4033 .LDWlin131:
00001470 031e5c00       4034 	addi	92,sp,sp
00001474 7f00           4035 	jmp	[lp]

                                                                      Page 69
                                                              C:\Users\TIEZHU~1\AppData\Local\Temp\gh_000076o1.si
                        4036 	.type	_RSCFD_WriteTMB,@function
                        4037 	.size	_RSCFD_WriteTMB,.-_RSCFD_WriteTMB
                        4038 	.align	2
                        4039 .LDW18:
                        4040 --_TempTmb	76[sp]	local
                        4041 --_TempCfdtmb	0[sp]	local
                        4042 --_DBLong	r2	local
                        4043 --_bIDE	r2	local
                        4044 --_bRTR	r19	local
                        4045 --_bFDF	r16	local
                        4046 --_i	r1	local
                        4047 
                        4048 --_UnitIndex	r6	param
                        4049 --_ChannelIndex	r7	param
                        4050 --_TmbIndex	r8	param
                        4051 --_pFrame	r9	param
                        4052 --_EnableTxHistory	r18	param
                        4053 --_Label	r17	param
                        4054 
                        4055 	.section ".rosdata","a"
                        4056 	.global	__FifoPayloadSizeMap..D.3A.5CCANFDGwMcuFirmRH850F1x.5Ccode.5CCANFDGwMcuFirmRH850F1x.5CCANFDGwMcuFirmRH850F1x.5Cprj.5CGHS.20MULTI.5CCAN.20Gateway.5Coutput.5Cobj.5Cpe1.5Crscanfd_drv.
                        4057 __FifoPayloadSizeMap..D.3A.5CCANFDGwMcuFirmRH850F1x.5Ccode.5CCANFDGwMcuFirmRH850F1x.5CCANFDGwMcuFirmRH850F1x.5Cprj.5CGHS.20MULTI.5CCAN.20Gateway.5Coutput.5Cobj.5Cpe1.5Crscanfd_drv.:
00000000 080c1014       4058 __FifoPayloadSizeMap:	.byte	8,12,16,20
00000004 18203040       4059 	.byte	24,32,48,64
                        4060 	.type	__FifoPayloadSizeMap..D.3A.5CCANFDGwMcuFirmRH850F1x.5Ccode.5CCANFDGwMcuFirmRH850F1x.5CCANFDGwMcuFirmRH850F1x.5Cprj.5CGHS.20MULTI.5CCAN.20Gateway.5Coutput.5Cobj.5Cpe1.5Crscanfd_drv.,@object
                        4061 	.size	__FifoPayloadSizeMap..D.3A.5CCANFDGwMcuFirmRH850F1x.5Ccode.5CCANFDGwMcuFirmRH850F1x.5CCANFDGwMcuFirmRH850F1x.5Cprj.5CGHS.20MULTI.5CCAN.20Gateway.5Coutput.5Cobj.5Cpe1.5Crscanfd_drv.,8
                        4062 	.type	__FifoPayloadSizeMap,@object
                        4063 	.size	__FifoPayloadSizeMap,8
                        4064 	.global	__RmbPayloadSizeMap..D.3A.5CCANFDGwMcuFirmRH850F1x.5Ccode.5CCANFDGwMcuFirmRH850F1x.5CCANFDGwMcuFirmRH850F1x.5Cprj.5CGHS.20MULTI.5CCAN.20Gateway.5Coutput.5Cobj.5Cpe1.5Crscanfd_drv.
                        4065 __RmbPayloadSizeMap..D.3A.5CCANFDGwMcuFirmRH850F1x.5Ccode.5CCANFDGwMcuFirmRH850F1x.5CCANFDGwMcuFirmRH850F1x.5Cprj.5CGHS.20MULTI.5CCAN.20Gateway.5Coutput.5Cobj.5Cpe1.5Crscanfd_drv.:
00000008 080c1014       4066 __RmbPayloadSizeMap:	.byte	8,12,16,20
                        4067 	.type	__RmbPayloadSizeMap..D.3A.5CCANFDGwMcuFirmRH850F1x.5Ccode.5CCANFDGwMcuFirmRH850F1x.5CCANFDGwMcuFirmRH850F1x.5Cprj.5CGHS.20MULTI.5CCAN.20Gateway.5Coutput.5Cobj.5Cpe1.5Crscanfd_drv.,@object
                        4068 	.size	__RmbPayloadSizeMap..D.3A.5CCANFDGwMcuFirmRH850F1x.5Ccode.5CCANFDGwMcuFirmRH850F1x.5CCANFDGwMcuFirmRH850F1x.5Cprj.5CGHS.20MULTI.5CCAN.20Gateway.5Coutput.5Cobj.5Cpe1.5Crscanfd_drv.,4
                        4069 	.type	__RmbPayloadSizeMap,@object
                        4070 	.size	__RmbPayloadSizeMap,4
                        4071 	.section ".rodata","a"
                        4072 	.global	_FDDlcBytesMap..D.3A.5CCANFDGwMcuFirmRH850F1x.5Ccode.5CCANFDGwMcuFirmRH850F1x.5CCANFDGwMcuFirmRH850F1x.5Cprj.5CGHS.20MULTI.5CCAN.20Gateway.5Coutput.5Cobj.5Cpe1.5Crscanfd_drv.
                        4073 _FDDlcBytesMap..D.3A.5CCANFDGwMcuFirmRH850F1x.5Ccode.5CCANFDGwMcuFirmRH850F1x.5CCANFDGwMcuFirmRH850F1x.5Cprj.5CGHS.20MULTI.5CCAN.20Gateway.5Coutput.5Cobj.5Cpe1.5Crscanfd_drv.:
00000000 00             4074 _FDDlcBytesMap:	.space	1
00000001 01020304       4075 	.byte	1,2,3,4
00000005 05060708       4076 	.byte	5,6,7,8
00000009 0c101418       4077 	.byte	12,16,20,24
0000000d 2030           4078 	.byte	32,48
0000000f 40             4079 	.byte	64
                        4080 	.type	_FDDlcBytesMap..D.3A.5CCANFDGwMcuFirmRH850F1x.5Ccode.5CCANFDGwMcuFirmRH850F1x.5CCANFDGwMcuFirmRH850F1x.5Cprj.5CGHS.20MULTI.5CCAN.20Gateway.5Coutput.5Cobj.5Cpe1.5Crscanfd_drv.,@object
                        4081 	.size	_FDDlcBytesMap..D.3A.5CCANFDGwMcuFirmRH850F1x.5Ccode.5CCANFDGwMcuFirmRH850F1x.5CCANFDGwMcuFirmRH850F1x.5Cprj.5CGHS.20MULTI.5CCAN.20Gateway.5Coutput.5Cobj.5Cpe1.5Crscanfd_drv.,16
                        4082 	.type	_FDDlcBytesMap,@object
                        4083 	.size	_FDDlcBytesMap,16
                        4084 	.data
                        4085 	.text
                        4086 
                        4087 
                        4088 --1153: /***********************************************************************************************************************
                        4089 --1154:  * Function Name: RSCFD_EnableTMB
                        4090 --1155:  * Description  : enable specified transmission message buffer to transmit
                        4091 --1156:  * Arguments    : UnitIndex -
                        4092 --1157:  *              :   specified unit
                        4093 --1158:  *              : ChannelIndex -
                        4094 --1159:  *              :   specified channel
                        4095 --1160:  *              : TmbIndex
                        4096 --1161:  *              :   specified transmission message buffer index

                                                                      Page 70
                                                              C:\Users\TIEZHU~1\AppData\Local\Temp\gh_000076o1.si
                        4097 --1162:  *              : Enable -
                        4098 --1163:  *              :   request or not request transmission
                        4099 --1164:  *              : OneShotTxMode -
                        4100 --1165:  *              :   configure one-shot mode or not
                        4101 --1166:  * Return Value : none
                        4102 --1167:  ***********************************************************************************************************************/
                        4103 --1168: void RSCFD_EnableTMB(RSCFD_U8 UnitIndex, RSCFD_U8 ChannelIndex, RSCFD_U8 TmbIndex, RSCFD_BOOL Enable,
                        4104 	.align	2
                        4105 	.align	2
                        4106 	.global	_RSCFD_EnableTMB
                        4107 _RSCFD_EnableTMB:
00001476 8600           4108 	zxb	r6
00001478 8700           4109 	zxb	r7
0000147a 8800           4110 	zxb	r8
0000147c 8900           4111 	zxb	r9
0000147e 83170100       4112 	ld.bu	0[sp],r2
                        4113 --	    .bf
                        4114 .LDW28:
                        4115 --1169:                      RSCFD_BOOL OneShotTxMode)
                        4116 --1170: {
                        4117 --1171: 	if (Enable)
00001482 e049           4118 	cmp	zero,r9
00001484 a235*          4119 	be	.L1748
                        4120 --1172: 	{
                        4121 --1173: 		TMSTS(UnitIndex, ChannelIndex, TmbIndex).BYTE = 0U;
                        4122 --line1173
                        4123 ..lin.D.3A.5CCANFDGwMcuFirmRH850F1x.5Ccode.5CCANFDGwMcuFirmRH850F1x.5CCANFDGwMcuFirmRH850F1x.5Cprj.5CGHS.20MULTI.5CCAN.20Gateway.5Coutput.5Cobj.5Cpe1.5Crscanfd_drv.132::
                        4124 .LDWlin132:
00001486 0608           4125 	mov	r6,r1
00001488 cf0a           4126 	shl	15,r1
0000148a 409ed0ff       4127 	movhi	hi(-3145728),zero,r19
0000148e d309           4128 	add	r19,r1
00001490 019ed002       4129 	addi	720,r1,r19
00001494 0708           4130 	mov	r7,r1
00001496 c40a           4131 	shl	4,r1
00001498 d309           4132 	add	r19,r1
0000149a 0898           4133 	mov	r8,r19
0000149c 13f0           4134 	mov	r19,ep
0000149e c1f1           4135 	add	r1,ep
000014a0 8003           4136 	sst.b	zero,0[ep]
                        4137 --1174: 		TMC(UnitIndex, ChannelIndex, TmbIndex).BIT.TMOM = OneShotTxMode;
000014a2 0608           4138 	mov	r6,r1
000014a4 cf0a           4139 	shl	15,r1
000014a6 409ed0ff       4140 	movhi	hi(-3145728),zero,r19
000014aa d309           4141 	add	r19,r1
000014ac 019e5002       4142 	addi	592,r1,r19
000014b0 0708           4143 	mov	r7,r1
000014b2 c40a           4144 	shl	4,r1
000014b4 d309           4145 	add	r19,r1
000014b6 0898           4146 	mov	r8,r19
000014b8 13f0           4147 	mov	r19,ep
000014ba c1f1           4148 	add	r1,ep
000014bc 6008           4149 	sld.bu	0[ep],r1
000014be e20fd420       4150 	bins	r2,2,1,r1
000014c2 800b           4151 	sst.b	r1,0[ep]
                        4152 --1175: 		TMC(UnitIndex, ChannelIndex, TmbIndex).BIT.TMTR = Enable;
000014c4 0608           4153 	mov	r6,r1
000014c6 cf0a           4154 	shl	15,r1
000014c8 4016d0ff       4155 	movhi	hi(-3145728),zero,r2
000014cc c209           4156 	add	r2,r1
000014ce 01165002       4157 	addi	592,r1,r2

                                                                      Page 71
                                                              C:\Users\TIEZHU~1\AppData\Local\Temp\gh_000076o1.si
000014d2 0708           4158 	mov	r7,r1
000014d4 c40a           4159 	shl	4,r1
000014d6 c209           4160 	add	r2,r1
000014d8 0810           4161 	mov	r8,r2
000014da 02f0           4162 	mov	r2,ep
000014dc c1f1           4163 	add	r1,ep
000014de 6008           4164 	sld.bu	0[ep],r1
000014e0 e90fd000       4165 	bins	r9,0,1,r1
000014e4 800b           4166 	sst.b	r1,0[ep]
000014e6 f50d*          4167 	br	.L1746
                        4168 .L1748:
                        4169 --1176: 	}
                        4170 --1177: 	else
                        4171 --1178: 	{
                        4172 --1179: 		TMC(UnitIndex, ChannelIndex, TmbIndex).BIT.TMTAR = 1;
                        4173 --line1179
                        4174 ..lin.D.3A.5CCANFDGwMcuFirmRH850F1x.5Ccode.5CCANFDGwMcuFirmRH850F1x.5CCANFDGwMcuFirmRH850F1x.5Cprj.5CGHS.20MULTI.5CCAN.20Gateway.5Coutput.5Cobj.5Cpe1.5Crscanfd_drv.133::
                        4175 .LDWlin133:
000014e8 0608           4176 	mov	r6,r1
000014ea cf0a           4177 	shl	15,r1
000014ec 4016d0ff       4178 	movhi	hi(-3145728),zero,r2
000014f0 c209           4179 	add	r2,r1
000014f2 01165002       4180 	addi	592,r1,r2
000014f6 0708           4181 	mov	r7,r1
000014f8 c40a           4182 	shl	4,r1
000014fa c209           4183 	add	r2,r1
000014fc 0810           4184 	mov	r8,r2
000014fe c111           4185 	add	r1,r2
00001500 c20f0000       4186 	set1	1,0[r2]
                        4187 .L1746:
                        4188 --1180: 	}
                        4189 --1181: } /* End of RSCFD_EnableTMB() */
                        4190 --	    .ef
                        4191 .LDW38:
00001504 7f00           4192 	jmp	[lp]
                        4193 	.type	_RSCFD_EnableTMB,@function
                        4194 	.size	_RSCFD_EnableTMB,.-_RSCFD_EnableTMB
                        4195 	.align	2
                        4196 .LDW48:
                        4197 
                        4198 --_UnitIndex	r6	param
                        4199 --_ChannelIndex	r7	param
                        4200 --_TmbIndex	r8	param
                        4201 --_Enable	r9	param
                        4202 --_OneShotTxMode	r2	param
                        4203 
                        4204 	.data
                        4205 	.text
                        4206 
                        4207 
                        4208 --1183: /***********************************************************************************************************************
                        4209 --1184:  * Function Name: RSCFD_DisableTMBInterrupt
                        4210 --1185:  * Description  : disable transmission message buffer interrupt
                        4211 --1186:  * Arguments    : UnitIndex -
                        4212 --1187:  *              :   specified unit
                        4213 --1188:  *              : ChannelIndex -
                        4214 --1189:  *              :   specified channel
                        4215 --1190:  * Return Value : none
                        4216 --1191:  ***********************************************************************************************************************/
                        4217 --1192: void RSCFD_DisableTMBInterrupt(RSCFD_U8 UnitIndex, RSCFD_U8 ChannelIndex)
                        4218 	.align	2

                                                                      Page 72
                                                              C:\Users\TIEZHU~1\AppData\Local\Temp\gh_000076o1.si
                        4219 	.align	2
                        4220 	.global	_RSCFD_DisableTMBInterrupt
                        4221 _RSCFD_DisableTMBInterrupt:
00001506 8600           4222 	zxb	r6
00001508 8700           4223 	zxb	r7
                        4224 --	    .bf
                        4225 .LDW58:
                        4226 --1193: {
                        4227 --1194: 	TMIEC(UnitIndex, ChannelIndex).WORD = 0x0000;
0000150a 0608           4228 	mov	r6,r1
0000150c cf0a           4229 	shl	15,r1
0000150e 4016d0ff       4230 	movhi	hi(-3145728),zero,r2
00001512 c209           4231 	add	r2,r1
00001514 01169003       4232 	addi	912,r1,r2
00001518 0708           4233 	mov	r7,r1
0000151a c10a           4234 	shl	1,r1
0000151c 01f0           4235 	mov	r1,ep
0000151e c2f1           4236 	add	r2,ep
00001520 8004           4237 	sst.h	zero,0[ep]
                        4238 --1195: } /* End of RSCFD_DisableTMBInterrupt() */
                        4239 --	    .ef
                        4240 .LDW68:
00001522 7f00           4241 	jmp	[lp]
                        4242 	.type	_RSCFD_DisableTMBInterrupt,@function
                        4243 	.size	_RSCFD_DisableTMBInterrupt,.-_RSCFD_DisableTMBInterrupt
                        4244 	.align	2
                        4245 .LDW78:
                        4246 
                        4247 --_UnitIndex	r6	param
                        4248 --_ChannelIndex	r7	param
                        4249 
                        4250 	.data
                        4251 	.text
                        4252 
                        4253 
                        4254 --1197: /***********************************************************************************************************************
                        4255 --1198:  * Function Name: RSCFD_EnableTMBInterrupt
                        4256 --1199:  * Description  : enable transmission message buffer interrupt
                        4257 --1200:  * Arguments    : UnitIndex -
                        4258 --1201:  *              :   specified unit
                        4259 --1202:  *              : ChannelIndex -
                        4260 --1203:  *              :   specified channel
                        4261 --1204:  * Return Value : none
                        4262 --1205:  ***********************************************************************************************************************/
                        4263 --1206: void RSCFD_EnableTMBInterrupt(RSCFD_U8 UnitIndex, RSCFD_U8 ChannelIndex)
                        4264 	.align	2
                        4265 	.align	2
                        4266 	.global	_RSCFD_EnableTMBInterrupt
                        4267 _RSCFD_EnableTMBInterrupt:
00001524 8600           4268 	zxb	r6
00001526 8700           4269 	zxb	r7
                        4270 --	    .bf
                        4271 .LDW88:
                        4272 --1207: {
                        4273 --1208: 	TMIEC(UnitIndex, ChannelIndex).WORD = 0xFFFF;
00001528 0608           4274 	mov	r6,r1
0000152a cf0a           4275 	shl	15,r1
0000152c 4016d0ff       4276 	movhi	hi(-3145728),zero,r2
00001530 c209           4277 	add	r2,r1
00001532 01169003       4278 	addi	912,r1,r2
00001536 0708           4279 	mov	r7,r1

                                                                      Page 73
                                                              C:\Users\TIEZHU~1\AppData\Local\Temp\gh_000076o1.si
00001538 c10a           4280 	shl	1,r1
0000153a 01f0           4281 	mov	r1,ep
0000153c c2f1           4282 	add	r2,ep
0000153e 2106ffff0000   4283 	mov	65535,r1
00001544 800c           4284 	sst.h	r1,0[ep]
                        4285 --1209: } /* End of RSCFD_EnableTMBInterrupt() */
                        4286 --	    .ef
                        4287 .LDW98:
00001546 7f00           4288 	jmp	[lp]
                        4289 	.type	_RSCFD_EnableTMBInterrupt,@function
                        4290 	.size	_RSCFD_EnableTMBInterrupt,.-_RSCFD_EnableTMBInterrupt
                        4291 	.align	2
                        4292 .LDW09:
                        4293 
                        4294 --_UnitIndex	r6	param
                        4295 --_ChannelIndex	r7	param
                        4296 
                        4297 	.data
                        4298 	.text
                        4299 
                        4300 
                        4301 --1211: /***********************************************************************************************************************
                        4302 --1212:  * Function Name: RSCFD_GetTMSTS
                        4303 --1213:  * Description  : Get Tx buffer status
                        4304 --1214:  * Arguments    : UnitIndex -
                        4305 --1215:  *              :   specified unit
                        4306 --1216:  *              : ChannelIndex -
                        4307 --1217:  *              :   specified channel
                        4308 --1218:  *              : TmbIndex -
                        4309 --1219:  *              :   specified Tx buffer index
                        4310 --1220:  * Return Value : TMSTS value
                        4311 --1221:  ***********************************************************************************************************************/
                        4312 --1222: RSCFD_U8 RSCFD_GetTMSTS(RSCFD_U8 UnitIndex, RSCFD_U8 ChannelIndex, RSCFD_U8 TmbIndex)
                        4313 	.align	2
                        4314 	.align	2
                        4315 	.global	_RSCFD_GetTMSTS
                        4316 _RSCFD_GetTMSTS:
00001548 8600           4317 	zxb	r6
0000154a 8700           4318 	zxb	r7
0000154c 8800           4319 	zxb	r8
                        4320 --	    .bf
                        4321 .LDW19:
                        4322 --1223: {
                        4323 --1224: 	return TMSTS(UnitIndex, ChannelIndex, TmbIndex).BYTE;
0000154e 0608           4324 	mov	r6,r1
00001550 cf0a           4325 	shl	15,r1
00001552 4016d0ff       4326 	movhi	hi(-3145728),zero,r2
00001556 c209           4327 	add	r2,r1
00001558 0116d002       4328 	addi	720,r1,r2
0000155c 0708           4329 	mov	r7,r1
0000155e c40a           4330 	shl	4,r1
00001560 c209           4331 	add	r2,r1
00001562 0810           4332 	mov	r8,r2
00001564 02f0           4333 	mov	r2,ep
00001566 c1f1           4334 	add	r1,ep
00001568 6050           4335 	sld.bu	0[ep],r10
                        4336 --	    .ef
                        4337 .LDW29:
0000156a 7f00           4338 	jmp	[lp]
                        4339 	.type	_RSCFD_GetTMSTS,@function
                        4340 	.size	_RSCFD_GetTMSTS,.-_RSCFD_GetTMSTS

                                                                      Page 74
                                                              C:\Users\TIEZHU~1\AppData\Local\Temp\gh_000076o1.si
                        4341 	.align	2
                        4342 .LDW39:
                        4343 
                        4344 --_UnitIndex	r6	param
                        4345 --_ChannelIndex	r7	param
                        4346 --_TmbIndex	r8	param
                        4347 
                        4348 	.data
                        4349 	.text
                        4350 
                        4351 --1225: }
                        4352 
                        4353 --1227: /***********************************************************************************************************************
                        4354 --1228:  * Function Name: RSCFD_GetRMBNewDataBufferIndex
                        4355 --1229:  * Description  : get reception message buffer index for new data stored
                        4356 --1230:  * Arguments    : UnitIndex -
                        4357 --1231:  *              :   specified unit
                        4358 --1232:  * Return Value : reception message buffer index for new data stored
                        4359 --1233:  ***********************************************************************************************************************/
                        4360 --1234: RSCFD_U8 RSCFD_GetRMBNewDataBufferIndex(RSCFD_U8 UnitIndex)
                        4361 	.align	2
                        4362 	.align	2
                        4363 	.global	_RSCFD_GetRMBNewDataBufferIndex
                        4364 _RSCFD_GetRMBNewDataBufferIndex:
0000156c 8600           4365 	zxb	r6
                        4366 --	    .bf
                        4367 .LDW49:
                        4368 --1235: {
                        4369 --1236: 	RSCFD_U32 new_data_flag;
                        4370 --1237: 	RSCFD_U8 reg_idx;
                        4371 --1238: 	RSCFD_U8 bit_idx;
                        4372 --1239: 	RSCFD_U32 temp_RMND;
                        4373 --1240: 	RSCFD_U8 RmbIdx = 255U;
0000156e 2096ff00       4374 	movea	255,zero,r18
                        4375 --1242: 	for (reg_idx = 0U; reg_idx < 3; reg_idx++)
00001572 000a           4376 	mov	0,r1
                        4377 .L1879:
                        4378 --1243: 	{
                        4379 --1244: 		temp_RMND = RMND(UnitIndex, reg_idx).LONG;
00001574 0610           4380 	mov	r6,r2
00001576 cf12           4381 	shl	15,r2
00001578 409ed0ff       4382 	movhi	hi(-3145728),zero,r19
0000157c d311           4383 	add	r19,r2
0000157e 029ea800       4384 	addi	168,r2,r19
00001582 0110           4385 	mov	r1,r2
00001584 c212           4386 	shl	2,r2
00001586 02f0           4387 	mov	r2,ep
00001588 d3f1           4388 	add	r19,ep
0000158a 008d           4389 	sld.w	0[ep],r17
                        4390 --1245: 		if (temp_RMND == 0UL)
0000158c e089           4391 	cmp	zero,r17
0000158e d225*          4392 	be	.L1882
                        4393 --1246: 			continue;
                        4394 --1248: 		for (bit_idx = 0U; bit_idx < 32U; bit_idx++)
                        4395 --line1248
                        4396 ..lin.D.3A.5CCANFDGwMcuFirmRH850F1x.5Ccode.5CCANFDGwMcuFirmRH850F1x.5CCANFDGwMcuFirmRH850F1x.5Cprj.5CGHS.20MULTI.5CCAN.20Gateway.5Coutput.5Cobj.5Cpe1.5Crscanfd_drv.134::
                        4397 .LDWlin134:
00001590 0012           4398 	mov	0,r2
                        4399 .L1886:
                        4400 --1249: 		{
                        4401 --1250: 			new_data_flag = temp_RMND & (0x1UL << bit_idx);

                                                                      Page 75
                                                              C:\Users\TIEZHU~1\AppData\Local\Temp\gh_000076o1.si
00001592 019a           4402 	mov	1,r19
00001594 e29fc298       4403 	shl	r2,r19,r19
00001598 5199           4404 	and	r17,r19
                        4405 --1251: 			if (new_data_flag != 0UL)
0000159a e099           4406 	cmp	zero,r19
0000159c e215*          4407 	be	.L1887
                        4408 --1252: 			{
                        4409 --1253: 				RmbIdx = reg_idx * 32 + bit_idx;
                        4410 --line1253
                        4411 ..lin.D.3A.5CCANFDGwMcuFirmRH850F1x.5Ccode.5CCANFDGwMcuFirmRH850F1x.5CCANFDGwMcuFirmRH850F1x.5Cprj.5CGHS.20MULTI.5CCAN.20Gateway.5Coutput.5Cobj.5Cpe1.5Crscanfd_drv.135::
                        4412 .LDWlin135:
0000159e 0190           4413 	mov	r1,r18
000015a0 c592           4414 	shl	5,r18
000015a2 d211           4415 	add	r18,r2
000015a4 8200           4416 	zxb	r2
000015a6 0290           4417 	mov	r2,r18
                        4418 --1254: 				RMND(UnitIndex, reg_idx).LONG = (~new_data_flag) & temp_RMND;
000015a8 0610           4419 	mov	r6,r2
000015aa cf12           4420 	shl	15,r2
000015ac 4086d0ff       4421 	movhi	hi(-3145728),zero,r16
000015b0 d011           4422 	add	r16,r2
000015b2 0286a800       4423 	addi	168,r2,r16
000015b6 0110           4424 	mov	r1,r2
000015b8 c212           4425 	shl	2,r2
000015ba 02f0           4426 	mov	r2,ep
000015bc d0f1           4427 	add	r16,ep
000015be 3398           4428 	not	r19,r19
000015c0 1110           4429 	mov	r17,r2
000015c2 5311           4430 	and	r19,r2
000015c4 0115           4431 	sst.w	r2,0[ep]
                        4432 --1255: 				break;
000015c6 e505*          4433 	br	.L1889
                        4434 .L1887:
                        4435 --line1248
                        4436 ..lin.D.3A.5CCANFDGwMcuFirmRH850F1x.5Ccode.5CCANFDGwMcuFirmRH850F1x.5CCANFDGwMcuFirmRH850F1x.5Cprj.5CGHS.20MULTI.5CCAN.20Gateway.5Coutput.5Cobj.5Cpe1.5Crscanfd_drv.136::
                        4437 .LDWlin136:
000015c8 4112           4438 	add	1,r2
000015ca 8200           4439 	zxb	r2
000015cc 0206e0ff       4440 	addi	-32,r2,zero
000015d0 99e5*          4441 	bnl	.L1886
                        4442 .L1889:
                        4443 --1256: 			}
                        4444 --1257: 		}
                        4445 --1258: 		if (RmbIdx != 255U)
                        4446 --line1258
                        4447 ..lin.D.3A.5CCANFDGwMcuFirmRH850F1x.5Ccode.5CCANFDGwMcuFirmRH850F1x.5CCANFDGwMcuFirmRH850F1x.5Cprj.5CGHS.20MULTI.5CCAN.20Gateway.5Coutput.5Cobj.5Cpe1.5Crscanfd_drv.137::
                        4448 .LDWlin137:
000015d2 120601ff       4449 	addi	-255,r18,zero
000015d6 da05*          4450 	bne	.L1893
                        4451 .L1882:
                        4452 --1259: 			break;
                        4453 --line1242
                        4454 ..lin.D.3A.5CCANFDGwMcuFirmRH850F1x.5Ccode.5CCANFDGwMcuFirmRH850F1x.5CCANFDGwMcuFirmRH850F1x.5Cprj.5CGHS.20MULTI.5CCAN.20Gateway.5Coutput.5Cobj.5Cpe1.5Crscanfd_drv.138::
                        4455 .LDWlin138:
000015d8 410a           4456 	add	1,r1
000015da 8100           4457 	zxb	r1
000015dc 630a           4458 	cmp	3,r1
000015de b1cd*          4459 	bl	.L1879
                        4460 .L1893:
                        4461 --1260: 	}
                        4462 --1262: 	return RmbIdx;

                                                                      Page 76
                                                              C:\Users\TIEZHU~1\AppData\Local\Temp\gh_000076o1.si
                        4463 --line1262
                        4464 ..lin.D.3A.5CCANFDGwMcuFirmRH850F1x.5Ccode.5CCANFDGwMcuFirmRH850F1x.5CCANFDGwMcuFirmRH850F1x.5Cprj.5CGHS.20MULTI.5CCAN.20Gateway.5Coutput.5Cobj.5Cpe1.5Crscanfd_drv.139::
                        4465 .LDWlin139:
000015e0 1250           4466 	mov	r18,r10
                        4467 --	    .ef
                        4468 .LDW59:
000015e2 7f00           4469 	jmp	[lp]
                        4470 	.type	_RSCFD_GetRMBNewDataBufferIndex,@function
                        4471 	.size	_RSCFD_GetRMBNewDataBufferIndex,.-_RSCFD_GetRMBNewDataBufferIndex
                        4472 	.align	2
                        4473 .LDW69:
                        4474 --_new_data_flag	r19	local
                        4475 --_reg_idx	r1	local
                        4476 --_bit_idx	r2	local
                        4477 --_temp_RMND	r17	local
                        4478 --_RmbIdx	r18	local
                        4479 
                        4480 --_UnitIndex	r6	param
                        4481 
                        4482 	.data
                        4483 	.text
                        4484 
                        4485 --1263: } /* End of RSCFD_GetRMBNewDataBufferIndex() */
                        4486 
                        4487 --1265: /***********************************************************************************************************************
                        4488 --1266:  * Function Name: RSCFD_SetRMB
                        4489 --1267:  * Description  : set reception message buffer
                        4490 --1268:  * Arguments    : UnitIndex -
                        4491 --1269:  *              :   specified unit
                        4492 --1270:  *              : Number -
                        4493 --1271:  *              :   number of used reception message buffer
                        4494 --1272:  *              : Size -
                        4495 --1273:  *              :   reception message buffer payload data size
                        4496 --1274:  * Return Value : none
                        4497 --1275:  ***********************************************************************************************************************/
                        4498 --1276: void RSCFD_SetRMB(RSCFD_U8 UnitIndex, RSCFD_U8 Number, RSCFD_RMBPayloadSize Size)
                        4499 	.align	2
                        4500 	.align	2
                        4501 	.global	_RSCFD_SetRMB
                        4502 _RSCFD_SetRMB:
000015e4 8600           4503 	zxb	r6
000015e6 8700           4504 	zxb	r7
                        4505 --	    .bf
                        4506 .LDW79:
                        4507 --1277: {
                        4508 --1278: 	RMNB(UnitIndex).BIT.NRXMB = Number;
000015e8 0608           4509 	mov	r6,r1
000015ea cf0a           4510 	shl	15,r1
000015ec 4016d0ff       4511 	movhi	hi(-3145728),zero,r2
000015f0 c209           4512 	add	r2,r1
000015f2 01f6a400       4513 	addi	164,r1,ep
000015f6 000d           4514 	sld.w	0[ep],r1
000015f8 e70fd070       4515 	bins	r7,0,8,r1
000015fc 010d           4516 	sst.w	r1,0[ep]
                        4517 --1279: 	if (CFDGRMCFG(UnitIndex).BIT.RCMC == 1)
000015fe 0608           4518 	mov	r6,r1
00001600 cf0a           4519 	shl	15,r1
00001602 4016d0ff       4520 	movhi	hi(-3145728),zero,r2
00001606 c209           4521 	add	r2,r1
00001608 01f6fc04       4522 	addi	1276,r1,ep
0000160c 000d           4523 	sld.w	0[ep],r1

                                                                      Page 77
                                                              C:\Users\TIEZHU~1\AppData\Local\Temp\gh_000076o1.si
0000160e c10e0100       4524 	andi	1,r1,r1
00001612 e009           4525 	cmp	zero,r1
00001614 c20d*          4526 	be	.L1963
                        4527 --1280: 	{
                        4528 --1281: 		CFDRMNB(UnitIndex).BIT.RMPLS = (RSCFD_U32) Size;
                        4529 --line1281
                        4530 ..lin.D.3A.5CCANFDGwMcuFirmRH850F1x.5Ccode.5CCANFDGwMcuFirmRH850F1x.5CCANFDGwMcuFirmRH850F1x.5Cprj.5CGHS.20MULTI.5CCAN.20Gateway.5Coutput.5Cobj.5Cpe1.5Crscanfd_drv.140::
                        4531 .LDWlin140:
00001616 0608           4532 	mov	r6,r1
00001618 cf0a           4533 	shl	15,r1
0000161a 4016d0ff       4534 	movhi	hi(-3145728),zero,r2
0000161e c209           4535 	add	r2,r1
00001620 01f6a400       4536 	addi	164,r1,ep
00001624 000d           4537 	sld.w	0[ep],r1
00001626 e80fd098       4538 	bins	r8,8,2,r1
0000162a 010d           4539 	sst.w	r1,0[ep]
                        4540 .L1963:
                        4541 --1282: 	}
                        4542 --1283: } /* End of RSCFD_SetRMB() */
                        4543 --	    .ef
                        4544 .LDW89:
0000162c 7f00           4545 	jmp	[lp]
                        4546 	.type	_RSCFD_SetRMB,@function
                        4547 	.size	_RSCFD_SetRMB,.-_RSCFD_SetRMB
                        4548 	.align	2
                        4549 .LDW99:
                        4550 
                        4551 --_UnitIndex	r6	param
                        4552 --_Number	r7	param
                        4553 --_Size	r8	param
                        4554 
                        4555 	.data
                        4556 	.text
                        4557 
                        4558 
                        4559 --1285: /***********************************************************************************************************************
                        4560 --1286:  * Function Name: RSCFD_ReadRMB
                        4561 --1287:  * Description  : read frame information from reception message buffer
                        4562 --1288:  * Arguments    : UnitIndex -
                        4563 --1289:  *              :   specified unit
                        4564 --1290:  *              : RmbIndex
                        4565 --1291:  *              :   specified reception message buffer index
                        4566 --1292:  *              : pFrame -
                        4567 --1293:  *              :   pointer to where frame will be stored
                        4568 --1294:  *              : pTimeStamp -
                        4569 --1295:  *              :   pointer to where time stamp will be stored
                        4570 --1296:  *              : pLabel -
                        4571 --1297:  *              :   pointer to where label will be stored
                        4572 --1298:  * Return Value : none
                        4573 --1299:  ***********************************************************************************************************************/
                        4574 --1300: void RSCFD_ReadRMB(RSCFD_U8 UnitIndex, RSCFD_U8 RmbIndex, RSCFD_Frame* pFrame, RSCFD_U16* pTimeStamp, RSCFD_U16* pLabel)
                        4575 	.align	2
                        4576 	.align	2
                        4577 	.global	_RSCFD_ReadRMB
                        4578 _RSCFD_ReadRMB:
0000162e 031ed0ff       4579 	addi	-48,sp,sp
00001632 8600           4580 	zxb	r6
00001634 8700           4581 	zxb	r7
00001636 08f0           4582 	mov	r8,ep
00001638 23173100       4583 	ld.w	48[sp],r2
                        4584 --	    .bf

                                                                      Page 78
                                                              C:\Users\TIEZHU~1\AppData\Local\Temp\gh_000076o1.si
                        4585 .LDW001:
                        4586 --1301: {
                        4587 --1302: 	T_RMBCP temp_RMBCP;
                        4588 --1303: 	T_CFDRMBCP temp_CFDRMBCP;
                        4589 --1304: 	RSCFD_U8 i;
                        4590 --1305: 	RSCFD_U8 payload_size;
                        4591 --1307: 	if (CFDGRMCFG(UnitIndex).BIT.RCMC == 0)
0000163c 0608           4592 	mov	r6,r1
0000163e cf0a           4593 	shl	15,r1
00001640 409ed0ff       4594 	movhi	hi(-3145728),zero,r19
00001644 d309           4595 	add	r19,r1
00001646 010efc04       4596 	addi	1276,r1,r1
0000164a 210f0100       4597 	ld.w	0[r1],r1
0000164e c10e0100       4598 	andi	1,r1,r1
00001652 e009           4599 	cmp	zero,r1
00001654 fa55*          4600 	bne	.L1994
                        4601 --1308: 	{
                        4602 --1309: 		temp_RMBCP = RMBCP(UnitIndex, RmbIndex);
                        4603 --line1309
                        4604 ..lin.D.3A.5CCANFDGwMcuFirmRH850F1x.5Ccode.5CCANFDGwMcuFirmRH850F1x.5CCANFDGwMcuFirmRH850F1x.5Cprj.5CGHS.20MULTI.5CCAN.20Gateway.5Coutput.5Cobj.5Cpe1.5Crscanfd_drv.141::
                        4605 .LDWlin141:
00001656 0608           4606 	mov	r6,r1
00001658 cf0a           4607 	shl	15,r1
0000165a 409ed0ff       4608 	movhi	hi(-3145728),zero,r19
0000165e d309           4609 	add	r19,r1
00001660 019e0006       4610 	addi	1536,r1,r19
00001664 0708           4611 	mov	r7,r1
00001666 c40a           4612 	shl	4,r1
00001668 d309           4613 	add	r19,r1
0000166a 239e2000       4614 	movea	32,sp,r19
0000166e a10709800000   4615 	ld.dw	0[r1],r16
00001674 a10789700000   4616 	ld.dw	8[r1],r14
0000167a b3070f800000   4617 	st.dw	r16,0[r19]
00001680 b3078f700000   4618 	st.dw	r14,8[r19]
                        4619 --1310: 		if (temp_RMBCP.RMID.BIT.RMIDE == 0)
00001686 230f2100       4620 	ld.w	32[sp],r1
0000168a 409e0080       4621 	movhi	hi(-2147483648),zero,r19
0000168e 5309           4622 	and	r19,r1
00001690 e009           4623 	cmp	zero,r1
00001692 ba05*          4624 	bne	.L1996
                        4625 --1311: 		{
                        4626 --1312: 			pFrame->Format = RSCFD_FRAME_FORMAT_CLASSICAL_BASE;
                        4627 --line1312
                        4628 ..lin.D.3A.5CCANFDGwMcuFirmRH850F1x.5Ccode.5CCANFDGwMcuFirmRH850F1x.5CCANFDGwMcuFirmRH850F1x.5Cprj.5CGHS.20MULTI.5CCAN.20Gateway.5Coutput.5Cobj.5Cpe1.5Crscanfd_drv.142::
                        4629 .LDWlin142:
00001694 0105           4630 	sst.w	zero,0[ep]
00001696 b505*          4631 	br	.L1998
                        4632 .L1996:
                        4633 --1313: 		}
                        4634 --1314: 		else
                        4635 --1315: 		{
                        4636 --1316: 			pFrame->Format = RSCFD_FRAME_FORMAT_CLASSICAL_EXTENDED;
                        4637 --line1316
                        4638 ..lin.D.3A.5CCANFDGwMcuFirmRH850F1x.5Ccode.5CCANFDGwMcuFirmRH850F1x.5CCANFDGwMcuFirmRH850F1x.5Cprj.5CGHS.20MULTI.5CCAN.20Gateway.5Coutput.5Cobj.5Cpe1.5Crscanfd_drv.143::
                        4639 .LDWlin143:
00001698 010a           4640 	mov	1,r1
0000169a 010d           4641 	sst.w	r1,0[ep]
                        4642 .L1998:
                        4643 --1317: 		}
                        4644 --1318: 		pFrame->Type = (RSCFD_FrameType) temp_RMBCP.RMID.BIT.RMRTR;
0000169c 230f2100       4645 	ld.w	32[sp],r1

                                                                      Page 79
                                                              C:\Users\TIEZHU~1\AppData\Local\Temp\gh_000076o1.si
000016a0 c10a           4646 	shl	1,r1
000016a2 9f0a           4647 	shr	31,r1
000016a4 030d           4648 	sst.w	r1,4[ep]
                        4649 --1319: 		pFrame->ID = temp_RMBCP.RMID.BIT.RMID;
000016a6 230f2100       4650 	ld.w	32[sp],r1
000016aa c30a           4651 	shl	3,r1
000016ac 830a           4652 	shr	3,r1
000016ae 050d           4653 	sst.w	r1,8[ep]
                        4654 --1320: 		pFrame->DLC = temp_RMBCP.RMPTR.BIT.RMDLC;
000016b0 230f2500       4655 	ld.w	36[sp],r1
000016b4 9c0a           4656 	shr	28,r1
000016b6 8c0b           4657 	sst.b	r1,12[ep]
                        4658 --1321: 		if (pLabel != 0)
000016b8 e011           4659 	cmp	zero,r2
000016ba f205*          4660 	be	.L1999
                        4661 --1322: 		{
                        4662 --1323: 			*pLabel = temp_RMBCP.RMPTR.BIT.RMPTR;
                        4663 --line1323
                        4664 ..lin.D.3A.5CCANFDGwMcuFirmRH850F1x.5Ccode.5CCANFDGwMcuFirmRH850F1x.5CCANFDGwMcuFirmRH850F1x.5Cprj.5CGHS.20MULTI.5CCAN.20Gateway.5Coutput.5Cobj.5Cpe1.5Crscanfd_drv.144::
                        4665 .LDWlin144:
000016bc 230f2500       4666 	ld.w	36[sp],r1
000016c0 c40a           4667 	shl	4,r1
000016c2 940a           4668 	shr	20,r1
000016c4 620f0000       4669 	st.h	r1,0[r2]
                        4670 .L1999:
                        4671 --1324: 		}
                        4672 --1325: 		if (pTimeStamp != 0)
000016c8 e049           4673 	cmp	zero,r9
000016ca f205*          4674 	be	.L2001
                        4675 --1326: 		{
                        4676 --1327: 			*pTimeStamp = temp_RMBCP.RMPTR.BIT.RMTS;
                        4677 --line1327
                        4678 ..lin.D.3A.5CCANFDGwMcuFirmRH850F1x.5Ccode.5CCANFDGwMcuFirmRH850F1x.5CCANFDGwMcuFirmRH850F1x.5Cprj.5CGHS.20MULTI.5CCAN.20Gateway.5Coutput.5Cobj.5Cpe1.5Crscanfd_drv.145::
                        4679 .LDWlin145:
000016cc 230f2500       4680 	ld.w	36[sp],r1
000016d0 c10effff       4681 	andi	65535,r1,r1
000016d4 690f0000       4682 	st.h	r1,0[r9]
                        4683 .L2001:
                        4684 --1328: 		}
                        4685 --1329: 		for (i = 0U; i < 8U; i++)
000016d8 000a           4686 	mov	0,r1
                        4687 .L2005:
                        4688 --1330: 		{
                        4689 --1331: #if (CPU_ENDIAN_TYPE == CPU_ENDIAN_BIG)
                        4690 --1332: 			/* TBD */
                        4691 --1333: #else
                        4692 --1334: 			pFrame->Data[i] = temp_RMBCP.RMDF_RMDB[i];
000016da 1e9e0d00       4693 	addi	13,ep,r19
000016de 0110           4694 	mov	r1,r2
000016e0 d311           4695 	add	r19,r2
000016e2 239e2000       4696 	movea	32,sp,r19
000016e6 13960800       4697 	addi	8,r19,r18
000016ea 0198           4698 	mov	r1,r19
000016ec d299           4699 	add	r18,r19
000016ee 939f0100       4700 	ld.bu	0[r19],r19
000016f2 429f0000       4701 	st.b	r19,0[r2]
000016f6 410a           4702 	add	1,r1
000016f8 8100           4703 	zxb	r1
000016fa 680a           4704 	cmp	8,r1
000016fc f1ed*          4705 	bl	.L2005
000016fe 80073001*      4706 	br	.L1992

                                                                      Page 80
                                                              C:\Users\TIEZHU~1\AppData\Local\Temp\gh_000076o1.si
                        4707 .L1994:
                        4708 --1335: #endif
                        4709 --1336: 		}
                        4710 --1337: 	}
                        4711 --1338: 	else
                        4712 --1339: 	{
                        4713 --1340: 		temp_CFDRMBCP = CFDRMBCP(UnitIndex, RmbIndex);
                        4714 --line1340
                        4715 ..lin.D.3A.5CCANFDGwMcuFirmRH850F1x.5Ccode.5CCANFDGwMcuFirmRH850F1x.5CCANFDGwMcuFirmRH850F1x.5Cprj.5CGHS.20MULTI.5CCAN.20Gateway.5Coutput.5Cobj.5Cpe1.5Crscanfd_drv.146::
                        4716 .LDWlin146:
00001702 0608           4717 	mov	r6,r1
00001704 cf0a           4718 	shl	15,r1
00001706 409ed0ff       4719 	movhi	hi(-3145728),zero,r19
0000170a d309           4720 	add	r19,r1
0000170c 019e0020       4721 	addi	8192,r1,r19
00001710 0708           4722 	mov	r7,r1
00001712 c50a           4723 	shl	5,r1
00001714 d309           4724 	add	r19,r1
00001716 239e0000       4725 	movea	0,sp,r19
0000171a a10709800000   4726 	ld.dw	0[r1],r16
00001720 a10789700000   4727 	ld.dw	8[r1],r14
00001726 a10709610000   4728 	ld.dw	16[r1],r12
0000172c a10789510000   4729 	ld.dw	24[r1],r10
00001732 b3070f800000   4730 	st.dw	r16,0[r19]
00001738 b3078f700000   4731 	st.dw	r14,8[r19]
0000173e b3070f610000   4732 	st.dw	r12,16[r19]
00001744 b3078f510000   4733 	st.dw	r10,24[r19]
                        4734 --1341: 		pFrame->BRS = temp_CFDRMBCP.CFDRMFDSTS.BIT.RMBRS;
0000174a 230f0900       4735 	ld.w	8[sp],r1
0000174e de0a           4736 	shl	30,r1
00001750 9f0a           4737 	shr	31,r1
00001752 cd0b           4738 	sst.b	r1,77[ep]
                        4739 --1342: 		pFrame->ESI = temp_CFDRMBCP.CFDRMFDSTS.BIT.RMESI;
00001754 230f0900       4740 	ld.w	8[sp],r1
00001758 c10e0100       4741 	andi	1,r1,r1
0000175c ce0b           4742 	sst.b	r1,78[ep]
                        4743 --1343: 		if (temp_CFDRMBCP.CFDRMID.BIT.RMIDE == 0)
0000175e 230f0100       4744 	ld.w	0[sp],r1
00001762 409e0080       4745 	movhi	hi(-2147483648),zero,r19
00001766 5309           4746 	and	r19,r1
00001768 e009           4747 	cmp	zero,r1
0000176a ca0d*          4748 	bne	.L2007
                        4749 --1344: 		{
                        4750 --1345: 			if (temp_CFDRMBCP.CFDRMFDSTS.BIT.RMFDF)
                        4751 --line1345
                        4752 ..lin.D.3A.5CCANFDGwMcuFirmRH850F1x.5Ccode.5CCANFDGwMcuFirmRH850F1x.5CCANFDGwMcuFirmRH850F1x.5Cprj.5CGHS.20MULTI.5CCAN.20Gateway.5Coutput.5Cobj.5Cpe1.5Crscanfd_drv.147::
                        4753 .LDWlin147:
0000176c 230f0900       4754 	ld.w	8[sp],r1
00001770 c10e0400       4755 	andi	4,r1,r1
00001774 e009           4756 	cmp	zero,r1
00001776 c205*          4757 	be	.L2009
                        4758 --1346: 			{
                        4759 --1347: 				pFrame->Format = RSCFD_FRAME_FORMAT_FD_BASE;
                        4760 --line1347
                        4761 ..lin.D.3A.5CCANFDGwMcuFirmRH850F1x.5Ccode.5CCANFDGwMcuFirmRH850F1x.5CCANFDGwMcuFirmRH850F1x.5Cprj.5CGHS.20MULTI.5CCAN.20Gateway.5Coutput.5Cobj.5Cpe1.5Crscanfd_drv.148::
                        4762 .LDWlin148:
00001778 020a           4763 	mov	2,r1
0000177a 010d           4764 	sst.w	r1,0[ep]
0000177c e50d*          4765 	br	.L2012
                        4766 .L2009:
                        4767 --1348: 			}

                                                                      Page 81
                                                              C:\Users\TIEZHU~1\AppData\Local\Temp\gh_000076o1.si
                        4768 --1349: 			else
                        4769 --1350: 			{
                        4770 --1351: 				pFrame->Format = RSCFD_FRAME_FORMAT_CLASSICAL_BASE;
                        4771 --line1351
                        4772 ..lin.D.3A.5CCANFDGwMcuFirmRH850F1x.5Ccode.5CCANFDGwMcuFirmRH850F1x.5CCANFDGwMcuFirmRH850F1x.5Cprj.5CGHS.20MULTI.5CCAN.20Gateway.5Coutput.5Cobj.5Cpe1.5Crscanfd_drv.149::
                        4773 .LDWlin149:
0000177e 0105           4774 	sst.w	zero,0[ep]
00001780 c50d*          4775 	br	.L2012
                        4776 .L2007:
                        4777 --1352: 			}
                        4778 --1353: 		}
                        4779 --1354: 		else
                        4780 --1355: 		{
                        4781 --1356: 			if (temp_CFDRMBCP.CFDRMFDSTS.BIT.RMFDF)
                        4782 --line1356
                        4783 ..lin.D.3A.5CCANFDGwMcuFirmRH850F1x.5Ccode.5CCANFDGwMcuFirmRH850F1x.5CCANFDGwMcuFirmRH850F1x.5Cprj.5CGHS.20MULTI.5CCAN.20Gateway.5Coutput.5Cobj.5Cpe1.5Crscanfd_drv.150::
                        4784 .LDWlin150:
00001782 230f0900       4785 	ld.w	8[sp],r1
00001786 c10e0400       4786 	andi	4,r1,r1
0000178a e009           4787 	cmp	zero,r1
0000178c c205*          4788 	be	.L2013
                        4789 --1357: 			{
                        4790 --1358: 				pFrame->Format = RSCFD_FRAME_FORMAT_FD_EXTENDED;
                        4791 --line1358
                        4792 ..lin.D.3A.5CCANFDGwMcuFirmRH850F1x.5Ccode.5CCANFDGwMcuFirmRH850F1x.5CCANFDGwMcuFirmRH850F1x.5Cprj.5CGHS.20MULTI.5CCAN.20Gateway.5Coutput.5Cobj.5Cpe1.5Crscanfd_drv.151::
                        4793 .LDWlin151:
0000178e 030a           4794 	mov	3,r1
00001790 010d           4795 	sst.w	r1,0[ep]
00001792 b505*          4796 	br	.L2012
                        4797 .L2013:
                        4798 --1359: 			}
                        4799 --1360: 			else
                        4800 --1361: 			{
                        4801 --1362: 				pFrame->Format = RSCFD_FRAME_FORMAT_CLASSICAL_EXTENDED;
                        4802 --line1362
                        4803 ..lin.D.3A.5CCANFDGwMcuFirmRH850F1x.5Ccode.5CCANFDGwMcuFirmRH850F1x.5CCANFDGwMcuFirmRH850F1x.5Cprj.5CGHS.20MULTI.5CCAN.20Gateway.5Coutput.5Cobj.5Cpe1.5Crscanfd_drv.152::
                        4804 .LDWlin152:
00001794 010a           4805 	mov	1,r1
00001796 010d           4806 	sst.w	r1,0[ep]
                        4807 .L2012:
                        4808 --1363: 			}
                        4809 --1364: 		}
                        4810 --1365: 		pFrame->Type = (RSCFD_FrameType) temp_CFDRMBCP.CFDRMID.BIT.RMRTR;
00001798 230f0100       4811 	ld.w	0[sp],r1
0000179c c10a           4812 	shl	1,r1
0000179e 9f0a           4813 	shr	31,r1
000017a0 030d           4814 	sst.w	r1,4[ep]
                        4815 --1366: 		pFrame->ID = temp_CFDRMBCP.CFDRMID.BIT.RMID;
000017a2 230f0100       4816 	ld.w	0[sp],r1
000017a6 c30a           4817 	shl	3,r1
000017a8 830a           4818 	shr	3,r1
000017aa 050d           4819 	sst.w	r1,8[ep]
                        4820 --1367: 		pFrame->DLC = temp_CFDRMBCP.CFDRMPTR.BIT.RMDLC;
000017ac 230f0500       4821 	ld.w	4[sp],r1
000017b0 9c0a           4822 	shr	28,r1
000017b2 8c0b           4823 	sst.b	r1,12[ep]
                        4824 --1368: 		if (pLabel != 0)
000017b4 e011           4825 	cmp	zero,r2
000017b6 f205*          4826 	be	.L2016
                        4827 --1369: 		{
                        4828 --1370: 			*pLabel = temp_CFDRMBCP.CFDRMPTR.BIT.RMPTR;

                                                                      Page 82
                                                              C:\Users\TIEZHU~1\AppData\Local\Temp\gh_000076o1.si
                        4829 --line1370
                        4830 ..lin.D.3A.5CCANFDGwMcuFirmRH850F1x.5Ccode.5CCANFDGwMcuFirmRH850F1x.5CCANFDGwMcuFirmRH850F1x.5Cprj.5CGHS.20MULTI.5CCAN.20Gateway.5Coutput.5Cobj.5Cpe1.5Crscanfd_drv.153::
                        4831 .LDWlin153:
000017b8 230f0500       4832 	ld.w	4[sp],r1
000017bc c40a           4833 	shl	4,r1
000017be 940a           4834 	shr	20,r1
000017c0 620f0000       4835 	st.h	r1,0[r2]
                        4836 .L2016:
                        4837 --1371: 		}
                        4838 --1372: 		if (pTimeStamp != 0)
000017c4 e049           4839 	cmp	zero,r9
000017c6 f205*          4840 	be	.L2018
                        4841 --1373: 		{
                        4842 --1374: 			*pTimeStamp = temp_CFDRMBCP.CFDRMPTR.BIT.RMTS;
                        4843 --line1374
                        4844 ..lin.D.3A.5CCANFDGwMcuFirmRH850F1x.5Ccode.5CCANFDGwMcuFirmRH850F1x.5CCANFDGwMcuFirmRH850F1x.5Cprj.5CGHS.20MULTI.5CCAN.20Gateway.5Coutput.5Cobj.5Cpe1.5Crscanfd_drv.154::
                        4845 .LDWlin154:
000017c8 230f0500       4846 	ld.w	4[sp],r1
000017cc c10effff       4847 	andi	65535,r1,r1
000017d0 690f0000       4848 	st.h	r1,0[r9]
                        4849 .L2018:
                        4850 --1375: 		}
                        4851 --1376: 		/* Consider CFDRMNB.BIT.RMPLS. */
                        4852 --1377: 		payload_size = _RmbPayloadSizeMap[CFDRMNB(UnitIndex).BIT.RMPLS];
000017d4 0608           4853 	mov	r6,r1
000017d6 cf0a           4854 	shl	15,r1
000017d8 4016d0ff       4855 	movhi	hi(-3145728),zero,r2
000017dc c209           4856 	add	r2,r1
000017de 010ea400       4857 	addi	164,r1,r1
000017e2 210f0100       4858 	ld.w	0[r1],r1
000017e6 d60a           4859 	shl	22,r1
000017e8 9e0a           4860 	shr	30,r1
000017ea 25160000*      4861 	movea	sdaoff2(__RmbPayloadSizeMap),r5,r2
000017ee c209           4862 	add	r2,r1
000017f0 81970100       4863 	ld.bu	0[r1],r18
                        4864 --1378: 		for (i = 0U; i < 64; i++)
000017f4 000a           4865 	mov	0,r1
                        4866 .L2022:
                        4867 --1379: 		{
                        4868 --1380: 			if (i < payload_size)
000017f6 f209           4869 	cmp	r18,r1
000017f8 8915*          4870 	bnl	.L2023
                        4871 --1381: 			{
                        4872 --1382: #if (CPU_ENDIAN_TYPE == CPU_ENDIAN_BIG)
                        4873 --1383: 				/* TBD */
                        4874 --1384: #else
                        4875 --1385: 				pFrame->Data[i] = temp_CFDRMBCP.CFDRMDF_RMDB[i];
                        4876 --line1385
                        4877 ..lin.D.3A.5CCANFDGwMcuFirmRH850F1x.5Ccode.5CCANFDGwMcuFirmRH850F1x.5CCANFDGwMcuFirmRH850F1x.5Cprj.5CGHS.20MULTI.5CCAN.20Gateway.5Coutput.5Cobj.5Cpe1.5Crscanfd_drv.155::
                        4878 .LDWlin155:
000017fa 1e9e0d00       4879 	addi	13,ep,r19
000017fe 0110           4880 	mov	r1,r2
00001800 d311           4881 	add	r19,r2
00001802 239e0000       4882 	movea	0,sp,r19
00001806 138e0c00       4883 	addi	12,r19,r17
0000180a 0198           4884 	mov	r1,r19
0000180c d199           4885 	add	r17,r19
0000180e 939f0100       4886 	ld.bu	0[r19],r19
00001812 429f0000       4887 	st.b	r19,0[r2]
00001816 f505*          4888 	br	.L2025
                        4889 .L2023:

                                                                      Page 83
                                                              C:\Users\TIEZHU~1\AppData\Local\Temp\gh_000076o1.si
                        4890 --1386: #endif
                        4891 --1387: 			}
                        4892 --1388: 			else
                        4893 --1389: 			{
                        4894 --1390: 				pFrame->Data[i] = 0;
                        4895 --line1390
                        4896 ..lin.D.3A.5CCANFDGwMcuFirmRH850F1x.5Ccode.5CCANFDGwMcuFirmRH850F1x.5CCANFDGwMcuFirmRH850F1x.5Cprj.5CGHS.20MULTI.5CCAN.20Gateway.5Coutput.5Cobj.5Cpe1.5Crscanfd_drv.156::
                        4897 .LDWlin156:
00001818 1e9e0d00       4898 	addi	13,ep,r19
0000181c 0110           4899 	mov	r1,r2
0000181e d311           4900 	add	r19,r2
00001820 42070000       4901 	st.b	zero,0[r2]
                        4902 .L2025:
00001824 410a           4903 	add	1,r1
00001826 8100           4904 	zxb	r1
00001828 0106c0ff       4905 	addi	-64,r1,zero
0000182c d9e5*          4906 	bnl	.L2022
                        4907 .L1992:
                        4908 --1391: 			}
                        4909 --1392: 		}
                        4910 --1393: 	}
                        4911 --1394: } /* End of RSCFD_ReadRMB() */
                        4912 --	    .ef
                        4913 .LDW101:
                        4914 --line1394
                        4915 ..lin.D.3A.5CCANFDGwMcuFirmRH850F1x.5Ccode.5CCANFDGwMcuFirmRH850F1x.5CCANFDGwMcuFirmRH850F1x.5Cprj.5CGHS.20MULTI.5CCAN.20Gateway.5Coutput.5Cobj.5Cpe1.5Crscanfd_drv.157::
                        4916 .LDWlin157:
0000182e 031e3000       4917 	addi	48,sp,sp
00001832 7f00           4918 	jmp	[lp]
                        4919 	.type	_RSCFD_ReadRMB,@function
                        4920 	.size	_RSCFD_ReadRMB,.-_RSCFD_ReadRMB
                        4921 	.align	2
                        4922 .LDW201:
                        4923 --_temp_RMBCP	32[sp]	local
                        4924 --_temp_CFDRMBCP	0[sp]	local
                        4925 --_i	r1	local
                        4926 --_payload_size	r18	local
                        4927 
                        4928 --_UnitIndex	r6	param
                        4929 --_RmbIndex	r7	param
                        4930 --_pFrame	ep	param
                        4931 --_pTimeStamp	r9	param
                        4932 --_pLabel	r2	param
                        4933 
                        4934 	.data
                        4935 	.text
                        4936 
                        4937 
                        4938 --1396: /***********************************************************************************************************************
                        4939 --1397:  * Function Name: RSCFD_SetRFIFO
                        4940 --1398:  * Description  : set Rx fifo for specified unit
                        4941 --1399:  * Arguments    : UnitIndex -
                        4942 --1400:  *              :   specified unit
                        4943 --1401:  *              : Index -
                        4944 --1402:  *              :   specified Rx fifo index
                        4945 --1403:  *              : Depth -
                        4946 --1404:  *              :   specified fifo depth
                        4947 --1405:  *              : Payload -
                        4948 --1406:  *              :   specified pay load data size
                        4949 --1407:  * Return Value : none
                        4950 --1408:  ***********************************************************************************************************************/

                                                                      Page 84
                                                              C:\Users\TIEZHU~1\AppData\Local\Temp\gh_000076o1.si
                        4951 --1409: void RSCFD_SetRFIFO(RSCFD_U8 UnitIndex, RSCFD_U8 Index, RSCFD_FIFODepth Depth, RSCFD_FIFOPayloadSize Payload)
                        4952 	.align	2
                        4953 	.align	2
                        4954 	.global	_RSCFD_SetRFIFO
                        4955 _RSCFD_SetRFIFO:
00001834 8600           4956 	zxb	r6
00001836 8700           4957 	zxb	r7
                        4958 --	    .bf
                        4959 .LDW301:
                        4960 --1410: {
                        4961 --1411: 	RFCC(UnitIndex, Index).LONG = 0UL;
00001838 0608           4962 	mov	r6,r1
0000183a cf0a           4963 	shl	15,r1
0000183c 4016d0ff       4964 	movhi	hi(-3145728),zero,r2
00001840 c209           4965 	add	r2,r1
00001842 0116b800       4966 	addi	184,r1,r2
00001846 0708           4967 	mov	r7,r1
00001848 c20a           4968 	shl	2,r1
0000184a 01f0           4969 	mov	r1,ep
0000184c c2f1           4970 	add	r2,ep
0000184e 0105           4971 	sst.w	zero,0[ep]
                        4972 --1412: 	RFCC(UnitIndex, Index).BIT.RFDC = (RSCFD_U32) Depth;
00001850 0608           4973 	mov	r6,r1
00001852 cf0a           4974 	shl	15,r1
00001854 4016d0ff       4975 	movhi	hi(-3145728),zero,r2
00001858 c209           4976 	add	r2,r1
0000185a 0116b800       4977 	addi	184,r1,r2
0000185e 0708           4978 	mov	r7,r1
00001860 c20a           4979 	shl	2,r1
00001862 01f0           4980 	mov	r1,ep
00001864 c2f1           4981 	add	r2,ep
00001866 000d           4982 	sld.w	0[ep],r1
00001868 e80fd0a8       4983 	bins	r8,8,3,r1
0000186c 010d           4984 	sst.w	r1,0[ep]
                        4985 --1413: 	if (CFDGRMCFG(UnitIndex).BIT.RCMC == 1)
0000186e 0608           4986 	mov	r6,r1
00001870 cf0a           4987 	shl	15,r1
00001872 4016d0ff       4988 	movhi	hi(-3145728),zero,r2
00001876 c209           4989 	add	r2,r1
00001878 01f6fc04       4990 	addi	1276,r1,ep
0000187c 000d           4991 	sld.w	0[ep],r1
0000187e c10e0100       4992 	andi	1,r1,r1
00001882 e009           4993 	cmp	zero,r1
00001884 9215*          4994 	be	.L2218
                        4995 --1414: 	{
                        4996 --1415: 		CFDRFCC(UnitIndex, Index).BIT.RFPLS = (RSCFD_U32) Payload;
                        4997 --line1415
                        4998 ..lin.D.3A.5CCANFDGwMcuFirmRH850F1x.5Ccode.5CCANFDGwMcuFirmRH850F1x.5CCANFDGwMcuFirmRH850F1x.5Cprj.5CGHS.20MULTI.5CCAN.20Gateway.5Coutput.5Cobj.5Cpe1.5Crscanfd_drv.158::
                        4999 .LDWlin158:
00001886 0608           5000 	mov	r6,r1
00001888 cf0a           5001 	shl	15,r1
0000188a 4016d0ff       5002 	movhi	hi(-3145728),zero,r2
0000188e c209           5003 	add	r2,r1
00001890 0116b800       5004 	addi	184,r1,r2
00001894 0708           5005 	mov	r7,r1
00001896 c20a           5006 	shl	2,r1
00001898 01f0           5007 	mov	r1,ep
0000189a c2f1           5008 	add	r2,ep
0000189c 000d           5009 	sld.w	0[ep],r1
0000189e e90fd860       5010 	bins	r9,4,3,r1
000018a2 010d           5011 	sst.w	r1,0[ep]

                                                                      Page 85
                                                              C:\Users\TIEZHU~1\AppData\Local\Temp\gh_000076o1.si
000018a4 9515*          5012 	br	.L2216
                        5013 .L2218:
                        5014 --1416: 	}
                        5015 --1417: 	else
                        5016 --1418: 	{
                        5017 --1419: 		CFDRFCC(UnitIndex, Index).BIT.RFPLS = (RSCFD_U32) RSCFD_FIFO_PAYLOAD_8_BYTE;
                        5018 --line1419
                        5019 ..lin.D.3A.5CCANFDGwMcuFirmRH850F1x.5Ccode.5CCANFDGwMcuFirmRH850F1x.5CCANFDGwMcuFirmRH850F1x.5Cprj.5CGHS.20MULTI.5CCAN.20Gateway.5Coutput.5Cobj.5Cpe1.5Crscanfd_drv.159::
                        5020 .LDWlin159:
000018a6 0608           5021 	mov	r6,r1
000018a8 cf0a           5022 	shl	15,r1
000018aa 4016d0ff       5023 	movhi	hi(-3145728),zero,r2
000018ae c209           5024 	add	r2,r1
000018b0 0116b800       5025 	addi	184,r1,r2
000018b4 0708           5026 	mov	r7,r1
000018b6 c20a           5027 	shl	2,r1
000018b8 01f0           5028 	mov	r1,ep
000018ba c2f1           5029 	add	r2,ep
000018bc 000d           5030 	sld.w	0[ep],r1
000018be 20168fff       5031 	movea	-113,zero,r2
000018c2 4209           5032 	and	r2,r1
000018c4 010d           5033 	sst.w	r1,0[ep]
                        5034 .L2216:
                        5035 --1420: 	}
                        5036 --1421: } /* End of RSCFD_SetRFIFO() */
                        5037 --	    .ef
                        5038 .LDW401:
000018c6 7f00           5039 	jmp	[lp]
                        5040 	.type	_RSCFD_SetRFIFO,@function
                        5041 	.size	_RSCFD_SetRFIFO,.-_RSCFD_SetRFIFO
                        5042 	.align	2
                        5043 .LDW501:
                        5044 
                        5045 --_UnitIndex	r6	param
                        5046 --_Index	r7	param
                        5047 --_Depth	r8	param
                        5048 --_Payload	r9	param
                        5049 
                        5050 	.data
                        5051 	.text
                        5052 
                        5053 
                        5054 --1423: /***********************************************************************************************************************
                        5055 --1424:  * Function Name: RSCFD_SetRFIFOInterrupt
                        5056 --1425:  * Description  : set Rx fifo interrupt
                        5057 --1426:  * Arguments    : UnitIndex -
                        5058 --1427:  *              :   specified unit
                        5059 --1428:  *              : Index -
                        5060 --1429:  *              :   specified Rx fifo index
                        5061 --1430:  *              : Enable -
                        5062 --1431:  *              :   enable or disable Rx fifo interrupt
                        5063 --1432:  *              : Mode -
                        5064 --1433:  *              :   interrupt mode
                        5065 --1434:  *              : Counter -
                        5066 --1435:  *              :   Rx fifo interrupt generation counter value
                        5067 --1436:  * Return Value : none
                        5068 --1437:  ***********************************************************************************************************************/
                        5069 --1438: void RSCFD_SetRFIFOInterrupt(RSCFD_U8 UnitIndex, RSCFD_U8 Index, RSCFD_BOOL Enable, RSCFD_FIFOIntMode Mode,
                        5070 	.align	2
                        5071 	.align	2
                        5072 	.global	_RSCFD_SetRFIFOInterrupt

                                                                      Page 86
                                                              C:\Users\TIEZHU~1\AppData\Local\Temp\gh_000076o1.si
                        5073 _RSCFD_SetRFIFOInterrupt:
000018c8 8600           5074 	zxb	r6
000018ca 8700           5075 	zxb	r7
000018cc 8800           5076 	zxb	r8
000018ce 23170100       5077 	ld.w	0[sp],r2
                        5078 --	    .bf
                        5079 .LDW601:
                        5080 --1439:                              RSCFD_FIFOIntCounter Counter)
                        5081 --1440: {
                        5082 --1441: 	RFCC(UnitIndex, Index).BIT.RFIE = (RSCFD_U32) Enable;
000018d2 0608           5083 	mov	r6,r1
000018d4 cf0a           5084 	shl	15,r1
000018d6 409ed0ff       5085 	movhi	hi(-3145728),zero,r19
000018da d309           5086 	add	r19,r1
000018dc 019eb800       5087 	addi	184,r1,r19
000018e0 0708           5088 	mov	r7,r1
000018e2 c20a           5089 	shl	2,r1
000018e4 01f0           5090 	mov	r1,ep
000018e6 d3f1           5091 	add	r19,ep
000018e8 000d           5092 	sld.w	0[ep],r1
000018ea e80fd210       5093 	bins	r8,1,1,r1
000018ee 010d           5094 	sst.w	r1,0[ep]
                        5095 --1442: 	RFCC(UnitIndex, Index).BIT.RFIM = (RSCFD_U32) Mode;
000018f0 0608           5096 	mov	r6,r1
000018f2 cf0a           5097 	shl	15,r1
000018f4 409ed0ff       5098 	movhi	hi(-3145728),zero,r19
000018f8 d309           5099 	add	r19,r1
000018fa 019eb800       5100 	addi	184,r1,r19
000018fe 0708           5101 	mov	r7,r1
00001900 c20a           5102 	shl	2,r1
00001902 01f0           5103 	mov	r1,ep
00001904 d3f1           5104 	add	r19,ep
00001906 000d           5105 	sld.w	0[ep],r1
00001908 e90fd8c8       5106 	bins	r9,12,1,r1
0000190c 010d           5107 	sst.w	r1,0[ep]
                        5108 --1443: 	RFCC(UnitIndex, Index).BIT.RFIGCV = (RSCFD_U32) Counter;
0000190e 0608           5109 	mov	r6,r1
00001910 cf0a           5110 	shl	15,r1
00001912 409ed0ff       5111 	movhi	hi(-3145728),zero,r19
00001916 d309           5112 	add	r19,r1
00001918 019eb800       5113 	addi	184,r1,r19
0000191c 0708           5114 	mov	r7,r1
0000191e c20a           5115 	shl	2,r1
00001920 01f0           5116 	mov	r1,ep
00001922 d3f1           5117 	add	r19,ep
00001924 000d           5118 	sld.w	0[ep],r1
00001926 e20fdaf8       5119 	bins	r2,13,3,r1
0000192a 010d           5120 	sst.w	r1,0[ep]
                        5121 --1444: } /* End of RSCFD_SetRFIFOInterrupt() */
                        5122 --	    .ef
                        5123 .LDW701:
0000192c 7f00           5124 	jmp	[lp]
                        5125 	.type	_RSCFD_SetRFIFOInterrupt,@function
                        5126 	.size	_RSCFD_SetRFIFOInterrupt,.-_RSCFD_SetRFIFOInterrupt
                        5127 	.align	2
                        5128 .LDW801:
                        5129 
                        5130 --_UnitIndex	r6	param
                        5131 --_Index	r7	param
                        5132 --_Enable	r8	param
                        5133 --_Mode	r9	param

                                                                      Page 87
                                                              C:\Users\TIEZHU~1\AppData\Local\Temp\gh_000076o1.si
                        5134 --_Counter	r2	param
                        5135 
                        5136 	.data
                        5137 	.text
                        5138 
                        5139 
                        5140 --1446: /***********************************************************************************************************************
                        5141 --1447:  * Function Name: RSCFD_EnableRFIFOInterrupt
                        5142 --1448:  * Description  : enable Rx fifo interrupt
                        5143 --1449:  * Arguments    : UnitIndex -
                        5144 --1450:  *              :   specified unit
                        5145 --1451:  *              : Index -
                        5146 --1452:  *              :   specified Rx fifo index
                        5147 --1453:  * Return Value : none
                        5148 --1454:  ***********************************************************************************************************************/
                        5149 --1455: void RSCFD_EnableRFIFOInterrupt(RSCFD_U8 UnitIndex, RSCFD_U8 Index)
                        5150 	.align	2
                        5151 	.align	2
                        5152 	.global	_RSCFD_EnableRFIFOInterrupt
                        5153 _RSCFD_EnableRFIFOInterrupt:
0000192e 8600           5154 	zxb	r6
00001930 8700           5155 	zxb	r7
                        5156 --	    .bf
                        5157 .LDW901:
                        5158 --1456: {
                        5159 --1457: 	RFCC(UnitIndex, Index).BIT.RFIE = RSCFD_TRUE;
00001932 0608           5160 	mov	r6,r1
00001934 cf0a           5161 	shl	15,r1
00001936 4016d0ff       5162 	movhi	hi(-3145728),zero,r2
0000193a c209           5163 	add	r2,r1
0000193c 0116b800       5164 	addi	184,r1,r2
00001940 0708           5165 	mov	r7,r1
00001942 c20a           5166 	shl	2,r1
00001944 01f0           5167 	mov	r1,ep
00001946 c2f1           5168 	add	r2,ep
00001948 000d           5169 	sld.w	0[ep],r1
0000194a 810e0200       5170 	ori	2,r1,r1
0000194e 010d           5171 	sst.w	r1,0[ep]
                        5172 --1458: } /* End of RSCFD_EnableRFIFOInterrupt() */
                        5173 --	    .ef
                        5174 .LDW011:
00001950 7f00           5175 	jmp	[lp]
                        5176 	.type	_RSCFD_EnableRFIFOInterrupt,@function
                        5177 	.size	_RSCFD_EnableRFIFOInterrupt,.-_RSCFD_EnableRFIFOInterrupt
                        5178 	.align	2
                        5179 .LDW111:
                        5180 
                        5181 --_UnitIndex	r6	param
                        5182 --_Index	r7	param
                        5183 
                        5184 	.data
                        5185 	.text
                        5186 
                        5187 
                        5188 --1460: /***********************************************************************************************************************
                        5189 --1461:  * Function Name: RSCFD_DisableRFIFOInterrupt
                        5190 --1462:  * Description  : disable Rx fifo interrupt
                        5191 --1463:  * Arguments    : UnitIndex -
                        5192 --1464:  *              :   specified unit
                        5193 --1465:  *              : Index -
                        5194 --1466:  *              :   specified Rx fifo index

                                                                      Page 88
                                                              C:\Users\TIEZHU~1\AppData\Local\Temp\gh_000076o1.si
                        5195 --1467:  * Return Value : none
                        5196 --1468:  ***********************************************************************************************************************/
                        5197 --1469: void RSCFD_DisableRFIFOInterrupt(RSCFD_U8 UnitIndex, RSCFD_U8 Index)
                        5198 	.align	2
                        5199 	.align	2
                        5200 	.global	_RSCFD_DisableRFIFOInterrupt
                        5201 _RSCFD_DisableRFIFOInterrupt:
00001952 8600           5202 	zxb	r6
00001954 8700           5203 	zxb	r7
                        5204 --	    .bf
                        5205 .LDW211:
                        5206 --1470: {
                        5207 --1471: 	RFCC(UnitIndex, Index).BIT.RFIE = RSCFD_FALSE;
00001956 0608           5208 	mov	r6,r1
00001958 cf0a           5209 	shl	15,r1
0000195a 4016d0ff       5210 	movhi	hi(-3145728),zero,r2
0000195e c209           5211 	add	r2,r1
00001960 0116b800       5212 	addi	184,r1,r2
00001964 0708           5213 	mov	r7,r1
00001966 c20a           5214 	shl	2,r1
00001968 01f0           5215 	mov	r1,ep
0000196a c2f1           5216 	add	r2,ep
0000196c 000d           5217 	sld.w	0[ep],r1
0000196e 1d12           5218 	mov	-3,r2
00001970 4209           5219 	and	r2,r1
00001972 010d           5220 	sst.w	r1,0[ep]
                        5221 --1472: } /* End of RSCFD_DisableRFIFOInterrupt() */
                        5222 --	    .ef
                        5223 .LDW311:
00001974 7f00           5224 	jmp	[lp]
                        5225 	.type	_RSCFD_DisableRFIFOInterrupt,@function
                        5226 	.size	_RSCFD_DisableRFIFOInterrupt,.-_RSCFD_DisableRFIFOInterrupt
                        5227 	.align	2
                        5228 .LDW411:
                        5229 
                        5230 --_UnitIndex	r6	param
                        5231 --_Index	r7	param
                        5232 
                        5233 	.data
                        5234 	.text
                        5235 
                        5236 
                        5237 --1474: /***********************************************************************************************************************
                        5238 --1475:  * Function Name: RSCFD_EnableRFIFO
                        5239 --1476:  * Description  : enable Rx fifo
                        5240 --1477:  * Arguments    : UnitIndex -
                        5241 --1478:  *              :   specified unit
                        5242 --1479:  *              : Index -
                        5243 --1480:  *              :   specified Rx fifo index
                        5244 --1481:  *              : Enable -
                        5245 --1482:  *              :   Enable or disable Rx fifo
                        5246 --1483:  * Return Value : none
                        5247 --1484:  ***********************************************************************************************************************/
                        5248 --1485: void RSCFD_EnableRFIFO(RSCFD_U8 UnitIndex, RSCFD_U8 Index, RSCFD_BOOL Enable)
                        5249 	.align	2
                        5250 	.align	2
                        5251 	.global	_RSCFD_EnableRFIFO
                        5252 _RSCFD_EnableRFIFO:
00001976 8600           5253 	zxb	r6
00001978 8700           5254 	zxb	r7
0000197a 8800           5255 	zxb	r8

                                                                      Page 89
                                                              C:\Users\TIEZHU~1\AppData\Local\Temp\gh_000076o1.si
                        5256 --	    .bf
                        5257 .LDW511:
                        5258 --1486: {
                        5259 --1487: 	RFCC(UnitIndex, Index).BIT.RFE = (RSCFD_U32) Enable;
0000197c 0608           5260 	mov	r6,r1
0000197e cf0a           5261 	shl	15,r1
00001980 4016d0ff       5262 	movhi	hi(-3145728),zero,r2
00001984 c209           5263 	add	r2,r1
00001986 0116b800       5264 	addi	184,r1,r2
0000198a 0708           5265 	mov	r7,r1
0000198c c20a           5266 	shl	2,r1
0000198e 01f0           5267 	mov	r1,ep
00001990 c2f1           5268 	add	r2,ep
00001992 000d           5269 	sld.w	0[ep],r1
00001994 e80fd000       5270 	bins	r8,0,1,r1
00001998 010d           5271 	sst.w	r1,0[ep]
                        5272 --1488: } /* End of RSCFD_EnableRFIFO() */
                        5273 --	    .ef
                        5274 .LDW611:
0000199a 7f00           5275 	jmp	[lp]
                        5276 	.type	_RSCFD_EnableRFIFO,@function
                        5277 	.size	_RSCFD_EnableRFIFO,.-_RSCFD_EnableRFIFO
                        5278 	.align	2
                        5279 .LDW711:
                        5280 
                        5281 --_UnitIndex	r6	param
                        5282 --_Index	r7	param
                        5283 --_Enable	r8	param
                        5284 
                        5285 	.data
                        5286 	.text
                        5287 
                        5288 
                        5289 --1490: /***********************************************************************************************************************
                        5290 --1491:  * Function Name: RSCFD_ReadRFIFO
                        5291 --1492:  * Description  : read frame from specified Rx fifo
                        5292 --1493:  * Arguments    : UnitIndex -
                        5293 --1494:  *              :   specified unit
                        5294 --1495:  *              : Index -
                        5295 --1496:  *              :   specified Rx fifo index
                        5296 --1497:  *              : pFrame -
                        5297 --1498:  *              :   pointer to where frame will be stored
                        5298 --1499:  *              : pTimeStamp -
                        5299 --1500:  *              :   pointer to where time stamp will be stored
                        5300 --1501:  *              : pLabel -
                        5301 --1502:  *              :   pointer to where label will be stored
                        5302 --1503:  * Return Value : TRUE if read frame successfully
                        5303 --1504:  ***********************************************************************************************************************/
                        5304 --1505: RSCFD_BOOL RSCFD_ReadRFIFO(RSCFD_U8 UnitIndex, RSCFD_U8 Index, RSCFD_Frame* pFrame, RSCFD_U16* pTimeStamp,
                        5305 	.align	2
                        5306 	.align	2
                        5307 	.global	_RSCFD_ReadRFIFO
                        5308 _RSCFD_ReadRFIFO:
0000199c 031e70ff       5309 	addi	-144,sp,sp
000019a0 8600           5310 	zxb	r6
000019a2 8700           5311 	zxb	r7
000019a4 08f0           5312 	mov	r8,ep
000019a6 23179100       5313 	ld.w	144[sp],r2
                        5314 --	    .bf
                        5315 .LDW811:
                        5316 --1506:                            RSCFD_U16* pLabel)

                                                                      Page 90
                                                              C:\Users\TIEZHU~1\AppData\Local\Temp\gh_000076o1.si
                        5317 --1507: {
                        5318 --1508: 	T_RFMBCP temp_RFMBCP;
                        5319 --1509: 	T_CFDRFMBCP temp_CFDRFMBCP;
                        5320 --1510: 	RSCFD_U8 i;
                        5321 --1511: 	RSCFD_U8 payload_size;
                        5322 --1513: 	if (RFSTS(UnitIndex, Index).BIT.RFEMP)
000019aa 0608           5323 	mov	r6,r1
000019ac cf0a           5324 	shl	15,r1
000019ae 409ed0ff       5325 	movhi	hi(-3145728),zero,r19
000019b2 d309           5326 	add	r19,r1
000019b4 019ed800       5327 	addi	216,r1,r19
000019b8 0708           5328 	mov	r7,r1
000019ba c20a           5329 	shl	2,r1
000019bc d309           5330 	add	r19,r1
000019be 210f0100       5331 	ld.w	0[r1],r1
000019c2 c10e0100       5332 	andi	1,r1,r1
000019c6 e009           5333 	cmp	zero,r1
000019c8 c205*          5334 	be	.L2373
                        5335 --1514: 		return RSCFD_FALSE;
                        5336 --line1514
                        5337 ..lin.D.3A.5CCANFDGwMcuFirmRH850F1x.5Ccode.5CCANFDGwMcuFirmRH850F1x.5CCANFDGwMcuFirmRH850F1x.5Cprj.5CGHS.20MULTI.5CCAN.20Gateway.5Coutput.5Cobj.5Cpe1.5Crscanfd_drv.160::
                        5338 .LDWlin160:
000019ca 0052           5339 	mov	0,r10
000019cc 80072602*      5340 	br	.L2371
                        5341 .L2373:
                        5342 --1516: 	if (CFDGRMCFG(UnitIndex).BIT.RCMC == 0)
                        5343 --line1516
                        5344 ..lin.D.3A.5CCANFDGwMcuFirmRH850F1x.5Ccode.5CCANFDGwMcuFirmRH850F1x.5CCANFDGwMcuFirmRH850F1x.5Cprj.5CGHS.20MULTI.5CCAN.20Gateway.5Coutput.5Cobj.5Cpe1.5Crscanfd_drv.161::
                        5345 .LDWlin161:
000019d0 0608           5346 	mov	r6,r1
000019d2 cf0a           5347 	shl	15,r1
000019d4 409ed0ff       5348 	movhi	hi(-3145728),zero,r19
000019d8 d309           5349 	add	r19,r1
000019da 010efc04       5350 	addi	1276,r1,r1
000019de 210f0100       5351 	ld.w	0[r1],r1
000019e2 c10e0100       5352 	andi	1,r1,r1
000019e6 e009           5353 	cmp	zero,r1
000019e8 fa65*          5354 	bne	.L2376
                        5355 --1517: 	{
                        5356 --1518: 		temp_RFMBCP = RFMBCP(UnitIndex, Index);
                        5357 --line1518
                        5358 ..lin.D.3A.5CCANFDGwMcuFirmRH850F1x.5Ccode.5CCANFDGwMcuFirmRH850F1x.5CCANFDGwMcuFirmRH850F1x.5Cprj.5CGHS.20MULTI.5CCAN.20Gateway.5Coutput.5Cobj.5Cpe1.5Crscanfd_drv.162::
                        5359 .LDWlin162:
000019ea 0608           5360 	mov	r6,r1
000019ec cf0a           5361 	shl	15,r1
000019ee 409ed0ff       5362 	movhi	hi(-3145728),zero,r19
000019f2 d309           5363 	add	r19,r1
000019f4 019e000e       5364 	addi	3584,r1,r19
000019f8 0708           5365 	mov	r7,r1
000019fa c40a           5366 	shl	4,r1
000019fc d309           5367 	add	r19,r1
000019fe 239e8000       5368 	movea	128,sp,r19
00001a02 a10709800000   5369 	ld.dw	0[r1],r16
00001a08 a10789700000   5370 	ld.dw	8[r1],r14
00001a0e b3070f800000   5371 	st.dw	r16,0[r19]
00001a14 b3078f700000   5372 	st.dw	r14,8[r19]
                        5373 --1519: 		RFPCTR(UnitIndex, Index).BIT.RFPC = 0xFFU;
00001a1a 0608           5374 	mov	r6,r1
00001a1c cf0a           5375 	shl	15,r1
00001a1e 409ed0ff       5376 	movhi	hi(-3145728),zero,r19
00001a22 d309           5377 	add	r19,r1

                                                                      Page 91
                                                              C:\Users\TIEZHU~1\AppData\Local\Temp\gh_000076o1.si
00001a24 019ef800       5378 	addi	248,r1,r19
00001a28 0708           5379 	mov	r7,r1
00001a2a c20a           5380 	shl	2,r1
00001a2c d309           5381 	add	r19,r1
00001a2e 219f0100       5382 	ld.w	0[r1],r19
00001a32 939eff00       5383 	ori	255,r19,r19
00001a36 619f0100       5384 	st.w	r19,0[r1]
                        5385 --1521: 		if (temp_RFMBCP.RFID.BIT.RFIDE == 0)
00001a3a 230f8100       5386 	ld.w	128[sp],r1
00001a3e 409e0080       5387 	movhi	hi(-2147483648),zero,r19
00001a42 5309           5388 	and	r19,r1
00001a44 e009           5389 	cmp	zero,r1
00001a46 ba05*          5390 	bne	.L2378
                        5391 --1522: 		{
                        5392 --1523: 			pFrame->Format = RSCFD_FRAME_FORMAT_CLASSICAL_BASE;
                        5393 --line1523
                        5394 ..lin.D.3A.5CCANFDGwMcuFirmRH850F1x.5Ccode.5CCANFDGwMcuFirmRH850F1x.5CCANFDGwMcuFirmRH850F1x.5Cprj.5CGHS.20MULTI.5CCAN.20Gateway.5Coutput.5Cobj.5Cpe1.5Crscanfd_drv.163::
                        5395 .LDWlin163:
00001a48 0105           5396 	sst.w	zero,0[ep]
00001a4a b505*          5397 	br	.L2380
                        5398 .L2378:
                        5399 --1524: 		}
                        5400 --1525: 		else
                        5401 --1526: 		{
                        5402 --1527: 			pFrame->Format = RSCFD_FRAME_FORMAT_CLASSICAL_EXTENDED;
                        5403 --line1527
                        5404 ..lin.D.3A.5CCANFDGwMcuFirmRH850F1x.5Ccode.5CCANFDGwMcuFirmRH850F1x.5CCANFDGwMcuFirmRH850F1x.5Cprj.5CGHS.20MULTI.5CCAN.20Gateway.5Coutput.5Cobj.5Cpe1.5Crscanfd_drv.164::
                        5405 .LDWlin164:
00001a4c 010a           5406 	mov	1,r1
00001a4e 010d           5407 	sst.w	r1,0[ep]
                        5408 .L2380:
                        5409 --1528: 		}
                        5410 --1529: 		pFrame->Type = (RSCFD_FrameType) temp_RFMBCP.RFID.BIT.RFRTR;
00001a50 230f8100       5411 	ld.w	128[sp],r1
00001a54 c10a           5412 	shl	1,r1
00001a56 9f0a           5413 	shr	31,r1
00001a58 030d           5414 	sst.w	r1,4[ep]
                        5415 --1530: 		pFrame->ID = temp_RFMBCP.RFID.BIT.RFID;
00001a5a 230f8100       5416 	ld.w	128[sp],r1
00001a5e c30a           5417 	shl	3,r1
00001a60 830a           5418 	shr	3,r1
00001a62 050d           5419 	sst.w	r1,8[ep]
                        5420 --1531: 		pFrame->DLC = temp_RFMBCP.RFPTR.BIT.RFDLC;
00001a64 230f8500       5421 	ld.w	132[sp],r1
00001a68 9c0a           5422 	shr	28,r1
00001a6a 8c0b           5423 	sst.b	r1,12[ep]
                        5424 --1532: 		if (pLabel != 0)
00001a6c e011           5425 	cmp	zero,r2
00001a6e f205*          5426 	be	.L2381
                        5427 --1533: 		{
                        5428 --1534: 			*pLabel = temp_RFMBCP.RFPTR.BIT.RFPTR;
                        5429 --line1534
                        5430 ..lin.D.3A.5CCANFDGwMcuFirmRH850F1x.5Ccode.5CCANFDGwMcuFirmRH850F1x.5CCANFDGwMcuFirmRH850F1x.5Cprj.5CGHS.20MULTI.5CCAN.20Gateway.5Coutput.5Cobj.5Cpe1.5Crscanfd_drv.165::
                        5431 .LDWlin165:
00001a70 230f8500       5432 	ld.w	132[sp],r1
00001a74 c40a           5433 	shl	4,r1
00001a76 940a           5434 	shr	20,r1
00001a78 620f0000       5435 	st.h	r1,0[r2]
                        5436 .L2381:
                        5437 --1535: 		}
                        5438 --1536: 		if (pTimeStamp != 0)

                                                                      Page 92
                                                              C:\Users\TIEZHU~1\AppData\Local\Temp\gh_000076o1.si
00001a7c e049           5439 	cmp	zero,r9
00001a7e f205*          5440 	be	.L2383
                        5441 --1537: 		{
                        5442 --1538: 			*pTimeStamp = temp_RFMBCP.RFPTR.BIT.RFTS;
                        5443 --line1538
                        5444 ..lin.D.3A.5CCANFDGwMcuFirmRH850F1x.5Ccode.5CCANFDGwMcuFirmRH850F1x.5CCANFDGwMcuFirmRH850F1x.5Cprj.5CGHS.20MULTI.5CCAN.20Gateway.5Coutput.5Cobj.5Cpe1.5Crscanfd_drv.166::
                        5445 .LDWlin166:
00001a80 230f8500       5446 	ld.w	132[sp],r1
00001a84 c10effff       5447 	andi	65535,r1,r1
00001a88 690f0000       5448 	st.h	r1,0[r9]
                        5449 .L2383:
                        5450 --1539: 		}
                        5451 --1540: 		for (i = 0U; i < 8U; i++)
00001a8c 000a           5452 	mov	0,r1
                        5453 .L2387:
                        5454 --1541: 		{
                        5455 --1542: #if (CPU_ENDIAN_TYPE == CPU_ENDIAN_BIG)
                        5456 --1543: 			/* TBD */
                        5457 --1544: #else
                        5458 --1545: 			pFrame->Data[i] = temp_RFMBCP.RFDF_RFDB[i];
00001a8e 1e9e0d00       5459 	addi	13,ep,r19
00001a92 0110           5460 	mov	r1,r2
00001a94 d311           5461 	add	r19,r2
00001a96 239e8000       5462 	movea	128,sp,r19
00001a9a 13960800       5463 	addi	8,r19,r18
00001a9e 0198           5464 	mov	r1,r19
00001aa0 d299           5465 	add	r18,r19
00001aa2 939f0100       5466 	ld.bu	0[r19],r19
00001aa6 429f0000       5467 	st.b	r19,0[r2]
00001aaa 410a           5468 	add	1,r1
00001aac 8100           5469 	zxb	r1
00001aae 680a           5470 	cmp	8,r1
00001ab0 f1ed*          5471 	bl	.L2387
00001ab2 80073e01*      5472 	br	.L2388
                        5473 .L2376:
                        5474 --1546: #endif
                        5475 --1547: 		}
                        5476 --1548: 	}
                        5477 --1549: 	else
                        5478 --1550: 	{
                        5479 --1551: 		temp_CFDRFMBCP = CFDRFMBCP(UnitIndex, Index);
                        5480 --line1551
                        5481 ..lin.D.3A.5CCANFDGwMcuFirmRH850F1x.5Ccode.5CCANFDGwMcuFirmRH850F1x.5CCANFDGwMcuFirmRH850F1x.5Cprj.5CGHS.20MULTI.5CCAN.20Gateway.5Coutput.5Cobj.5Cpe1.5Crscanfd_drv.167::
                        5482 .LDWlin167:
00001ab6 0608           5483 	mov	r6,r1
00001ab8 cf0a           5484 	shl	15,r1
00001aba 409ed0ff       5485 	movhi	hi(-3145728),zero,r19
00001abe d309           5486 	add	r19,r1
00001ac0 019e0030       5487 	addi	12288,r1,r19
00001ac4 0708           5488 	mov	r7,r1
00001ac6 c70a           5489 	shl	7,r1
00001ac8 d309           5490 	add	r19,r1
00001aca 239e0000       5491 	movea	0,sp,r19
00001ace 01968000       5492 	addi	128,r1,r18
                        5493 .L2583:
00001ad2 a10709800000   5494 	ld.dw	0[r1],r16
00001ad8 b3070f800000   5495 	st.dw	r16,0[r19]
00001ade 480a           5496 	add	8,r1
00001ae0 489a           5497 	add	8,r19
00001ae2 e191           5498 	cmp	r1,r18
00001ae4 faf5*          5499 	bne	.L2583

                                                                      Page 93
                                                              C:\Users\TIEZHU~1\AppData\Local\Temp\gh_000076o1.si
                        5500 --1552: 		CFDRFPCTR(UnitIndex, Index).BIT.RFPC = 0xFFU;
                        5501 --line1552
                        5502 ..lin.D.3A.5CCANFDGwMcuFirmRH850F1x.5Ccode.5CCANFDGwMcuFirmRH850F1x.5CCANFDGwMcuFirmRH850F1x.5Cprj.5CGHS.20MULTI.5CCAN.20Gateway.5Coutput.5Cobj.5Cpe1.5Crscanfd_drv.168::
                        5503 .LDWlin168:
00001ae6 0608           5504 	mov	r6,r1
00001ae8 cf0a           5505 	shl	15,r1
00001aea 409ed0ff       5506 	movhi	hi(-3145728),zero,r19
00001aee d309           5507 	add	r19,r1
00001af0 019ef800       5508 	addi	248,r1,r19
00001af4 0708           5509 	mov	r7,r1
00001af6 c20a           5510 	shl	2,r1
00001af8 d309           5511 	add	r19,r1
00001afa 219f0100       5512 	ld.w	0[r1],r19
00001afe 939eff00       5513 	ori	255,r19,r19
00001b02 619f0100       5514 	st.w	r19,0[r1]
                        5515 --1553: 		pFrame->BRS = temp_CFDRFMBCP.CFDRFFDSTS.BIT.RFBRS;
00001b06 230f0900       5516 	ld.w	8[sp],r1
00001b0a de0a           5517 	shl	30,r1
00001b0c 9f0a           5518 	shr	31,r1
00001b0e cd0b           5519 	sst.b	r1,77[ep]
                        5520 --1554: 		pFrame->ESI = temp_CFDRFMBCP.CFDRFFDSTS.BIT.RFESI;
00001b10 230f0900       5521 	ld.w	8[sp],r1
00001b14 c10e0100       5522 	andi	1,r1,r1
00001b18 ce0b           5523 	sst.b	r1,78[ep]
                        5524 --1555: 		if (temp_CFDRFMBCP.CFDRFID.BIT.RFIDE == 0)
00001b1a 230f0100       5525 	ld.w	0[sp],r1
00001b1e 409e0080       5526 	movhi	hi(-2147483648),zero,r19
00001b22 5309           5527 	and	r19,r1
00001b24 e009           5528 	cmp	zero,r1
00001b26 ca0d*          5529 	bne	.L2389
                        5530 --1556: 		{
                        5531 --1557: 			if (temp_CFDRFMBCP.CFDRFFDSTS.BIT.RFFDF)
                        5532 --line1557
                        5533 ..lin.D.3A.5CCANFDGwMcuFirmRH850F1x.5Ccode.5CCANFDGwMcuFirmRH850F1x.5CCANFDGwMcuFirmRH850F1x.5Cprj.5CGHS.20MULTI.5CCAN.20Gateway.5Coutput.5Cobj.5Cpe1.5Crscanfd_drv.169::
                        5534 .LDWlin169:
00001b28 230f0900       5535 	ld.w	8[sp],r1
00001b2c c10e0400       5536 	andi	4,r1,r1
00001b30 e009           5537 	cmp	zero,r1
00001b32 c205*          5538 	be	.L2391
                        5539 --1558: 			{
                        5540 --1559: 				pFrame->Format = RSCFD_FRAME_FORMAT_FD_BASE;
                        5541 --line1559
                        5542 ..lin.D.3A.5CCANFDGwMcuFirmRH850F1x.5Ccode.5CCANFDGwMcuFirmRH850F1x.5CCANFDGwMcuFirmRH850F1x.5Cprj.5CGHS.20MULTI.5CCAN.20Gateway.5Coutput.5Cobj.5Cpe1.5Crscanfd_drv.170::
                        5543 .LDWlin170:
00001b34 020a           5544 	mov	2,r1
00001b36 010d           5545 	sst.w	r1,0[ep]
00001b38 e50d*          5546 	br	.L2394
                        5547 .L2391:
                        5548 --1560: 			}
                        5549 --1561: 			else
                        5550 --1562: 			{
                        5551 --1563: 				pFrame->Format = RSCFD_FRAME_FORMAT_CLASSICAL_BASE;
                        5552 --line1563
                        5553 ..lin.D.3A.5CCANFDGwMcuFirmRH850F1x.5Ccode.5CCANFDGwMcuFirmRH850F1x.5CCANFDGwMcuFirmRH850F1x.5Cprj.5CGHS.20MULTI.5CCAN.20Gateway.5Coutput.5Cobj.5Cpe1.5Crscanfd_drv.171::
                        5554 .LDWlin171:
00001b3a 0105           5555 	sst.w	zero,0[ep]
00001b3c c50d*          5556 	br	.L2394
                        5557 .L2389:
                        5558 --1564: 			}
                        5559 --1565: 		}
                        5560 --1566: 		else

                                                                      Page 94
                                                              C:\Users\TIEZHU~1\AppData\Local\Temp\gh_000076o1.si
                        5561 --1567: 		{
                        5562 --1568: 			if (temp_CFDRFMBCP.CFDRFFDSTS.BIT.RFFDF)
                        5563 --line1568
                        5564 ..lin.D.3A.5CCANFDGwMcuFirmRH850F1x.5Ccode.5CCANFDGwMcuFirmRH850F1x.5CCANFDGwMcuFirmRH850F1x.5Cprj.5CGHS.20MULTI.5CCAN.20Gateway.5Coutput.5Cobj.5Cpe1.5Crscanfd_drv.172::
                        5565 .LDWlin172:
00001b3e 230f0900       5566 	ld.w	8[sp],r1
00001b42 c10e0400       5567 	andi	4,r1,r1
00001b46 e009           5568 	cmp	zero,r1
00001b48 c205*          5569 	be	.L2395
                        5570 --1569: 			{
                        5571 --1570: 				pFrame->Format = RSCFD_FRAME_FORMAT_FD_EXTENDED;
                        5572 --line1570
                        5573 ..lin.D.3A.5CCANFDGwMcuFirmRH850F1x.5Ccode.5CCANFDGwMcuFirmRH850F1x.5CCANFDGwMcuFirmRH850F1x.5Cprj.5CGHS.20MULTI.5CCAN.20Gateway.5Coutput.5Cobj.5Cpe1.5Crscanfd_drv.173::
                        5574 .LDWlin173:
00001b4a 030a           5575 	mov	3,r1
00001b4c 010d           5576 	sst.w	r1,0[ep]
00001b4e b505*          5577 	br	.L2394
                        5578 .L2395:
                        5579 --1571: 			}
                        5580 --1572: 			else
                        5581 --1573: 			{
                        5582 --1574: 				pFrame->Format = RSCFD_FRAME_FORMAT_CLASSICAL_EXTENDED;
                        5583 --line1574
                        5584 ..lin.D.3A.5CCANFDGwMcuFirmRH850F1x.5Ccode.5CCANFDGwMcuFirmRH850F1x.5CCANFDGwMcuFirmRH850F1x.5Cprj.5CGHS.20MULTI.5CCAN.20Gateway.5Coutput.5Cobj.5Cpe1.5Crscanfd_drv.174::
                        5585 .LDWlin174:
00001b50 010a           5586 	mov	1,r1
00001b52 010d           5587 	sst.w	r1,0[ep]
                        5588 .L2394:
                        5589 --1575: 			}
                        5590 --1576: 		}
                        5591 --1577: 		pFrame->Type = (RSCFD_FrameType) temp_CFDRFMBCP.CFDRFID.BIT.RFRTR;
00001b54 230f0100       5592 	ld.w	0[sp],r1
00001b58 c10a           5593 	shl	1,r1
00001b5a 9f0a           5594 	shr	31,r1
00001b5c 030d           5595 	sst.w	r1,4[ep]
                        5596 --1578: 		pFrame->ID = temp_CFDRFMBCP.CFDRFID.BIT.RFID;
00001b5e 230f0100       5597 	ld.w	0[sp],r1
00001b62 c30a           5598 	shl	3,r1
00001b64 830a           5599 	shr	3,r1
00001b66 050d           5600 	sst.w	r1,8[ep]
                        5601 --1579: 		pFrame->DLC = temp_CFDRFMBCP.CFDRFPTR.BIT.RFDLC;
00001b68 230f0500       5602 	ld.w	4[sp],r1
00001b6c 9c0a           5603 	shr	28,r1
00001b6e 8c0b           5604 	sst.b	r1,12[ep]
                        5605 --1580: 		if (pLabel != 0)
00001b70 e011           5606 	cmp	zero,r2
00001b72 f205*          5607 	be	.L2398
                        5608 --1581: 		{
                        5609 --1582: 			*pLabel = temp_CFDRFMBCP.CFDRFPTR.BIT.RFPTR;
                        5610 --line1582
                        5611 ..lin.D.3A.5CCANFDGwMcuFirmRH850F1x.5Ccode.5CCANFDGwMcuFirmRH850F1x.5CCANFDGwMcuFirmRH850F1x.5Cprj.5CGHS.20MULTI.5CCAN.20Gateway.5Coutput.5Cobj.5Cpe1.5Crscanfd_drv.175::
                        5612 .LDWlin175:
00001b74 230f0500       5613 	ld.w	4[sp],r1
00001b78 c40a           5614 	shl	4,r1
00001b7a 940a           5615 	shr	20,r1
00001b7c 620f0000       5616 	st.h	r1,0[r2]
                        5617 .L2398:
                        5618 --1583: 		}
                        5619 --1584: 		if (pTimeStamp != 0)
00001b80 e049           5620 	cmp	zero,r9
00001b82 f205*          5621 	be	.L2400

                                                                      Page 95
                                                              C:\Users\TIEZHU~1\AppData\Local\Temp\gh_000076o1.si
                        5622 --1585: 		{
                        5623 --1586: 			*pTimeStamp = temp_CFDRFMBCP.CFDRFPTR.BIT.RFTS;
                        5624 --line1586
                        5625 ..lin.D.3A.5CCANFDGwMcuFirmRH850F1x.5Ccode.5CCANFDGwMcuFirmRH850F1x.5CCANFDGwMcuFirmRH850F1x.5Cprj.5CGHS.20MULTI.5CCAN.20Gateway.5Coutput.5Cobj.5Cpe1.5Crscanfd_drv.176::
                        5626 .LDWlin176:
00001b84 230f0500       5627 	ld.w	4[sp],r1
00001b88 c10effff       5628 	andi	65535,r1,r1
00001b8c 690f0000       5629 	st.h	r1,0[r9]
                        5630 .L2400:
                        5631 --1587: 		}
                        5632 --1588: 		payload_size = _FifoPayloadSizeMap[CFDRFCC(UnitIndex, Index).BIT.RFPLS];
00001b90 0608           5633 	mov	r6,r1
00001b92 cf0a           5634 	shl	15,r1
00001b94 4016d0ff       5635 	movhi	hi(-3145728),zero,r2
00001b98 c209           5636 	add	r2,r1
00001b9a 0116b800       5637 	addi	184,r1,r2
00001b9e 0708           5638 	mov	r7,r1
00001ba0 c20a           5639 	shl	2,r1
00001ba2 c209           5640 	add	r2,r1
00001ba4 210f0100       5641 	ld.w	0[r1],r1
00001ba8 d90a           5642 	shl	25,r1
00001baa 9d0a           5643 	shr	29,r1
00001bac 25160000*      5644 	movea	sdaoff2(__FifoPayloadSizeMap),r5,r2
00001bb0 c209           5645 	add	r2,r1
00001bb2 81970100       5646 	ld.bu	0[r1],r18
                        5647 --1589: 		for (i = 0U; i < 64; i++)
00001bb6 000a           5648 	mov	0,r1
                        5649 .L2404:
                        5650 --1590: 		{
                        5651 --1591: 			if (i < payload_size)
00001bb8 f209           5652 	cmp	r18,r1
00001bba 8915*          5653 	bnl	.L2405
                        5654 --1592: 			{
                        5655 --1593: #if (CPU_ENDIAN_TYPE == CPU_ENDIAN_BIG)
                        5656 --1594: 				/* TBD */
                        5657 --1595: #else
                        5658 --1596: 				pFrame->Data[i] = temp_CFDRFMBCP.CFDRFDF_RFDB[i];
                        5659 --line1596
                        5660 ..lin.D.3A.5CCANFDGwMcuFirmRH850F1x.5Ccode.5CCANFDGwMcuFirmRH850F1x.5CCANFDGwMcuFirmRH850F1x.5Cprj.5CGHS.20MULTI.5CCAN.20Gateway.5Coutput.5Cobj.5Cpe1.5Crscanfd_drv.177::
                        5661 .LDWlin177:
00001bbc 1e9e0d00       5662 	addi	13,ep,r19
00001bc0 0110           5663 	mov	r1,r2
00001bc2 d311           5664 	add	r19,r2
00001bc4 239e0000       5665 	movea	0,sp,r19
00001bc8 138e0c00       5666 	addi	12,r19,r17
00001bcc 0198           5667 	mov	r1,r19
00001bce d199           5668 	add	r17,r19
00001bd0 939f0100       5669 	ld.bu	0[r19],r19
00001bd4 429f0000       5670 	st.b	r19,0[r2]
00001bd8 f505*          5671 	br	.L2407
                        5672 .L2405:
                        5673 --1597: #endif
                        5674 --1598: 			}
                        5675 --1599: 			else
                        5676 --1600: 			{
                        5677 --1601: 				pFrame->Data[i] = 0;
                        5678 --line1601
                        5679 ..lin.D.3A.5CCANFDGwMcuFirmRH850F1x.5Ccode.5CCANFDGwMcuFirmRH850F1x.5CCANFDGwMcuFirmRH850F1x.5Cprj.5CGHS.20MULTI.5CCAN.20Gateway.5Coutput.5Cobj.5Cpe1.5Crscanfd_drv.178::
                        5680 .LDWlin178:
00001bda 1e9e0d00       5681 	addi	13,ep,r19
00001bde 0110           5682 	mov	r1,r2

                                                                      Page 96
                                                              C:\Users\TIEZHU~1\AppData\Local\Temp\gh_000076o1.si
00001be0 d311           5683 	add	r19,r2
00001be2 42070000       5684 	st.b	zero,0[r2]
                        5685 .L2407:
00001be6 410a           5686 	add	1,r1
00001be8 8100           5687 	zxb	r1
00001bea 0106c0ff       5688 	addi	-64,r1,zero
00001bee d9e5*          5689 	bnl	.L2404
                        5690 .L2388:
                        5691 --1602: 			}
                        5692 --1603: 		}
                        5693 --1604: 	}
                        5694 --1606: 	return RSCFD_TRUE;
                        5695 --line1606
                        5696 ..lin.D.3A.5CCANFDGwMcuFirmRH850F1x.5Ccode.5CCANFDGwMcuFirmRH850F1x.5CCANFDGwMcuFirmRH850F1x.5Cprj.5CGHS.20MULTI.5CCAN.20Gateway.5Coutput.5Cobj.5Cpe1.5Crscanfd_drv.179::
                        5697 .LDWlin179:
00001bf0 0152           5698 	mov	1,r10
                        5699 .L2371:
                        5700 --	    .ef
                        5701 .LDW911:
00001bf2 031e9000       5702 	addi	144,sp,sp
00001bf6 7f00           5703 	jmp	[lp]
                        5704 	.type	_RSCFD_ReadRFIFO,@function
                        5705 	.size	_RSCFD_ReadRFIFO,.-_RSCFD_ReadRFIFO
                        5706 	.align	2
                        5707 .LDW021:
                        5708 --_temp_RFMBCP	128[sp]	local
                        5709 --_temp_CFDRFMBCP	0[sp]	local
                        5710 --_i	r1	local
                        5711 --_payload_size	r18	local
                        5712 
                        5713 --_UnitIndex	r6	param
                        5714 --_Index	r7	param
                        5715 --_pFrame	ep	param
                        5716 --_pTimeStamp	r9	param
                        5717 --_pLabel	r2	param
                        5718 
                        5719 	.data
                        5720 	.text
                        5721 
                        5722 --1607: } /* End of RSCFD_ReadRFIFO() */
                        5723 
                        5724 --1609: /***********************************************************************************************************************
                        5725 --1610:  * Function Name: RSCFD_GetRFIFOCount
                        5726 --1611:  * Description  : get number of message stored in Rx fifo
                        5727 --1612:  * Arguments    : UnitIndex -
                        5728 --1613:  *              :   specified unit
                        5729 --1614:  *              : Index -
                        5730 --1615:  *              :   specified Rx fifo index
                        5731 --1616:  * Return Value : number of messages stored in fifo
                        5732 --1617:  ***********************************************************************************************************************/
                        5733 --1618: RSCFD_U8 RSCFD_GetRFIFOCount(RSCFD_U8 UnitIndex, RSCFD_U8 Index)
                        5734 	.align	2
                        5735 	.align	2
                        5736 	.global	_RSCFD_GetRFIFOCount
                        5737 _RSCFD_GetRFIFOCount:
00001bf8 8600           5738 	zxb	r6
00001bfa 8700           5739 	zxb	r7
                        5740 --	    .bf
                        5741 .LDW121:
                        5742 --1619: {
                        5743 --1620: 	return RFSTS(UnitIndex, Index).BIT.RFMC;

                                                                      Page 97
                                                              C:\Users\TIEZHU~1\AppData\Local\Temp\gh_000076o1.si
00001bfc 0608           5744 	mov	r6,r1
00001bfe cf0a           5745 	shl	15,r1
00001c00 4016d0ff       5746 	movhi	hi(-3145728),zero,r2
00001c04 c209           5747 	add	r2,r1
00001c06 0116d800       5748 	addi	216,r1,r2
00001c0a 0708           5749 	mov	r7,r1
00001c0c c20a           5750 	shl	2,r1
00001c0e 01f0           5751 	mov	r1,ep
00001c10 c2f1           5752 	add	r2,ep
00001c12 000d           5753 	sld.w	0[ep],r1
00001c14 d00a           5754 	shl	16,r1
00001c16 980a           5755 	shr	24,r1
00001c18 0150           5756 	mov	r1,r10
                        5757 --	    .ef
                        5758 .LDW221:
00001c1a 7f00           5759 	jmp	[lp]
                        5760 	.type	_RSCFD_GetRFIFOCount,@function
                        5761 	.size	_RSCFD_GetRFIFOCount,.-_RSCFD_GetRFIFOCount
                        5762 	.align	2
                        5763 .LDW321:
                        5764 
                        5765 --_UnitIndex	r6	param
                        5766 --_Index	r7	param
                        5767 
                        5768 	.data
                        5769 	.text
                        5770 
                        5771 --1621: } /* End of RSCFD_GetRFIFOCount() */
                        5772 
                        5773 --1623: /***********************************************************************************************************************
                        5774 --1624:  * Function Name: RSCFD_HasRxFifoRxCompleteInt
                        5775 --1625:  * Description  : check if have Rx fifo interrupt
                        5776 --1626:  * Arguments    : UnitIndex -
                        5777 --1627:  *              :   specified unit
                        5778 --1628:  *              : Index -
                        5779 --1629:  *              :   specified Rx fifo index
                        5780 --1630:  * Return Value : TRUE if have Rx fifo interrupt
                        5781 --1631:  ***********************************************************************************************************************/
                        5782 --1632: RSCFD_BOOL RSCFD_HasRxFifoRxCompleteInt(RSCFD_U8 UnitIndex, RSCFD_U8 Index)
                        5783 	.align	2
                        5784 	.align	2
                        5785 	.global	_RSCFD_HasRxFifoRxCompleteInt
                        5786 _RSCFD_HasRxFifoRxCompleteInt:
00001c1c 8600           5787 	zxb	r6
00001c1e 8700           5788 	zxb	r7
                        5789 --	    .bf
                        5790 .LDW421:
                        5791 --1633: {
                        5792 --1634: 	return RFSTS(UnitIndex, Index).BIT.RFIF;
00001c20 0608           5793 	mov	r6,r1
00001c22 cf0a           5794 	shl	15,r1
00001c24 4016d0ff       5795 	movhi	hi(-3145728),zero,r2
00001c28 c209           5796 	add	r2,r1
00001c2a 0116d800       5797 	addi	216,r1,r2
00001c2e 0708           5798 	mov	r7,r1
00001c30 c20a           5799 	shl	2,r1
00001c32 01f0           5800 	mov	r1,ep
00001c34 c2f1           5801 	add	r2,ep
00001c36 000d           5802 	sld.w	0[ep],r1
00001c38 dc0a           5803 	shl	28,r1
00001c3a 9f0a           5804 	shr	31,r1

                                                                      Page 98
                                                              C:\Users\TIEZHU~1\AppData\Local\Temp\gh_000076o1.si
00001c3c 0150           5805 	mov	r1,r10
                        5806 --	    .ef
                        5807 .LDW521:
00001c3e 7f00           5808 	jmp	[lp]
                        5809 	.type	_RSCFD_HasRxFifoRxCompleteInt,@function
                        5810 	.size	_RSCFD_HasRxFifoRxCompleteInt,.-_RSCFD_HasRxFifoRxCompleteInt
                        5811 	.align	2
                        5812 .LDW621:
                        5813 
                        5814 --_UnitIndex	r6	param
                        5815 --_Index	r7	param
                        5816 
                        5817 	.data
                        5818 	.text
                        5819 
                        5820 --1635: } /* End of RSCFD_HasRxFifoRxCompleteInt() */
                        5821 
                        5822 --1637: /***********************************************************************************************************************
                        5823 --1638:  * Function Name: RSCFD_ClearRFIFORxFlag
                        5824 --1639:  * Description  : clear Rx fifo interrupt flag
                        5825 --1640:  * Arguments    : UnitIndex -
                        5826 --1641:  *              :   specified unit
                        5827 --1642:  *              : Index -
                        5828 --1643:  *              :   specified Rx fifo index
                        5829 --1644:  * Return Value : none
                        5830 --1645:  ***********************************************************************************************************************/
                        5831 --1646: void RSCFD_ClearRFIFORxFlag(RSCFD_U8 UnitIndex, RSCFD_U8 Index)
                        5832 	.align	2
                        5833 	.align	2
                        5834 	.global	_RSCFD_ClearRFIFORxFlag
                        5835 _RSCFD_ClearRFIFORxFlag:
00001c40 8600           5836 	zxb	r6
00001c42 8700           5837 	zxb	r7
                        5838 --	    .bf
                        5839 .LDW721:
                        5840 --1647: {
                        5841 --1648: 	RFSTS(UnitIndex, Index).BIT.RFIF = 0;
00001c44 0608           5842 	mov	r6,r1
00001c46 cf0a           5843 	shl	15,r1
00001c48 4016d0ff       5844 	movhi	hi(-3145728),zero,r2
00001c4c c209           5845 	add	r2,r1
00001c4e 0116d800       5846 	addi	216,r1,r2
00001c52 0708           5847 	mov	r7,r1
00001c54 c20a           5848 	shl	2,r1
00001c56 01f0           5849 	mov	r1,ep
00001c58 c2f1           5850 	add	r2,ep
00001c5a 000d           5851 	sld.w	0[ep],r1
00001c5c 1712           5852 	mov	-9,r2
00001c5e 4209           5853 	and	r2,r1
00001c60 010d           5854 	sst.w	r1,0[ep]
                        5855 --1649: } /* End of RSCFD_ClearRFIFORxFlag() */
                        5856 --	    .ef
                        5857 .LDW821:
00001c62 7f00           5858 	jmp	[lp]
                        5859 	.type	_RSCFD_ClearRFIFORxFlag,@function
                        5860 	.size	_RSCFD_ClearRFIFORxFlag,.-_RSCFD_ClearRFIFORxFlag
                        5861 	.align	2
                        5862 .LDW921:
                        5863 
                        5864 --_UnitIndex	r6	param
                        5865 --_Index	r7	param

                                                                      Page 99
                                                              C:\Users\TIEZHU~1\AppData\Local\Temp\gh_000076o1.si
                        5866 
                        5867 	.data
                        5868 	.text
                        5869 
                        5870 
                        5871 --1651: /***********************************************************************************************************************
                        5872 --1652:  * Function Name: RSCFD_SetCFIFO
                        5873 --1653:  * Description  : set Tx/Rx fifo
                        5874 --1654:  * Arguments    : UnitIndex -
                        5875 --1655:  *              :   specified unit
                        5876 --1656:  *              : ChannelIndex -
                        5877 --1657:  *              :   specified channel
                        5878 --1658:  *              : FifoIndex -
                        5879 --1659:  *              :   specified Tx/Rx fifo index
                        5880 --1660:  *              : Mode -
                        5881 --1661:  *              :   specified Tx/Rx fifo mode
                        5882 --1662:  *              : Depth -
                        5883 --1663:  *              :   specified Tx/Rx fifo depth
                        5884 --1664:  *              : Payload -
                        5885 --1665:  *              :   specified payload data size
                        5886 --1666:  * Return Value : none
                        5887 --1667:  ***********************************************************************************************************************/
                        5888 --1668: void RSCFD_SetCFIFO(RSCFD_U8 UnitIndex, RSCFD_U8 ChannelIndex, RSCFD_U8 FifoIndex, RSCFD_FIFOMode Mode,
                        5889 	.align	2
                        5890 	.align	2
                        5891 	.global	_RSCFD_SetCFIFO
                        5892 _RSCFD_SetCFIFO:
00001c64 8600           5893 	zxb	r6
00001c66 8700           5894 	zxb	r7
00001c68 8800           5895 	zxb	r8
00001c6a 239f0100       5896 	ld.w	0[sp],r19
00001c6e 23970500       5897 	ld.w	4[sp],r18
                        5898 --	    .bf
                        5899 .LDW031:
                        5900 --1669:                     RSCFD_FIFODepth Depth, RSCFD_FIFOPayloadSize Payload)
                        5901 --1670: {
                        5902 --1671: 	CFCC(UnitIndex, ChannelIndex, FifoIndex).LONG = 0UL;
00001c72 0608           5903 	mov	r6,r1
00001c74 cf0a           5904 	shl	15,r1
00001c76 4016d0ff       5905 	movhi	hi(-3145728),zero,r2
00001c7a c209           5906 	add	r2,r1
00001c7c 01161801       5907 	addi	280,r1,r2
00001c80 0708           5908 	mov	r7,r1
00001c82 ec0f4202       5909 	mulu	12,r1,zero
00001c86 c209           5910 	add	r2,r1
00001c88 0810           5911 	mov	r8,r2
00001c8a c212           5912 	shl	2,r2
00001c8c 02f0           5913 	mov	r2,ep
00001c8e c1f1           5914 	add	r1,ep
00001c90 0105           5915 	sst.w	zero,0[ep]
                        5916 --1672: 	CFCC(UnitIndex, ChannelIndex, FifoIndex).BIT.CFM = Mode;
00001c92 0608           5917 	mov	r6,r1
00001c94 cf0a           5918 	shl	15,r1
00001c96 4016d0ff       5919 	movhi	hi(-3145728),zero,r2
00001c9a c209           5920 	add	r2,r1
00001c9c 01161801       5921 	addi	280,r1,r2
00001ca0 0708           5922 	mov	r7,r1
00001ca2 ec0f4202       5923 	mulu	12,r1,zero
00001ca6 c209           5924 	add	r2,r1
00001ca8 0810           5925 	mov	r8,r2
00001caa c212           5926 	shl	2,r2

                                                                      Page 100
                                                              C:\Users\TIEZHU~1\AppData\Local\Temp\gh_000076o1.si
00001cac 02f0           5927 	mov	r2,ep
00001cae c1f1           5928 	add	r1,ep
00001cb0 000d           5929 	sld.w	0[ep],r1
00001cb2 e90f9010       5930 	bins	r9,16,2,r1
00001cb6 010d           5931 	sst.w	r1,0[ep]
                        5932 --1673: 	CFCC(UnitIndex, ChannelIndex, FifoIndex).BIT.CFDC = (RSCFD_U32) Depth;
00001cb8 0608           5933 	mov	r6,r1
00001cba cf0a           5934 	shl	15,r1
00001cbc 4016d0ff       5935 	movhi	hi(-3145728),zero,r2
00001cc0 c209           5936 	add	r2,r1
00001cc2 01161801       5937 	addi	280,r1,r2
00001cc6 0708           5938 	mov	r7,r1
00001cc8 ec0f4202       5939 	mulu	12,r1,zero
00001ccc c209           5940 	add	r2,r1
00001cce 0810           5941 	mov	r8,r2
00001cd0 c212           5942 	shl	2,r2
00001cd2 02f0           5943 	mov	r2,ep
00001cd4 c1f1           5944 	add	r1,ep
00001cd6 000d           5945 	sld.w	0[ep],r1
00001cd8 f30fd0a8       5946 	bins	r19,8,3,r1
00001cdc 010d           5947 	sst.w	r1,0[ep]
                        5948 --1674: 	if (CFDGRMCFG(UnitIndex).BIT.RCMC == 1)
00001cde 0608           5949 	mov	r6,r1
00001ce0 cf0a           5950 	shl	15,r1
00001ce2 4016d0ff       5951 	movhi	hi(-3145728),zero,r2
00001ce6 c209           5952 	add	r2,r1
00001ce8 01f6fc04       5953 	addi	1276,r1,ep
00001cec 000d           5954 	sld.w	0[ep],r1
00001cee c10e0100       5955 	andi	1,r1,r1
00001cf2 e009           5956 	cmp	zero,r1
00001cf4 d215*          5957 	be	.L2709
                        5958 --1675: 	{
                        5959 --1676: 		CFDCFCC(UnitIndex, ChannelIndex, FifoIndex).BIT.CFPLS = (RSCFD_U32) Payload;
                        5960 --line1676
                        5961 ..lin.D.3A.5CCANFDGwMcuFirmRH850F1x.5Ccode.5CCANFDGwMcuFirmRH850F1x.5CCANFDGwMcuFirmRH850F1x.5Cprj.5CGHS.20MULTI.5CCAN.20Gateway.5Coutput.5Cobj.5Cpe1.5Crscanfd_drv.180::
                        5962 .LDWlin180:
00001cf6 0608           5963 	mov	r6,r1
00001cf8 cf0a           5964 	shl	15,r1
00001cfa 4016d0ff       5965 	movhi	hi(-3145728),zero,r2
00001cfe c209           5966 	add	r2,r1
00001d00 01161801       5967 	addi	280,r1,r2
00001d04 0708           5968 	mov	r7,r1
00001d06 ec0f4202       5969 	mulu	12,r1,zero
00001d0a c209           5970 	add	r2,r1
00001d0c 0810           5971 	mov	r8,r2
00001d0e c212           5972 	shl	2,r2
00001d10 02f0           5973 	mov	r2,ep
00001d12 c1f1           5974 	add	r1,ep
00001d14 000d           5975 	sld.w	0[ep],r1
00001d16 f20fd860       5976 	bins	r18,4,3,r1
00001d1a 010d           5977 	sst.w	r1,0[ep]
00001d1c d515*          5978 	br	.L2707
                        5979 .L2709:
                        5980 --1677: 	}
                        5981 --1678: 	else
                        5982 --1679: 	{
                        5983 --1680: 		CFDCFCC(UnitIndex, ChannelIndex, FifoIndex).BIT.CFPLS = (RSCFD_U32) RSCFD_FIFO_PAYLOAD_8_BYTE;
                        5984 --line1680
                        5985 ..lin.D.3A.5CCANFDGwMcuFirmRH850F1x.5Ccode.5CCANFDGwMcuFirmRH850F1x.5CCANFDGwMcuFirmRH850F1x.5Cprj.5CGHS.20MULTI.5CCAN.20Gateway.5Coutput.5Cobj.5Cpe1.5Crscanfd_drv.181::
                        5986 .LDWlin181:
00001d1e 0608           5987 	mov	r6,r1

                                                                      Page 101
                                                              C:\Users\TIEZHU~1\AppData\Local\Temp\gh_000076o1.si
00001d20 cf0a           5988 	shl	15,r1
00001d22 4016d0ff       5989 	movhi	hi(-3145728),zero,r2
00001d26 c209           5990 	add	r2,r1
00001d28 01161801       5991 	addi	280,r1,r2
00001d2c 0708           5992 	mov	r7,r1
00001d2e ec0f4202       5993 	mulu	12,r1,zero
00001d32 c209           5994 	add	r2,r1
00001d34 0810           5995 	mov	r8,r2
00001d36 c212           5996 	shl	2,r2
00001d38 02f0           5997 	mov	r2,ep
00001d3a c1f1           5998 	add	r1,ep
00001d3c 000d           5999 	sld.w	0[ep],r1
00001d3e 20168fff       6000 	movea	-113,zero,r2
00001d42 4209           6001 	and	r2,r1
00001d44 010d           6002 	sst.w	r1,0[ep]
                        6003 .L2707:
                        6004 --1681: 	}
                        6005 --1682: } /* End of RSCFD_SetCFIFO() */
                        6006 --	    .ef
                        6007 .LDW131:
00001d46 7f00           6008 	jmp	[lp]
                        6009 	.type	_RSCFD_SetCFIFO,@function
                        6010 	.size	_RSCFD_SetCFIFO,.-_RSCFD_SetCFIFO
                        6011 	.align	2
                        6012 .LDW231:
                        6013 
                        6014 --_UnitIndex	r6	param
                        6015 --_ChannelIndex	r7	param
                        6016 --_FifoIndex	r8	param
                        6017 --_Mode	r9	param
                        6018 --_Depth	r19	param
                        6019 --_Payload	r18	param
                        6020 
                        6021 	.data
                        6022 	.text
                        6023 
                        6024 
                        6025 --1684: /***********************************************************************************************************************
                        6026 --1685:  * Function Name: RSCFD_SetCFIFOInterrupt
                        6027 --1686:  * Description  : set Tx/Rx fifo interrupt
                        6028 --1687:  * Arguments    : UnitIndex -
                        6029 --1688:  *              :   specified unit
                        6030 --1689:  *              : ChannelIndex -
                        6031 --1690:  *              :   specified channel
                        6032 --1691:  *              : FifoIndex -
                        6033 --1692:  *              :   specified Tx/Rx fifo index
                        6034 --1693:  *              : TxEnable -
                        6035 --1694:  *              :   enable or disable Tx/Rx fifo transmission interrupt
                        6036 --1695:  *              : TxEnable -
                        6037 --1696:  *              :   enable or disable Tx/Rx fifo reception interrupt
                        6038 --1697:  *              : Mode -
                        6039 --1698:  *              :   specified Tx/Rx fifo mode
                        6040 --1699:  *              : Counter -
                        6041 --1700:  *              :   specified interrupt generation counter value
                        6042 --1701:  * Return Value : none
                        6043 --1702:  ***********************************************************************************************************************/
                        6044 --1703: void RSCFD_SetCFIFOInterrupt(RSCFD_U8 UnitIndex, RSCFD_U8 ChannelIndex, RSCFD_U8 FifoIndex, RSCFD_BOOL TxEnable,
                        6045 	.align	2
                        6046 	.align	2
                        6047 	.global	_RSCFD_SetCFIFOInterrupt
                        6048 _RSCFD_SetCFIFOInterrupt:

                                                                      Page 102
                                                              C:\Users\TIEZHU~1\AppData\Local\Temp\gh_000076o1.si
00001d48 8600           6049 	zxb	r6
00001d4a 8700           6050 	zxb	r7
00001d4c 8800           6051 	zxb	r8
00001d4e 8900           6052 	zxb	r9
00001d50 839f0100       6053 	ld.bu	0[sp],r19
00001d54 23970500       6054 	ld.w	4[sp],r18
00001d58 238f0900       6055 	ld.w	8[sp],r17
                        6056 --	    .bf
                        6057 .LDW331:
                        6058 --1704:                              RSCFD_BOOL RxEnable, RSCFD_FIFOIntMode Mode, RSCFD_FIFOIntCounter Counter)
                        6059 --1705: {
                        6060 --1706: 	CFCC(UnitIndex, ChannelIndex, FifoIndex).BIT.CFTXIE = (RSCFD_U32) TxEnable;
00001d5c 0608           6061 	mov	r6,r1
00001d5e cf0a           6062 	shl	15,r1
00001d60 4016d0ff       6063 	movhi	hi(-3145728),zero,r2
00001d64 c209           6064 	add	r2,r1
00001d66 01161801       6065 	addi	280,r1,r2
00001d6a 0708           6066 	mov	r7,r1
00001d6c ec0f4202       6067 	mulu	12,r1,zero
00001d70 c209           6068 	add	r2,r1
00001d72 0810           6069 	mov	r8,r2
00001d74 c212           6070 	shl	2,r2
00001d76 02f0           6071 	mov	r2,ep
00001d78 c1f1           6072 	add	r1,ep
00001d7a 000d           6073 	sld.w	0[ep],r1
00001d7c e90fd420       6074 	bins	r9,2,1,r1
00001d80 010d           6075 	sst.w	r1,0[ep]
                        6076 --1707: 	CFCC(UnitIndex, ChannelIndex, FifoIndex).BIT.CFRXIE = (RSCFD_U32) RxEnable;
00001d82 0608           6077 	mov	r6,r1
00001d84 cf0a           6078 	shl	15,r1
00001d86 4016d0ff       6079 	movhi	hi(-3145728),zero,r2
00001d8a c209           6080 	add	r2,r1
00001d8c 01161801       6081 	addi	280,r1,r2
00001d90 0708           6082 	mov	r7,r1
00001d92 ec0f4202       6083 	mulu	12,r1,zero
00001d96 c209           6084 	add	r2,r1
00001d98 0810           6085 	mov	r8,r2
00001d9a c212           6086 	shl	2,r2
00001d9c 02f0           6087 	mov	r2,ep
00001d9e c1f1           6088 	add	r1,ep
00001da0 000d           6089 	sld.w	0[ep],r1
00001da2 f30fd210       6090 	bins	r19,1,1,r1
00001da6 010d           6091 	sst.w	r1,0[ep]
                        6092 --1708: 	CFCC(UnitIndex, ChannelIndex, FifoIndex).BIT.CFIM = (RSCFD_U32) Mode;
00001da8 0608           6093 	mov	r6,r1
00001daa cf0a           6094 	shl	15,r1
00001dac 4016d0ff       6095 	movhi	hi(-3145728),zero,r2
00001db0 c209           6096 	add	r2,r1
00001db2 01161801       6097 	addi	280,r1,r2
00001db6 0708           6098 	mov	r7,r1
00001db8 ec0f4202       6099 	mulu	12,r1,zero
00001dbc c209           6100 	add	r2,r1
00001dbe 0810           6101 	mov	r8,r2
00001dc0 c212           6102 	shl	2,r2
00001dc2 02f0           6103 	mov	r2,ep
00001dc4 c1f1           6104 	add	r1,ep
00001dc6 000d           6105 	sld.w	0[ep],r1
00001dc8 f20fd8c8       6106 	bins	r18,12,1,r1
00001dcc 010d           6107 	sst.w	r1,0[ep]
                        6108 --1709: 	CFCC(UnitIndex, ChannelIndex, FifoIndex).BIT.CFIGCV = (RSCFD_U32) Counter;
00001dce 0608           6109 	mov	r6,r1

                                                                      Page 103
                                                              C:\Users\TIEZHU~1\AppData\Local\Temp\gh_000076o1.si
00001dd0 cf0a           6110 	shl	15,r1
00001dd2 4016d0ff       6111 	movhi	hi(-3145728),zero,r2
00001dd6 c209           6112 	add	r2,r1
00001dd8 01161801       6113 	addi	280,r1,r2
00001ddc 0708           6114 	mov	r7,r1
00001dde ec0f4202       6115 	mulu	12,r1,zero
00001de2 c209           6116 	add	r2,r1
00001de4 0810           6117 	mov	r8,r2
00001de6 c212           6118 	shl	2,r2
00001de8 02f0           6119 	mov	r2,ep
00001dea c1f1           6120 	add	r1,ep
00001dec 000d           6121 	sld.w	0[ep],r1
00001dee f10fdaf8       6122 	bins	r17,13,3,r1
00001df2 010d           6123 	sst.w	r1,0[ep]
                        6124 --1710: } /* End of RSCFD_SetCFIFOInterrupt() */
                        6125 --	    .ef
                        6126 .LDW431:
00001df4 7f00           6127 	jmp	[lp]
                        6128 	.type	_RSCFD_SetCFIFOInterrupt,@function
                        6129 	.size	_RSCFD_SetCFIFOInterrupt,.-_RSCFD_SetCFIFOInterrupt
                        6130 	.align	2
                        6131 .LDW531:
                        6132 
                        6133 --_UnitIndex	r6	param
                        6134 --_ChannelIndex	r7	param
                        6135 --_FifoIndex	r8	param
                        6136 --_TxEnable	r9	param
                        6137 --_RxEnable	r19	param
                        6138 --_Mode	r18	param
                        6139 --_Counter	r17	param
                        6140 
                        6141 	.data
                        6142 	.text
                        6143 
                        6144 
                        6145 --1712: /***********************************************************************************************************************
                        6146 --1713:  * Function Name: RSCFD_DisableCFIFOInterrupt
                        6147 --1714:  * Description  : disable Tx/Rx fifo interrupt
                        6148 --1715:  * Arguments    : UnitIndex -
                        6149 --1716:  *              :   specified unit
                        6150 --1717:  *              : ChannelIndex -
                        6151 --1718:  *              :   specified channel
                        6152 --1719:  *              : FifoIndex -
                        6153 --1720:  *              :   specified Tx/Rx fifo index
                        6154 --1721:  * Return Value : none
                        6155 --1722:  ***********************************************************************************************************************/
                        6156 --1723: void RSCFD_DisableCFIFOInterrupt(RSCFD_U8 UnitIndex, RSCFD_U8 ChannelIndex, RSCFD_U8 FifoIndex)
                        6157 	.align	2
                        6158 	.align	2
                        6159 	.global	_RSCFD_DisableCFIFOInterrupt
                        6160 _RSCFD_DisableCFIFOInterrupt:
00001df6 8600           6161 	zxb	r6
00001df8 8700           6162 	zxb	r7
00001dfa 8800           6163 	zxb	r8
                        6164 --	    .bf
                        6165 .LDW631:
                        6166 --1724: {
                        6167 --1725: 	if (!CFCC(UnitIndex, ChannelIndex, FifoIndex).BIT.CFE)
00001dfc 0608           6168 	mov	r6,r1
00001dfe cf0a           6169 	shl	15,r1
00001e00 4016d0ff       6170 	movhi	hi(-3145728),zero,r2

                                                                      Page 104
                                                              C:\Users\TIEZHU~1\AppData\Local\Temp\gh_000076o1.si
00001e04 c209           6171 	add	r2,r1
00001e06 01161801       6172 	addi	280,r1,r2
00001e0a 0708           6173 	mov	r7,r1
00001e0c ec0f4202       6174 	mulu	12,r1,zero
00001e10 c209           6175 	add	r2,r1
00001e12 0810           6176 	mov	r8,r2
00001e14 c212           6177 	shl	2,r2
00001e16 02f0           6178 	mov	r2,ep
00001e18 c1f1           6179 	add	r1,ep
00001e1a 000d           6180 	sld.w	0[ep],r1
00001e1c c10e0100       6181 	andi	1,r1,r1
00001e20 e009           6182 	cmp	zero,r1
00001e22 fa25*          6183 	bne	.L2771
                        6184 --1726: 	{
                        6185 --1727: 		CFCC(UnitIndex, ChannelIndex, FifoIndex).BIT.CFTXIE = RSCFD_FALSE;
                        6186 --line1727
                        6187 ..lin.D.3A.5CCANFDGwMcuFirmRH850F1x.5Ccode.5CCANFDGwMcuFirmRH850F1x.5CCANFDGwMcuFirmRH850F1x.5Cprj.5CGHS.20MULTI.5CCAN.20Gateway.5Coutput.5Cobj.5Cpe1.5Crscanfd_drv.182::
                        6188 .LDWlin182:
00001e24 0608           6189 	mov	r6,r1
00001e26 cf0a           6190 	shl	15,r1
00001e28 4016d0ff       6191 	movhi	hi(-3145728),zero,r2
00001e2c c209           6192 	add	r2,r1
00001e2e 01161801       6193 	addi	280,r1,r2
00001e32 0708           6194 	mov	r7,r1
00001e34 ec0f4202       6195 	mulu	12,r1,zero
00001e38 c209           6196 	add	r2,r1
00001e3a 0810           6197 	mov	r8,r2
00001e3c c212           6198 	shl	2,r2
00001e3e 02f0           6199 	mov	r2,ep
00001e40 c1f1           6200 	add	r1,ep
00001e42 000d           6201 	sld.w	0[ep],r1
00001e44 1b12           6202 	mov	-5,r2
00001e46 4209           6203 	and	r2,r1
00001e48 010d           6204 	sst.w	r1,0[ep]
                        6205 --1728: 		CFCC(UnitIndex, ChannelIndex, FifoIndex).BIT.CFRXIE = RSCFD_FALSE;
00001e4a 0608           6206 	mov	r6,r1
00001e4c cf0a           6207 	shl	15,r1
00001e4e 4016d0ff       6208 	movhi	hi(-3145728),zero,r2
00001e52 c209           6209 	add	r2,r1
00001e54 01161801       6210 	addi	280,r1,r2
00001e58 0708           6211 	mov	r7,r1
00001e5a ec0f4202       6212 	mulu	12,r1,zero
00001e5e c209           6213 	add	r2,r1
00001e60 0810           6214 	mov	r8,r2
00001e62 c212           6215 	shl	2,r2
00001e64 02f0           6216 	mov	r2,ep
00001e66 c1f1           6217 	add	r1,ep
00001e68 000d           6218 	sld.w	0[ep],r1
00001e6a 1d12           6219 	mov	-3,r2
00001e6c 4209           6220 	and	r2,r1
00001e6e 010d           6221 	sst.w	r1,0[ep]
                        6222 .L2771:
                        6223 --1729: 	}
                        6224 --1730: } /* End of RSCFD_DisableCFIFOInterrupt() */
                        6225 --	    .ef
                        6226 .LDW731:
00001e70 7f00           6227 	jmp	[lp]
                        6228 	.type	_RSCFD_DisableCFIFOInterrupt,@function
                        6229 	.size	_RSCFD_DisableCFIFOInterrupt,.-_RSCFD_DisableCFIFOInterrupt
                        6230 	.align	2
                        6231 .LDW831:

                                                                      Page 105
                                                              C:\Users\TIEZHU~1\AppData\Local\Temp\gh_000076o1.si
                        6232 
                        6233 --_UnitIndex	r6	param
                        6234 --_ChannelIndex	r7	param
                        6235 --_FifoIndex	r8	param
                        6236 
                        6237 	.data
                        6238 	.text
                        6239 
                        6240 
                        6241 --1732: /***********************************************************************************************************************
                        6242 --1733:  * Function Name: RSCFD_EnableCFIFOInterrupt
                        6243 --1734:  * Description  : enable Tx/Rx fifo interrupt
                        6244 --1735:  * Arguments    : UnitIndex -
                        6245 --1736:  *              :   specified unit
                        6246 --1737:  *              : ChannelIndex -
                        6247 --1738:  *              :   specified channel
                        6248 --1739:  *              : FifoIndex -
                        6249 --1740:  *              :   specified Tx/Rx fifo index
                        6250 --1741:  * Return Value : none
                        6251 --1742:  ***********************************************************************************************************************/
                        6252 --1743: void RSCFD_EnableCFIFOInterrupt(RSCFD_U8 UnitIndex, RSCFD_U8 ChannelIndex, RSCFD_U8 FifoIndex)
                        6253 	.align	2
                        6254 	.align	2
                        6255 	.global	_RSCFD_EnableCFIFOInterrupt
                        6256 _RSCFD_EnableCFIFOInterrupt:
00001e72 8600           6257 	zxb	r6
00001e74 8700           6258 	zxb	r7
00001e76 8800           6259 	zxb	r8
                        6260 --	    .bf
                        6261 .LDW931:
                        6262 --1744: {
                        6263 --1745: 	if (!CFCC(UnitIndex, ChannelIndex, FifoIndex).BIT.CFE)
00001e78 0608           6264 	mov	r6,r1
00001e7a cf0a           6265 	shl	15,r1
00001e7c 4016d0ff       6266 	movhi	hi(-3145728),zero,r2
00001e80 c209           6267 	add	r2,r1
00001e82 01161801       6268 	addi	280,r1,r2
00001e86 0708           6269 	mov	r7,r1
00001e88 ec0f4202       6270 	mulu	12,r1,zero
00001e8c c209           6271 	add	r2,r1
00001e8e 0810           6272 	mov	r8,r2
00001e90 c212           6273 	shl	2,r2
00001e92 02f0           6274 	mov	r2,ep
00001e94 c1f1           6275 	add	r1,ep
00001e96 000d           6276 	sld.w	0[ep],r1
00001e98 c10e0100       6277 	andi	1,r1,r1
00001e9c e009           6278 	cmp	zero,r1
00001e9e fa25*          6279 	bne	.L2808
                        6280 --1746: 	{
                        6281 --1747: 		CFCC(UnitIndex, ChannelIndex, FifoIndex).BIT.CFTXIE = RSCFD_TRUE;
                        6282 --line1747
                        6283 ..lin.D.3A.5CCANFDGwMcuFirmRH850F1x.5Ccode.5CCANFDGwMcuFirmRH850F1x.5CCANFDGwMcuFirmRH850F1x.5Cprj.5CGHS.20MULTI.5CCAN.20Gateway.5Coutput.5Cobj.5Cpe1.5Crscanfd_drv.183::
                        6284 .LDWlin183:
00001ea0 0608           6285 	mov	r6,r1
00001ea2 cf0a           6286 	shl	15,r1
00001ea4 4016d0ff       6287 	movhi	hi(-3145728),zero,r2
00001ea8 c209           6288 	add	r2,r1
00001eaa 01161801       6289 	addi	280,r1,r2
00001eae 0708           6290 	mov	r7,r1
00001eb0 ec0f4202       6291 	mulu	12,r1,zero
00001eb4 c209           6292 	add	r2,r1

                                                                      Page 106
                                                              C:\Users\TIEZHU~1\AppData\Local\Temp\gh_000076o1.si
00001eb6 0810           6293 	mov	r8,r2
00001eb8 c212           6294 	shl	2,r2
00001eba 02f0           6295 	mov	r2,ep
00001ebc c1f1           6296 	add	r1,ep
00001ebe 000d           6297 	sld.w	0[ep],r1
00001ec0 810e0400       6298 	ori	4,r1,r1
00001ec4 010d           6299 	sst.w	r1,0[ep]
                        6300 --1748: 		CFCC(UnitIndex, ChannelIndex, FifoIndex).BIT.CFRXIE = RSCFD_TRUE;
00001ec6 0608           6301 	mov	r6,r1
00001ec8 cf0a           6302 	shl	15,r1
00001eca 4016d0ff       6303 	movhi	hi(-3145728),zero,r2
00001ece c209           6304 	add	r2,r1
00001ed0 01161801       6305 	addi	280,r1,r2
00001ed4 0708           6306 	mov	r7,r1
00001ed6 ec0f4202       6307 	mulu	12,r1,zero
00001eda c209           6308 	add	r2,r1
00001edc 0810           6309 	mov	r8,r2
00001ede c212           6310 	shl	2,r2
00001ee0 02f0           6311 	mov	r2,ep
00001ee2 c1f1           6312 	add	r1,ep
00001ee4 000d           6313 	sld.w	0[ep],r1
00001ee6 810e0200       6314 	ori	2,r1,r1
00001eea 010d           6315 	sst.w	r1,0[ep]
                        6316 .L2808:
                        6317 --1749: 	}
                        6318 --1750: } /* End of RSCFD_EnableCFIFOInterrupt() */
                        6319 --	    .ef
                        6320 .LDW041:
00001eec 7f00           6321 	jmp	[lp]
                        6322 	.type	_RSCFD_EnableCFIFOInterrupt,@function
                        6323 	.size	_RSCFD_EnableCFIFOInterrupt,.-_RSCFD_EnableCFIFOInterrupt
                        6324 	.align	2
                        6325 .LDW141:
                        6326 
                        6327 --_UnitIndex	r6	param
                        6328 --_ChannelIndex	r7	param
                        6329 --_FifoIndex	r8	param
                        6330 
                        6331 	.data
                        6332 	.text
                        6333 
                        6334 
                        6335 --1752: /***********************************************************************************************************************
                        6336 --1753:  * Function Name: RSCFD_ReturnCFIFOTxStatus
                        6337 --1754:  * Description  : get Tx/Rx fifo transmission interrupt status
                        6338 --1755:  * Arguments    : UnitIndex -
                        6339 --1756:  *              :   specified unit
                        6340 --1757:  *              : ChannelIndex -
                        6341 --1758:  *              :   specified channel
                        6342 --1759:  *              : FifoIndex -
                        6343 --1760:  *              :   specified Tx/Rx fifo index
                        6344 --1761:  * Return Value : TRUE if have transmission interrupt
                        6345 --1762:  ***********************************************************************************************************************/
                        6346 --1763: RSCFD_BOOL RSCFD_ReturnCFIFOTxStatus(RSCFD_U8 UnitIndex, RSCFD_U8 ChannelIndex, RSCFD_U8 FifoIndex)
                        6347 	.align	2
                        6348 	.align	2
                        6349 	.global	_RSCFD_ReturnCFIFOTxStatus
                        6350 _RSCFD_ReturnCFIFOTxStatus:
00001eee 8600           6351 	zxb	r6
00001ef0 8700           6352 	zxb	r7
00001ef2 8800           6353 	zxb	r8

                                                                      Page 107
                                                              C:\Users\TIEZHU~1\AppData\Local\Temp\gh_000076o1.si
                        6354 --	    .bf
                        6355 .LDW241:
                        6356 --1764: {
                        6357 --1765: 	return CFSTS(UnitIndex, ChannelIndex, FifoIndex).BIT.CFTXIF;
00001ef4 0608           6358 	mov	r6,r1
00001ef6 cf0a           6359 	shl	15,r1
00001ef8 4016d0ff       6360 	movhi	hi(-3145728),zero,r2
00001efc c209           6361 	add	r2,r1
00001efe 01167801       6362 	addi	376,r1,r2
00001f02 0708           6363 	mov	r7,r1
00001f04 ec0f4202       6364 	mulu	12,r1,zero
00001f08 c209           6365 	add	r2,r1
00001f0a 0810           6366 	mov	r8,r2
00001f0c c212           6367 	shl	2,r2
00001f0e 02f0           6368 	mov	r2,ep
00001f10 c1f1           6369 	add	r1,ep
00001f12 000d           6370 	sld.w	0[ep],r1
00001f14 db0a           6371 	shl	27,r1
00001f16 9f0a           6372 	shr	31,r1
00001f18 0150           6373 	mov	r1,r10
                        6374 --	    .ef
                        6375 .LDW341:
00001f1a 7f00           6376 	jmp	[lp]
                        6377 	.type	_RSCFD_ReturnCFIFOTxStatus,@function
                        6378 	.size	_RSCFD_ReturnCFIFOTxStatus,.-_RSCFD_ReturnCFIFOTxStatus
                        6379 	.align	2
                        6380 .LDW441:
                        6381 
                        6382 --_UnitIndex	r6	param
                        6383 --_ChannelIndex	r7	param
                        6384 --_FifoIndex	r8	param
                        6385 
                        6386 	.data
                        6387 	.text
                        6388 
                        6389 --1766: } /* End of RSCFD_ReturnCFIFOTxStatus() */
                        6390 
                        6391 --1768: /***********************************************************************************************************************
                        6392 --1769:  * Function Name: RSCFD_ClearCFIFOTxIntFlag
                        6393 --1770:  * Description  : clear transmission interrupt flag for Tx/Rx fifo
                        6394 --1771:  * Arguments    : UnitIndex -
                        6395 --1772:  *              :   specified unit
                        6396 --1773:  *              : ChannelIndex -
                        6397 --1774:  *              :   specified channel
                        6398 --1775:  *              : FifoIndex -
                        6399 --1776:  *              :   specified Tx/Rx fifo index
                        6400 --1777:  * Return Value : none
                        6401 --1778:  ***********************************************************************************************************************/
                        6402 --1779: void RSCFD_ClearCFIFOTxIntFlag(RSCFD_U8 UnitIndex, RSCFD_U8 ChannelIndex, RSCFD_U8 FifoIndex)
                        6403 	.align	2
                        6404 	.align	2
                        6405 	.global	_RSCFD_ClearCFIFOTxIntFlag
                        6406 _RSCFD_ClearCFIFOTxIntFlag:
00001f1c 8600           6407 	zxb	r6
00001f1e 8700           6408 	zxb	r7
00001f20 8800           6409 	zxb	r8
                        6410 --	    .bf
                        6411 .LDW541:
                        6412 --1780: {
                        6413 --1781: 	CFSTS(UnitIndex, ChannelIndex, FifoIndex).BIT.CFTXIF = 0U;
00001f22 0608           6414 	mov	r6,r1

                                                                      Page 108
                                                              C:\Users\TIEZHU~1\AppData\Local\Temp\gh_000076o1.si
00001f24 cf0a           6415 	shl	15,r1
00001f26 4016d0ff       6416 	movhi	hi(-3145728),zero,r2
00001f2a c209           6417 	add	r2,r1
00001f2c 01167801       6418 	addi	376,r1,r2
00001f30 0708           6419 	mov	r7,r1
00001f32 ec0f4202       6420 	mulu	12,r1,zero
00001f36 c209           6421 	add	r2,r1
00001f38 0810           6422 	mov	r8,r2
00001f3a c212           6423 	shl	2,r2
00001f3c 02f0           6424 	mov	r2,ep
00001f3e c1f1           6425 	add	r1,ep
00001f40 000d           6426 	sld.w	0[ep],r1
00001f42 2016efff       6427 	movea	-17,zero,r2
00001f46 4209           6428 	and	r2,r1
00001f48 010d           6429 	sst.w	r1,0[ep]
                        6430 --1782: } /* End of RSCFD_ClearCFIFOTxIntFlag() */
                        6431 --	    .ef
                        6432 .LDW641:
00001f4a 7f00           6433 	jmp	[lp]
                        6434 	.type	_RSCFD_ClearCFIFOTxIntFlag,@function
                        6435 	.size	_RSCFD_ClearCFIFOTxIntFlag,.-_RSCFD_ClearCFIFOTxIntFlag
                        6436 	.align	2
                        6437 .LDW741:
                        6438 
                        6439 --_UnitIndex	r6	param
                        6440 --_ChannelIndex	r7	param
                        6441 --_FifoIndex	r8	param
                        6442 
                        6443 	.data
                        6444 	.text
                        6445 
                        6446 
                        6447 --1784: /***********************************************************************************************************************
                        6448 --1785:  * Function Name: RSCFD_ClearCFIFORxIntFlag
                        6449 --1786:  * Description  : clear reception interrupt flag for Tx/Rx fifo
                        6450 --1787:  * Arguments    : UnitIndex -
                        6451 --1788:  *              :   specified unit
                        6452 --1789:  *              : ChannelIndex -
                        6453 --1790:  *              :   specified channel
                        6454 --1791:  *              : FifoIndex -
                        6455 --1792:  *              :   specified Tx/Rx fifo index
                        6456 --1793:  * Return Value : none
                        6457 --1794:  ***********************************************************************************************************************/
                        6458 --1795: void RSCFD_ClearCFIFORxIntFlag(RSCFD_U8 UnitIndex, RSCFD_U8 ChannelIndex, RSCFD_U8 FifoIndex)
                        6459 	.align	2
                        6460 	.align	2
                        6461 	.global	_RSCFD_ClearCFIFORxIntFlag
                        6462 _RSCFD_ClearCFIFORxIntFlag:
00001f4c 8600           6463 	zxb	r6
00001f4e 8700           6464 	zxb	r7
00001f50 8800           6465 	zxb	r8
                        6466 --	    .bf
                        6467 .LDW841:
                        6468 --1796: {
                        6469 --1797: 	CFSTS(UnitIndex, ChannelIndex, FifoIndex).BIT.CFRXIF = 0U;
00001f52 0608           6470 	mov	r6,r1
00001f54 cf0a           6471 	shl	15,r1
00001f56 4016d0ff       6472 	movhi	hi(-3145728),zero,r2
00001f5a c209           6473 	add	r2,r1
00001f5c 01167801       6474 	addi	376,r1,r2
00001f60 0708           6475 	mov	r7,r1

                                                                      Page 109
                                                              C:\Users\TIEZHU~1\AppData\Local\Temp\gh_000076o1.si
00001f62 ec0f4202       6476 	mulu	12,r1,zero
00001f66 c209           6477 	add	r2,r1
00001f68 0810           6478 	mov	r8,r2
00001f6a c212           6479 	shl	2,r2
00001f6c 02f0           6480 	mov	r2,ep
00001f6e c1f1           6481 	add	r1,ep
00001f70 000d           6482 	sld.w	0[ep],r1
00001f72 1712           6483 	mov	-9,r2
00001f74 4209           6484 	and	r2,r1
00001f76 010d           6485 	sst.w	r1,0[ep]
                        6486 --1798: } /* End of RSCFD_ClearCFIFORxIntFlag() */
                        6487 --	    .ef
                        6488 .LDW941:
00001f78 7f00           6489 	jmp	[lp]
                        6490 	.type	_RSCFD_ClearCFIFORxIntFlag,@function
                        6491 	.size	_RSCFD_ClearCFIFORxIntFlag,.-_RSCFD_ClearCFIFORxIntFlag
                        6492 	.align	2
                        6493 .LDW051:
                        6494 
                        6495 --_UnitIndex	r6	param
                        6496 --_ChannelIndex	r7	param
                        6497 --_FifoIndex	r8	param
                        6498 
                        6499 	.data
                        6500 	.text
                        6501 
                        6502 
                        6503 --1800: /***********************************************************************************************************************
                        6504 --1801:  * Function Name: RSCFD_SetCFIFOTx
                        6505 --1802:  * Description  : set linked buffer for specified Tx/Rx fifo
                        6506 --1803:  * Arguments    : UnitIndex -
                        6507 --1804:  *              :   specified unit
                        6508 --1805:  *              : ChannelIndex -
                        6509 --1806:  *              :   specified channel
                        6510 --1807:  *              : FifoIndex -
                        6511 --1808:  *              :   specified Tx/Rx fifo index
                        6512 --1809:  *              : TmbLink -
                        6513 --1810:  *              :   set Tx/Rx fifo link buffer
                        6514 --1811:  * Return Value : none
                        6515 --1812:  ***********************************************************************************************************************/
                        6516 --1813: void RSCFD_SetCFIFOTx(RSCFD_U8 UnitIndex, RSCFD_U8 ChannelIndex, RSCFD_U8 FifoIndex, RSCFD_U8 TmbLink)
                        6517 	.align	2
                        6518 	.align	2
                        6519 	.global	_RSCFD_SetCFIFOTx
                        6520 _RSCFD_SetCFIFOTx:
00001f7a 8600           6521 	zxb	r6
00001f7c 8700           6522 	zxb	r7
00001f7e 8800           6523 	zxb	r8
00001f80 8900           6524 	zxb	r9
                        6525 --	    .bf
                        6526 .LDW151:
                        6527 --1814: {
                        6528 --1815: 	CFCC(UnitIndex, ChannelIndex, FifoIndex).BIT.CFTML = (RSCFD_U32) TmbLink;
00001f82 0608           6529 	mov	r6,r1
00001f84 cf0a           6530 	shl	15,r1
00001f86 4016d0ff       6531 	movhi	hi(-3145728),zero,r2
00001f8a c209           6532 	add	r2,r1
00001f8c 01161801       6533 	addi	280,r1,r2
00001f90 0708           6534 	mov	r7,r1
00001f92 ec0f4202       6535 	mulu	12,r1,zero
00001f96 c209           6536 	add	r2,r1

                                                                      Page 110
                                                              C:\Users\TIEZHU~1\AppData\Local\Temp\gh_000076o1.si
00001f98 0810           6537 	mov	r8,r2
00001f9a c212           6538 	shl	2,r2
00001f9c 02f0           6539 	mov	r2,ep
00001f9e c1f1           6540 	add	r1,ep
00001fa0 000d           6541 	sld.w	0[ep],r1
00001fa2 e90f9870       6542 	bins	r9,20,4,r1
00001fa6 010d           6543 	sst.w	r1,0[ep]
                        6544 --1816: } /* End of RSCFD_SetCFIFOTx() */
                        6545 --	    .ef
                        6546 .LDW251:
00001fa8 7f00           6547 	jmp	[lp]
                        6548 	.type	_RSCFD_SetCFIFOTx,@function
                        6549 	.size	_RSCFD_SetCFIFOTx,.-_RSCFD_SetCFIFOTx
                        6550 	.align	2
                        6551 .LDW351:
                        6552 
                        6553 --_UnitIndex	r6	param
                        6554 --_ChannelIndex	r7	param
                        6555 --_FifoIndex	r8	param
                        6556 --_TmbLink	r9	param
                        6557 
                        6558 	.data
                        6559 	.text
                        6560 
                        6561 
                        6562 --1818: /***********************************************************************************************************************
                        6563 --1819:  * Function Name: RSCFD_SetCFIFOTxInterval
                        6564 --1820:  * Description  : set transmission interval for Tx/Rx fifo
                        6565 --1821:  * Arguments    : UnitIndex -
                        6566 --1822:  *              :   specified unit
                        6567 --1823:  *              : ChannelIndex -
                        6568 --1824:  *              :   specified channel
                        6569 --1825:  *              : FifoIndex -
                        6570 --1826:  *              :   specified Tx/Rx fifo index
                        6571 --1827:  *              : Unit -
                        6572 --1828:  *              :   interval unit
                        6573 --1829:  *              : IntervaValue -
                        6574 --1830:  *              :   specified interval value
                        6575 --1831:  * Return Value : none
                        6576 --1832:  ***********************************************************************************************************************/
                        6577 --1833: void RSCFD_SetCFIFOTxInterval(RSCFD_U8 UnitIndex, RSCFD_U8 ChannelIndex, RSCFD_U8 FifoIndex,
                        6578 	.align	2
                        6579 	.align	2
                        6580 	.global	_RSCFD_SetCFIFOTxInterval
                        6581 _RSCFD_SetCFIFOTxInterval:
00001faa 8600           6582 	zxb	r6
00001fac 8700           6583 	zxb	r7
00001fae 8800           6584 	zxb	r8
00001fb0 839f0100       6585 	ld.bu	0[sp],r19
                        6586 --	    .bf
                        6587 .LDW451:
                        6588 --1834:                               RSCFD_FIFOIntervalTimeUnit Unit, RSCFD_U8 IntervaValue)
                        6589 --1835: {
                        6590 --1836: 	if (Unit == RSCFD_FIFO_IT_UNIT_REF_CLK_1_TIMES)
00001fb4 e049           6591 	cmp	zero,r9
00001fb6 8a2d*          6592 	bne	.L2965
                        6593 --1837: 	{
                        6594 --1838: 		CFCC(UnitIndex, ChannelIndex, FifoIndex).BIT.CFITSS = 0;
                        6595 --line1838
                        6596 ..lin.D.3A.5CCANFDGwMcuFirmRH850F1x.5Ccode.5CCANFDGwMcuFirmRH850F1x.5CCANFDGwMcuFirmRH850F1x.5Cprj.5CGHS.20MULTI.5CCAN.20Gateway.5Coutput.5Cobj.5Cpe1.5Crscanfd_drv.184::
                        6597 .LDWlin184:

                                                                      Page 111
                                                              C:\Users\TIEZHU~1\AppData\Local\Temp\gh_000076o1.si
00001fb8 0608           6598 	mov	r6,r1
00001fba cf0a           6599 	shl	15,r1
00001fbc 4016d0ff       6600 	movhi	hi(-3145728),zero,r2
00001fc0 c209           6601 	add	r2,r1
00001fc2 01161801       6602 	addi	280,r1,r2
00001fc6 0708           6603 	mov	r7,r1
00001fc8 ec0f4202       6604 	mulu	12,r1,zero
00001fcc c209           6605 	add	r2,r1
00001fce 0810           6606 	mov	r8,r2
00001fd0 c212           6607 	shl	2,r2
00001fd2 02f0           6608 	mov	r2,ep
00001fd4 c1f1           6609 	add	r1,ep
00001fd6 000d           6610 	sld.w	0[ep],r1
00001fd8 e00f9420       6611 	bins	zero,18,1,r1
00001fdc 010d           6612 	sst.w	r1,0[ep]
                        6613 --1839: 		CFCC(UnitIndex, ChannelIndex, FifoIndex).BIT.CFITR = 0;
00001fde 0608           6614 	mov	r6,r1
00001fe0 cf0a           6615 	shl	15,r1
00001fe2 4016d0ff       6616 	movhi	hi(-3145728),zero,r2
00001fe6 c209           6617 	add	r2,r1
00001fe8 01161801       6618 	addi	280,r1,r2
00001fec 0708           6619 	mov	r7,r1
00001fee ec0f4202       6620 	mulu	12,r1,zero
00001ff2 c209           6621 	add	r2,r1
00001ff4 0810           6622 	mov	r8,r2
00001ff6 c212           6623 	shl	2,r2
00001ff8 02f0           6624 	mov	r2,ep
00001ffa c1f1           6625 	add	r1,ep
00001ffc 000d           6626 	sld.w	0[ep],r1
00001ffe e00f9630       6627 	bins	zero,19,1,r1
00002002 010d           6628 	sst.w	r1,0[ep]
00002004 f53d*          6629 	br	.L2967
                        6630 .L2965:
                        6631 --1840: 	}
                        6632 --1841: 	else if (Unit == RSCFD_FIFO_IT_UNIT_REF_CLK_10_TIMES)
                        6633 --line1841
                        6634 ..lin.D.3A.5CCANFDGwMcuFirmRH850F1x.5Ccode.5CCANFDGwMcuFirmRH850F1x.5CCANFDGwMcuFirmRH850F1x.5Cprj.5CGHS.20MULTI.5CCAN.20Gateway.5Coutput.5Cobj.5Cpe1.5Crscanfd_drv.185::
                        6635 .LDWlin185:
00002006 614a           6636 	cmp	1,r9
00002008 9a2d*          6637 	bne	.L2968
                        6638 --1842: 	{
                        6639 --1843: 		CFCC(UnitIndex, ChannelIndex, FifoIndex).BIT.CFITSS = 0;
                        6640 --line1843
                        6641 ..lin.D.3A.5CCANFDGwMcuFirmRH850F1x.5Ccode.5CCANFDGwMcuFirmRH850F1x.5CCANFDGwMcuFirmRH850F1x.5Cprj.5CGHS.20MULTI.5CCAN.20Gateway.5Coutput.5Cobj.5Cpe1.5Crscanfd_drv.186::
                        6642 .LDWlin186:
0000200a 0608           6643 	mov	r6,r1
0000200c cf0a           6644 	shl	15,r1
0000200e 4016d0ff       6645 	movhi	hi(-3145728),zero,r2
00002012 c209           6646 	add	r2,r1
00002014 01161801       6647 	addi	280,r1,r2
00002018 0708           6648 	mov	r7,r1
0000201a ec0f4202       6649 	mulu	12,r1,zero
0000201e c209           6650 	add	r2,r1
00002020 0810           6651 	mov	r8,r2
00002022 c212           6652 	shl	2,r2
00002024 02f0           6653 	mov	r2,ep
00002026 c1f1           6654 	add	r1,ep
00002028 000d           6655 	sld.w	0[ep],r1
0000202a e00f9420       6656 	bins	zero,18,1,r1
0000202e 010d           6657 	sst.w	r1,0[ep]
                        6658 --1844: 		CFCC(UnitIndex, ChannelIndex, FifoIndex).BIT.CFITR = 1;

                                                                      Page 112
                                                              C:\Users\TIEZHU~1\AppData\Local\Temp\gh_000076o1.si
00002030 0608           6659 	mov	r6,r1
00002032 cf0a           6660 	shl	15,r1
00002034 4016d0ff       6661 	movhi	hi(-3145728),zero,r2
00002038 c209           6662 	add	r2,r1
0000203a 01161801       6663 	addi	280,r1,r2
0000203e 0708           6664 	mov	r7,r1
00002040 ec0f4202       6665 	mulu	12,r1,zero
00002044 c209           6666 	add	r2,r1
00002046 0810           6667 	mov	r8,r2
00002048 c212           6668 	shl	2,r2
0000204a 02f0           6669 	mov	r2,ep
0000204c c1f1           6670 	add	r1,ep
0000204e 000d           6671 	sld.w	0[ep],r1
00002050 40160800       6672 	movhi	hi(524288),zero,r2
00002054 0209           6673 	or	r2,r1
00002056 010d           6674 	sst.w	r1,0[ep]
00002058 d515*          6675 	br	.L2967
                        6676 .L2968:
                        6677 --1845: 	}
                        6678 --1846: 	else
                        6679 --1847: 	{
                        6680 --1848: 		CFCC(UnitIndex, ChannelIndex, FifoIndex).BIT.CFITSS = 1;
                        6681 --line1848
                        6682 ..lin.D.3A.5CCANFDGwMcuFirmRH850F1x.5Ccode.5CCANFDGwMcuFirmRH850F1x.5CCANFDGwMcuFirmRH850F1x.5Cprj.5CGHS.20MULTI.5CCAN.20Gateway.5Coutput.5Cobj.5Cpe1.5Crscanfd_drv.187::
                        6683 .LDWlin187:
0000205a 0608           6684 	mov	r6,r1
0000205c cf0a           6685 	shl	15,r1
0000205e 4016d0ff       6686 	movhi	hi(-3145728),zero,r2
00002062 c209           6687 	add	r2,r1
00002064 01161801       6688 	addi	280,r1,r2
00002068 0708           6689 	mov	r7,r1
0000206a ec0f4202       6690 	mulu	12,r1,zero
0000206e c209           6691 	add	r2,r1
00002070 0810           6692 	mov	r8,r2
00002072 c212           6693 	shl	2,r2
00002074 02f0           6694 	mov	r2,ep
00002076 c1f1           6695 	add	r1,ep
00002078 000d           6696 	sld.w	0[ep],r1
0000207a 40160400       6697 	movhi	hi(262144),zero,r2
0000207e 0209           6698 	or	r2,r1
00002080 010d           6699 	sst.w	r1,0[ep]
                        6700 .L2967:
                        6701 --1849: 	}
                        6702 --1850: 	CFCC(UnitIndex, ChannelIndex, FifoIndex).BIT.CFITT = IntervaValue;
00002082 0608           6703 	mov	r6,r1
00002084 cf0a           6704 	shl	15,r1
00002086 4016d0ff       6705 	movhi	hi(-3145728),zero,r2
0000208a c209           6706 	add	r2,r1
0000208c 01161801       6707 	addi	280,r1,r2
00002090 0708           6708 	mov	r7,r1
00002092 ec0f4202       6709 	mulu	12,r1,zero
00002096 c209           6710 	add	r2,r1
00002098 0810           6711 	mov	r8,r2
0000209a c212           6712 	shl	2,r2
0000209c 02f0           6713 	mov	r2,ep
0000209e c1f1           6714 	add	r1,ep
000020a0 000d           6715 	sld.w	0[ep],r1
000020a2 f30f90f8       6716 	bins	r19,24,8,r1
000020a6 010d           6717 	sst.w	r1,0[ep]
                        6718 --1851: } /* End of RSCFD_SetCFIFOTxInterval() */
                        6719 --	    .ef

                                                                      Page 113
                                                              C:\Users\TIEZHU~1\AppData\Local\Temp\gh_000076o1.si
                        6720 .LDW551:
000020a8 7f00           6721 	jmp	[lp]
                        6722 	.type	_RSCFD_SetCFIFOTxInterval,@function
                        6723 	.size	_RSCFD_SetCFIFOTxInterval,.-_RSCFD_SetCFIFOTxInterval
                        6724 	.align	2
                        6725 .LDW651:
                        6726 
                        6727 --_UnitIndex	r6	param
                        6728 --_ChannelIndex	r7	param
                        6729 --_FifoIndex	r8	param
                        6730 --_Unit	r9	param
                        6731 --_IntervaValue	r19	param
                        6732 
                        6733 	.data
                        6734 	.text
                        6735 
                        6736 
                        6737 --1853: /***********************************************************************************************************************
                        6738 --1854:  * Function Name: RSCFD_EnableCFIFO
                        6739 --1855:  * Description  : enable specifed Tx/Rx fifo
                        6740 --1856:  * Arguments    : UnitIndex -
                        6741 --1857:  *              :   specified unit
                        6742 --1858:  *              : ChannelIndex -
                        6743 --1859:  *              :   specified channel
                        6744 --1860:  *              : FifoIndex -
                        6745 --1861:  *              :   specified Tx/Rx fifo index
                        6746 --1862:  *              : Enable -
                        6747 --1863:  *              :   enable or disable
                        6748 --1864:  * Return Value : none
                        6749 --1865:  ***********************************************************************************************************************/
                        6750 --1866: void RSCFD_EnableCFIFO(RSCFD_U8 UnitIndex, RSCFD_U8 ChannelIndex, RSCFD_U8 FifoIndex, RSCFD_BOOL Enable)
                        6751 	.align	2
                        6752 	.align	2
                        6753 	.global	_RSCFD_EnableCFIFO
                        6754 _RSCFD_EnableCFIFO:
000020aa 8600           6755 	zxb	r6
000020ac 8700           6756 	zxb	r7
000020ae 8800           6757 	zxb	r8
000020b0 8900           6758 	zxb	r9
                        6759 --	    .bf
                        6760 .LDW751:
                        6761 --1867: {
                        6762 --1868: 	CFCC(UnitIndex, ChannelIndex, FifoIndex).BIT.CFE = (RSCFD_U32) Enable;
000020b2 0608           6763 	mov	r6,r1
000020b4 cf0a           6764 	shl	15,r1
000020b6 4016d0ff       6765 	movhi	hi(-3145728),zero,r2
000020ba c209           6766 	add	r2,r1
000020bc 01161801       6767 	addi	280,r1,r2
000020c0 0708           6768 	mov	r7,r1
000020c2 ec0f4202       6769 	mulu	12,r1,zero
000020c6 c209           6770 	add	r2,r1
000020c8 0810           6771 	mov	r8,r2
000020ca c212           6772 	shl	2,r2
000020cc 02f0           6773 	mov	r2,ep
000020ce c1f1           6774 	add	r1,ep
000020d0 000d           6775 	sld.w	0[ep],r1
000020d2 e90fd000       6776 	bins	r9,0,1,r1
000020d6 010d           6777 	sst.w	r1,0[ep]
                        6778 --1869: } /* End of RSCFD_EnableCFIFO() */
                        6779 --	    .ef
                        6780 .LDW851:

                                                                      Page 114
                                                              C:\Users\TIEZHU~1\AppData\Local\Temp\gh_000076o1.si
000020d8 7f00           6781 	jmp	[lp]
                        6782 	.type	_RSCFD_EnableCFIFO,@function
                        6783 	.size	_RSCFD_EnableCFIFO,.-_RSCFD_EnableCFIFO
                        6784 	.align	2
                        6785 .LDW951:
                        6786 
                        6787 --_UnitIndex	r6	param
                        6788 --_ChannelIndex	r7	param
                        6789 --_FifoIndex	r8	param
                        6790 --_Enable	r9	param
                        6791 
                        6792 	.data
                        6793 	.text
                        6794 
                        6795 
                        6796 --1871: /***********************************************************************************************************************
                        6797 --1872:  * Function Name: RSCFD_WriteCFIFO
                        6798 --1873:  * Description  : write frame information to specified Tx/Rx fifo
                        6799 --1874:  * Arguments    : UnitIndex -
                        6800 --1875:  *              :   specified unit
                        6801 --1876:  *              : ChannelIndex -
                        6802 --1877:  *              :   specified channel
                        6803 --1878:  *              : FifoIndex -
                        6804 --1879:  *              :   specified Tx/Rx fifo index
                        6805 --1880:  *              : pFrame -
                        6806 --1881:  *              :   pointer to where frame stored
                        6807 --1882:  *              : EnableTxHistory -
                        6808 --1883:  *              :   enable Tx history list or not
                        6809 --1884:  *              : Label -
                        6810 --1885:  *              :   transmission pointer
                        6811 --1886:  * Return Value : TRUE if write successfully
                        6812 --1887:  ***********************************************************************************************************************/
                        6813 --1888: RSCFD_BOOL RSCFD_WriteCFIFO(RSCFD_U8 UnitIndex, RSCFD_U8 ChannelIndex, RSCFD_U8 FifoIndex, const RSCFD_Frame* pFrame,
                        6814 	.align	2
                        6815 	.align	2
                        6816 	.global	_RSCFD_WriteCFIFO
                        6817 _RSCFD_WriteCFIFO:
000020da 031e70ff       6818 	addi	-144,sp,sp
000020de 8600           6819 	zxb	r6
000020e0 8700           6820 	zxb	r7
000020e2 8800           6821 	zxb	r8
000020e4 09f0           6822 	mov	r9,ep
000020e6 83979100       6823 	ld.bu	144[sp],r18
000020ea e38f9500       6824 	ld.hu	148[sp],r17
                        6825 --	    .bf
                        6826 .LDW061:
                        6827 --1889:                             RSCFD_BOOL EnableTxHistory, RSCFD_U16 Label)
                        6828 --1890: {
                        6829 --1891: 	T_CFMBCP temp_CFMB;
                        6830 --1892: 	T_CFDCFMBCP temp_CFDCFMB;
                        6831 --1893: 	RSCFD_BOOL bIDE;
                        6832 --1894: 	RSCFD_BOOL bRTR;
                        6833 --1895: 	RSCFD_BOOL bFDF;
                        6834 --1896: 	RSCFD_U8 i;
                        6835 --1897: 	RSCFD_U8 payload_size;
                        6836 --1898: 	RSCFD_U32 DBLong;
                        6837 --1900: 	if (CFSTS(UnitIndex, ChannelIndex, FifoIndex).BIT.CFFLL)
000020ee 0608           6838 	mov	r6,r1
000020f0 cf0a           6839 	shl	15,r1
000020f2 4016d0ff       6840 	movhi	hi(-3145728),zero,r2
000020f6 c209           6841 	add	r2,r1

                                                                      Page 115
                                                              C:\Users\TIEZHU~1\AppData\Local\Temp\gh_000076o1.si
000020f8 01167801       6842 	addi	376,r1,r2
000020fc 0708           6843 	mov	r7,r1
000020fe ec0f4202       6844 	mulu	12,r1,zero
00002102 c209           6845 	add	r2,r1
00002104 0810           6846 	mov	r8,r2
00002106 c212           6847 	shl	2,r2
00002108 c111           6848 	add	r1,r2
0000210a 220f0100       6849 	ld.w	0[r2],r1
0000210e c10e0200       6850 	andi	2,r1,r1
00002112 e009           6851 	cmp	zero,r1
00002114 c205*          6852 	be	.L3045
                        6853 --1901: 		return RSCFD_FALSE;
                        6854 --line1901
                        6855 ..lin.D.3A.5CCANFDGwMcuFirmRH850F1x.5Ccode.5CCANFDGwMcuFirmRH850F1x.5CCANFDGwMcuFirmRH850F1x.5Cprj.5CGHS.20MULTI.5CCAN.20Gateway.5Coutput.5Cobj.5Cpe1.5Crscanfd_drv.188::
                        6856 .LDWlin188:
00002116 0052           6857 	mov	0,r10
00002118 8007f402*      6858 	br	.L3043
                        6859 .L3045:
                        6860 --1903: 	bIDE = RSCFD_FALSE;
                        6861 --line1903
                        6862 ..lin.D.3A.5CCANFDGwMcuFirmRH850F1x.5Ccode.5CCANFDGwMcuFirmRH850F1x.5CCANFDGwMcuFirmRH850F1x.5Cprj.5CGHS.20MULTI.5CCAN.20Gateway.5Coutput.5Cobj.5Cpe1.5Crscanfd_drv.189::
                        6863 .LDWlin189:
0000211c 0012           6864 	mov	0,r2
                        6865 --1904: 	if ((pFrame->Format == RSCFD_FRAME_FORMAT_CLASSICAL_EXTENDED) || (pFrame->Format == RSCFD_FRAME_FORMAT_FD_EXTENDED))
0000211e 000d           6866 	sld.w	0[ep],r1
00002120 610a           6867 	cmp	1,r1
00002122 c205*          6868 	be	.L3049
00002124 000d           6869 	sld.w	0[ep],r1
00002126 630a           6870 	cmp	3,r1
00002128 aa05*          6871 	bne	.L3048
                        6872 .L3049:
                        6873 --1905: 	{
                        6874 --1906: 		bIDE = RSCFD_TRUE;
                        6875 --line1906
                        6876 ..lin.D.3A.5CCANFDGwMcuFirmRH850F1x.5Ccode.5CCANFDGwMcuFirmRH850F1x.5CCANFDGwMcuFirmRH850F1x.5Cprj.5CGHS.20MULTI.5CCAN.20Gateway.5Coutput.5Cobj.5Cpe1.5Crscanfd_drv.190::
                        6877 .LDWlin190:
0000212a 0112           6878 	mov	1,r2
                        6879 .L3048:
                        6880 --1907: 	}
                        6881 --1908: 	bRTR = (RSCFD_BOOL) (pFrame->Type == RSCFD_FRAME_TYPE_REMOTE);
0000212c 020d           6882 	sld.w	4[ep],r1
0000212e 610a           6883 	cmp	1,r1
00002130 e29f0000       6884 	setfe	r19
                        6885 --1909: 	bFDF = (RSCFD_BOOL) (pFrame->Format > RSCFD_FRAME_FORMAT_CLASSICAL_EXTENDED);
00002134 000d           6886 	sld.w	0[ep],r1
00002136 610a           6887 	cmp	1,r1
00002138 ef870000       6888 	setfgt	r16
                        6889 --1911: 	if (CFDGRMCFG(UnitIndex).BIT.RCMC == 0)
0000213c 0608           6890 	mov	r6,r1
0000213e cf0a           6891 	shl	15,r1
00002140 407ed0ff       6892 	movhi	hi(-3145728),zero,r15
00002144 cf09           6893 	add	r15,r1
00002146 010efc04       6894 	addi	1276,r1,r1
0000214a 210f0100       6895 	ld.w	0[r1],r1
0000214e c10e0100       6896 	andi	1,r1,r1
00002152 e009           6897 	cmp	zero,r1
00002154 ea6d*          6898 	bne	.L3051
                        6899 --1912: 	{
                        6900 --1913: 		temp_CFMB.CFID.LONG = 0UL;
                        6901 --line1913
                        6902 ..lin.D.3A.5CCANFDGwMcuFirmRH850F1x.5Ccode.5CCANFDGwMcuFirmRH850F1x.5CCANFDGwMcuFirmRH850F1x.5Cprj.5CGHS.20MULTI.5CCAN.20Gateway.5Coutput.5Cobj.5Cpe1.5Crscanfd_drv.191::

                                                                      Page 116
                                                              C:\Users\TIEZHU~1\AppData\Local\Temp\gh_000076o1.si
                        6903 .LDWlin191:
00002156 63078100       6904 	st.w	zero,128[sp]
                        6905 --1914: 		temp_CFMB.CFID.BIT.CFIDE = bIDE;
0000215a 230f8100       6906 	ld.w	128[sp],r1
0000215e e20f9ef8       6907 	bins	r2,31,1,r1
00002162 630f8100       6908 	st.w	r1,128[sp]
                        6909 --1915: 		temp_CFMB.CFID.BIT.CFRTR = bRTR;
00002166 230f8100       6910 	ld.w	128[sp],r1
0000216a f30f9ce8       6911 	bins	r19,30,1,r1
0000216e 630f8100       6912 	st.w	r1,128[sp]
                        6913 --1916: 		temp_CFMB.CFID.BIT.THLEN = EnableTxHistory;
00002172 230f8100       6914 	ld.w	128[sp],r1
00002176 f20f9ad8       6915 	bins	r18,29,1,r1
0000217a 630f8100       6916 	st.w	r1,128[sp]
                        6917 --1917: 		temp_CFMB.CFID.BIT.CFID = pFrame->ID;
0000217e 0415           6918 	sld.w	8[ep],r2
00002180 230f8100       6919 	ld.w	128[sp],r1
00002184 e20fb0c0       6920 	bins	r2,0,29,r1
00002188 630f8100       6921 	st.w	r1,128[sp]
                        6922 --1918: 		temp_CFMB.CFPTR.LONG = 0UL;
0000218c 63078500       6923 	st.w	zero,132[sp]
                        6924 --1919: 		temp_CFMB.CFPTR.BIT.CFDLC = pFrame->DLC;
00002190 6c10           6925 	sld.bu	12[ep],r2
00002192 230f8500       6926 	ld.w	132[sp],r1
00002196 e20f98f8       6927 	bins	r2,28,4,r1
0000219a 630f8500       6928 	st.w	r1,132[sp]
                        6929 --1920: 		temp_CFMB.CFPTR.BIT.CFPTR = Label;
0000219e 230f8500       6930 	ld.w	132[sp],r1
000021a2 f10f90b0       6931 	bins	r17,16,12,r1
000021a6 630f8500       6932 	st.w	r1,132[sp]
                        6933 --1921: 		for (i = 0; i < 8; i++)
000021aa 000a           6934 	mov	0,r1
                        6935 .L3055:
                        6936 --1922: 		{
                        6937 --1923: #if (CPU_ENDIAN_TYPE == CPU_ENDIAN_BIG)
                        6938 --1924: 			/* TBD */
                        6939 --1925: #else
                        6940 --1926: 			temp_CFMB.CFDF_CFDB[i] = pFrame->Data[i];
000021ac 23168000       6941 	movea	128,sp,r2
000021b0 029e0800       6942 	addi	8,r2,r19
000021b4 0110           6943 	mov	r1,r2
000021b6 d311           6944 	add	r19,r2
000021b8 1e960d00       6945 	addi	13,ep,r18
000021bc 0198           6946 	mov	r1,r19
000021be d299           6947 	add	r18,r19
000021c0 939f0100       6948 	ld.bu	0[r19],r19
000021c4 429f0000       6949 	st.b	r19,0[r2]
000021c8 410a           6950 	add	1,r1
000021ca 8100           6951 	zxb	r1
000021cc 680a           6952 	cmp	8,r1
000021ce f1ed*          6953 	bl	.L3055
                        6954 --1927: #endif
                        6955 --1928: 		}
                        6956 --1929: 		CFMBCP(UnitIndex, ChannelIndex, FifoIndex) = temp_CFMB;
                        6957 --line1929
                        6958 ..lin.D.3A.5CCANFDGwMcuFirmRH850F1x.5Ccode.5CCANFDGwMcuFirmRH850F1x.5CCANFDGwMcuFirmRH850F1x.5Cprj.5CGHS.20MULTI.5CCAN.20Gateway.5Coutput.5Cobj.5Cpe1.5Crscanfd_drv.192::
                        6959 .LDWlin192:
000021d0 0608           6960 	mov	r6,r1
000021d2 cf0a           6961 	shl	15,r1
000021d4 4016d0ff       6962 	movhi	hi(-3145728),zero,r2
000021d8 c209           6963 	add	r2,r1

                                                                      Page 117
                                                              C:\Users\TIEZHU~1\AppData\Local\Temp\gh_000076o1.si
000021da 010e800e       6964 	addi	3712,r1,r1
000021de e7163000       6965 	mulhi	48,r7,r2
000021e2 c111           6966 	add	r1,r2
000021e4 0808           6967 	mov	r8,r1
000021e6 c40a           6968 	shl	4,r1
000021e8 c209           6969 	add	r2,r1
000021ea 23168000       6970 	movea	128,sp,r2
000021ee a20709900000   6971 	ld.dw	0[r2],r18
000021f4 a20789800000   6972 	ld.dw	8[r2],r16
000021fa a1070f900000   6973 	st.dw	r18,0[r1]
00002200 a1078f800000   6974 	st.dw	r16,8[r1]
                        6975 --1930: 		CFPCTR(UnitIndex, ChannelIndex, FifoIndex).BIT.CFPC = 0xFFU;
00002206 0608           6976 	mov	r6,r1
00002208 cf0a           6977 	shl	15,r1
0000220a 4016d0ff       6978 	movhi	hi(-3145728),zero,r2
0000220e c209           6979 	add	r2,r1
00002210 0116d801       6980 	addi	472,r1,r2
00002214 0708           6981 	mov	r7,r1
00002216 ec0f4202       6982 	mulu	12,r1,zero
0000221a c209           6983 	add	r2,r1
0000221c 0810           6984 	mov	r8,r2
0000221e c212           6985 	shl	2,r2
00002220 02f0           6986 	mov	r2,ep
00002222 c1f1           6987 	add	r1,ep
00002224 000d           6988 	sld.w	0[ep],r1
00002226 810eff00       6989 	ori	255,r1,r1
0000222a 010d           6990 	sst.w	r1,0[ep]
0000222c 8007de01*      6991 	br	.L3056
                        6992 .L3051:
                        6993 --1931: 	}
                        6994 --1933: 	else
                        6995 --1934: 	{
                        6996 --1935: 		temp_CFDCFMB.CFDCFID.LONG = 0UL;
                        6997 --line1935
                        6998 ..lin.D.3A.5CCANFDGwMcuFirmRH850F1x.5Ccode.5CCANFDGwMcuFirmRH850F1x.5CCANFDGwMcuFirmRH850F1x.5Cprj.5CGHS.20MULTI.5CCAN.20Gateway.5Coutput.5Cobj.5Cpe1.5Crscanfd_drv.193::
                        6999 .LDWlin193:
00002230 63070100       7000 	st.w	zero,0[sp]
                        7001 --1936: 		temp_CFDCFMB.CFDCFID.BIT.CFIDE = bIDE;
00002234 230f0100       7002 	ld.w	0[sp],r1
00002238 e20f9ef8       7003 	bins	r2,31,1,r1
0000223c 630f0100       7004 	st.w	r1,0[sp]
                        7005 --1937: 		temp_CFDCFMB.CFDCFID.BIT.CFRTR = bRTR;
00002240 230f0100       7006 	ld.w	0[sp],r1
00002244 f30f9ce8       7007 	bins	r19,30,1,r1
00002248 630f0100       7008 	st.w	r1,0[sp]
                        7009 --1938: 		temp_CFDCFMB.CFDCFID.BIT.THLEN = EnableTxHistory;
0000224c 230f0100       7010 	ld.w	0[sp],r1
00002250 f20f9ad8       7011 	bins	r18,29,1,r1
00002254 630f0100       7012 	st.w	r1,0[sp]
                        7013 --1939: 		temp_CFDCFMB.CFDCFID.BIT.CFID = pFrame->ID;
00002258 0415           7014 	sld.w	8[ep],r2
0000225a 230f0100       7015 	ld.w	0[sp],r1
0000225e e20fb0c0       7016 	bins	r2,0,29,r1
00002262 630f0100       7017 	st.w	r1,0[sp]
                        7018 --1940: 		temp_CFDCFMB.CFDCFPTR.LONG = 0UL;
00002266 63070500       7019 	st.w	zero,4[sp]
                        7020 --1941: 		temp_CFDCFMB.CFDCFPTR.BIT.CFDLC = pFrame->DLC;
0000226a 6c10           7021 	sld.bu	12[ep],r2
0000226c 230f0500       7022 	ld.w	4[sp],r1
00002270 e20f98f8       7023 	bins	r2,28,4,r1
00002274 630f0500       7024 	st.w	r1,4[sp]

                                                                      Page 118
                                                              C:\Users\TIEZHU~1\AppData\Local\Temp\gh_000076o1.si
                        7025 --1942: 		temp_CFDCFMB.CFDCFPTR.BIT.CFPTR = Label;
00002278 230f0500       7026 	ld.w	4[sp],r1
0000227c f10f90b0       7027 	bins	r17,16,12,r1
00002280 630f0500       7028 	st.w	r1,4[sp]
                        7029 --1943: 		temp_CFDCFMB.CFDCFFDCSTS.LONG = 0UL;
00002284 63070900       7030 	st.w	zero,8[sp]
                        7031 --1944: 		temp_CFDCFMB.CFDCFFDCSTS.BIT.CFFDF = bFDF;
00002288 230f0900       7032 	ld.w	8[sp],r1
0000228c f00fd420       7033 	bins	r16,2,1,r1
00002290 630f0900       7034 	st.w	r1,8[sp]
                        7035 --1945: 		temp_CFDCFMB.CFDCFFDCSTS.BIT.CFBRS = pFrame->BRS;
00002294 be174d00       7036 	ld.bu	77[ep],r2
00002298 230f0900       7037 	ld.w	8[sp],r1
0000229c e20fd210       7038 	bins	r2,1,1,r1
000022a0 630f0900       7039 	st.w	r1,8[sp]
                        7040 --1946: 		temp_CFDCFMB.CFDCFFDCSTS.BIT.CFESI = pFrame->ESI;
000022a4 9e174f00       7041 	ld.bu	78[ep],r2
000022a8 230f0900       7042 	ld.w	8[sp],r1
000022ac e20fd000       7043 	bins	r2,0,1,r1
000022b0 630f0900       7044 	st.w	r1,8[sp]
                        7045 --1947: 		CFDCFMBCP(UnitIndex, ChannelIndex, FifoIndex).CFDCFID.LONG = temp_CFDCFMB.CFDCFID.LONG;
000022b4 0608           7046 	mov	r6,r1
000022b6 cf0a           7047 	shl	15,r1
000022b8 4016d0ff       7048 	movhi	hi(-3145728),zero,r2
000022bc c209           7049 	add	r2,r1
000022be 01160034       7050 	addi	13312,r1,r2
000022c2 0708           7051 	mov	r7,r1
000022c4 e00f7202       7052 	mulu	384,r1,zero
000022c8 c209           7053 	add	r2,r1
000022ca 0810           7054 	mov	r8,r2
000022cc c712           7055 	shl	7,r2
000022ce c111           7056 	add	r1,r2
000022d0 230f0100       7057 	ld.w	0[sp],r1
000022d4 620f0100       7058 	st.w	r1,0[r2]
                        7059 --1948: 		CFDCFMBCP(UnitIndex, ChannelIndex, FifoIndex).CFDCFPTR.LONG = temp_CFDCFMB.CFDCFPTR.LONG;
000022d8 0608           7060 	mov	r6,r1
000022da cf0a           7061 	shl	15,r1
000022dc 4016d0ff       7062 	movhi	hi(-3145728),zero,r2
000022e0 c209           7063 	add	r2,r1
000022e2 01160034       7064 	addi	13312,r1,r2
000022e6 0708           7065 	mov	r7,r1
000022e8 e00f7202       7066 	mulu	384,r1,zero
000022ec c209           7067 	add	r2,r1
000022ee 0810           7068 	mov	r8,r2
000022f0 c712           7069 	shl	7,r2
000022f2 c111           7070 	add	r1,r2
000022f4 230f0500       7071 	ld.w	4[sp],r1
000022f8 620f0500       7072 	st.w	r1,4[r2]
                        7073 --1949: 		CFDCFMBCP(UnitIndex, ChannelIndex, FifoIndex).CFDCFFDCSTS.LONG = temp_CFDCFMB.CFDCFFDCSTS.LONG;
000022fc 0608           7074 	mov	r6,r1
000022fe cf0a           7075 	shl	15,r1
00002300 4016d0ff       7076 	movhi	hi(-3145728),zero,r2
00002304 c209           7077 	add	r2,r1
00002306 01160034       7078 	addi	13312,r1,r2
0000230a 0708           7079 	mov	r7,r1
0000230c e00f7202       7080 	mulu	384,r1,zero
00002310 c209           7081 	add	r2,r1
00002312 0810           7082 	mov	r8,r2
00002314 c712           7083 	shl	7,r2
00002316 c111           7084 	add	r1,r2
00002318 230f0900       7085 	ld.w	8[sp],r1

                                                                      Page 119
                                                              C:\Users\TIEZHU~1\AppData\Local\Temp\gh_000076o1.si
0000231c 620f0900       7086 	st.w	r1,8[r2]
                        7087 --1951: 		payload_size = CFDCFCC(UnitIndex, ChannelIndex, FifoIndex).BIT.CFPLS;
00002320 0608           7088 	mov	r6,r1
00002322 cf0a           7089 	shl	15,r1
00002324 4016d0ff       7090 	movhi	hi(-3145728),zero,r2
00002328 c209           7091 	add	r2,r1
0000232a 01161801       7092 	addi	280,r1,r2
0000232e 0708           7093 	mov	r7,r1
00002330 ec0f4202       7094 	mulu	12,r1,zero
00002334 c209           7095 	add	r2,r1
00002336 0810           7096 	mov	r8,r2
00002338 c212           7097 	shl	2,r2
0000233a c111           7098 	add	r1,r2
0000233c 220f0100       7099 	ld.w	0[r2],r1
00002340 d90a           7100 	shl	25,r1
00002342 9d0a           7101 	shr	29,r1
00002344 0190           7102 	mov	r1,r18
                        7103 --1952: 		payload_size = _FifoPayloadSizeMap[payload_size];
00002346 25160000*      7104 	movea	sdaoff2(__FifoPayloadSizeMap),r5,r2
0000234a 1208           7105 	mov	r18,r1
0000234c c209           7106 	add	r2,r1
0000234e 81970100       7107 	ld.bu	0[r1],r18
                        7108 --1953: 		for (i = 0; i < (payload_size / 4); i++)
00002352 000a           7109 	mov	0,r1
00002354 c545*          7110 	br	.L3060
                        7111 .L3059:
                        7112 --1954: 		{
                        7113 --1955: #if (CPU_ENDIAN_TYPE == CPU_ENDIAN_BIG)
                        7114 --1956: 			/* TBD */
                        7115 --1957: #else
                        7116 --1958: 			DBLong = (RSCFD_U32) 0;
                        7117 --line1958
                        7118 ..lin.D.3A.5CCANFDGwMcuFirmRH850F1x.5Ccode.5CCANFDGwMcuFirmRH850F1x.5CCANFDGwMcuFirmRH850F1x.5Cprj.5CGHS.20MULTI.5CCAN.20Gateway.5Coutput.5Cobj.5Cpe1.5Crscanfd_drv.194::
                        7119 .LDWlin194:
00002356 0012           7120 	mov	0,r2
                        7121 --1959: 			DBLong = (RSCFD_U32) pFrame->Data[i * 4] | ((RSCFD_U32) (pFrame->Data[i * 4 + 1]) << 8)
00002358 0110           7122 	mov	r1,r2
0000235a c212           7123 	shl	2,r2
0000235c 1e9e0d00       7124 	addi	13,ep,r19
00002360 d311           7125 	add	r19,r2
00002362 1e9e0d00       7126 	addi	13,ep,r19
00002366 138e0100       7127 	addi	1,r19,r17
0000236a 0198           7128 	mov	r1,r19
0000236c c29a           7129 	shl	2,r19
0000236e d199           7130 	add	r17,r19
00002370 939f0100       7131 	ld.bu	0[r19],r19
00002374 c89a           7132 	shl	8,r19
00002376 828f0100       7133 	ld.bu	0[r2],r17
0000237a 1310           7134 	mov	r19,r2
0000237c 1111           7135 	or	r17,r2
0000237e 1e9e0d00       7136 	addi	13,ep,r19
00002382 138e0200       7137 	addi	2,r19,r17
00002386 0198           7138 	mov	r1,r19
00002388 c29a           7139 	shl	2,r19
0000238a d199           7140 	add	r17,r19
0000238c 939f0100       7141 	ld.bu	0[r19],r19
00002390 d09a           7142 	shl	16,r19
00002392 0299           7143 	or	r2,r19
00002394 1e160d00       7144 	addi	13,ep,r2
00002398 028e0300       7145 	addi	3,r2,r17
0000239c 0110           7146 	mov	r1,r2

                                                                      Page 120
                                                              C:\Users\TIEZHU~1\AppData\Local\Temp\gh_000076o1.si
0000239e c212           7147 	shl	2,r2
000023a0 d111           7148 	add	r17,r2
000023a2 82170100       7149 	ld.bu	0[r2],r2
000023a6 d812           7150 	shl	24,r2
000023a8 1311           7151 	or	r19,r2
                        7152 --1960: 			    | ((RSCFD_U32) (pFrame->Data[i * 4 + 2]) << 16) | ((RSCFD_U32) (pFrame->Data[i * 4 + 3]) << 24);
                        7153 --1961: 			*((RSCFD_U32*) &(CFDCFMBCP(UnitIndex, ChannelIndex, FifoIndex).CFDCFDF_CFDB[i * 4])) = DBLong;
000023aa 0698           7154 	mov	r6,r19
000023ac cf9a           7155 	shl	15,r19
000023ae 408ed0ff       7156 	movhi	hi(-3145728),zero,r17
000023b2 d199           7157 	add	r17,r19
000023b4 13860034       7158 	addi	13312,r19,r16
000023b8 0798           7159 	mov	r7,r19
000023ba e09f7202       7160 	mulu	384,r19,zero
000023be 1388           7161 	mov	r19,r17
000023c0 d089           7162 	add	r16,r17
000023c2 0898           7163 	mov	r8,r19
000023c4 c79a           7164 	shl	7,r19
000023c6 d199           7165 	add	r17,r19
000023c8 0188           7166 	mov	r1,r17
000023ca c28a           7167 	shl	2,r17
000023cc 13860c00       7168 	addi	12,r19,r16
000023d0 1198           7169 	mov	r17,r19
000023d2 d099           7170 	add	r16,r19
000023d4 73170100       7171 	st.w	r2,0[r19]
000023d8 410a           7172 	add	1,r1
000023da 8100           7173 	zxb	r1
                        7174 .L3060:
000023dc 1210           7175 	mov	r18,r2
000023de 8212           7176 	shr	2,r2
000023e0 e209           7177 	cmp	r2,r1
000023e2 a6bd*          7178 	blt	.L3059
                        7179 --1962: #endif
                        7180 --1963: 		}
                        7181 --1964: 		CFDCFPCTR(UnitIndex, ChannelIndex, FifoIndex).BIT.CFPC = 0xFFU;
                        7182 --line1964
                        7183 ..lin.D.3A.5CCANFDGwMcuFirmRH850F1x.5Ccode.5CCANFDGwMcuFirmRH850F1x.5CCANFDGwMcuFirmRH850F1x.5Cprj.5CGHS.20MULTI.5CCAN.20Gateway.5Coutput.5Cobj.5Cpe1.5Crscanfd_drv.195::
                        7184 .LDWlin195:
000023e4 0608           7185 	mov	r6,r1
000023e6 cf0a           7186 	shl	15,r1
000023e8 4016d0ff       7187 	movhi	hi(-3145728),zero,r2
000023ec c209           7188 	add	r2,r1
000023ee 0116d801       7189 	addi	472,r1,r2
000023f2 0708           7190 	mov	r7,r1
000023f4 ec0f4202       7191 	mulu	12,r1,zero
000023f8 c209           7192 	add	r2,r1
000023fa 0810           7193 	mov	r8,r2
000023fc c212           7194 	shl	2,r2
000023fe 02f0           7195 	mov	r2,ep
00002400 c1f1           7196 	add	r1,ep
00002402 000d           7197 	sld.w	0[ep],r1
00002404 810eff00       7198 	ori	255,r1,r1
00002408 010d           7199 	sst.w	r1,0[ep]
                        7200 .L3056:
                        7201 --1965: 	}
                        7202 --1967: 	return RSCFD_TRUE;
0000240a 0152           7203 	mov	1,r10
                        7204 .L3043:
                        7205 --	    .ef
                        7206 .LDW161:
0000240c 031e9000       7207 	addi	144,sp,sp

                                                                      Page 121
                                                              C:\Users\TIEZHU~1\AppData\Local\Temp\gh_000076o1.si
00002410 7f00           7208 	jmp	[lp]
                        7209 	.type	_RSCFD_WriteCFIFO,@function
                        7210 	.size	_RSCFD_WriteCFIFO,.-_RSCFD_WriteCFIFO
                        7211 	.align	2
                        7212 .LDW261:
                        7213 --_temp_CFMB	128[sp]	local
                        7214 --_temp_CFDCFMB	0[sp]	local
                        7215 --_bIDE	r2	local
                        7216 --_bRTR	r19	local
                        7217 --_bFDF	r16	local
                        7218 --_i	r1	local
                        7219 --_payload_size	r18	local
                        7220 --_DBLong	r2	local
                        7221 
                        7222 --_UnitIndex	r6	param
                        7223 --_ChannelIndex	r7	param
                        7224 --_FifoIndex	r8	param
                        7225 --_pFrame	ep	param
                        7226 --_EnableTxHistory	r18	param
                        7227 --_Label	r17	param
                        7228 
                        7229 	.data
                        7230 	.text
                        7231 
                        7232 --1968: } /* End of RSCFD_WriteCFIFO() */
                        7233 
                        7234 --1970: /***********************************************************************************************************************
                        7235 --1971:  * Function Name: RSCFD_ReadCFIFO
                        7236 --1972:  * Description  : read frame information from specified Tx/Rx fifo
                        7237 --1973:  * Arguments    : UnitIndex -
                        7238 --1974:  *              :   specified unit
                        7239 --1975:  *              : ChannelIndex -
                        7240 --1976:  *              :   specified channel
                        7241 --1977:  *              : FifoIndex -
                        7242 --1978:  *              :   specified Tx/Rx fifo index
                        7243 --1979:  *              : pFrame -
                        7244 --1980:  *              :   pointer to where frame will be stored
                        7245 --1981:  *              : pTimeStamp -
                        7246 --1982:  *              :   pointer to where time stamp will be stored
                        7247 --1983:  *              : pLabel -
                        7248 --1984:  *              :   pointer to where label will be stored
                        7249 --1985:  * Return Value : TRUE if read successfully
                        7250 --1986:  ***********************************************************************************************************************/
                        7251 --1987: RSCFD_BOOL RSCFD_ReadCFIFO(RSCFD_U8 UnitIndex, RSCFD_U8 ChannelIndex, RSCFD_U8 FifoIndex, RSCFD_Frame* pFrame,
                        7252 	.align	2
                        7253 	.align	2
                        7254 	.global	_RSCFD_ReadCFIFO
                        7255 _RSCFD_ReadCFIFO:
00002412 031e70ff       7256 	addi	-144,sp,sp
00002416 8600           7257 	zxb	r6
00002418 8700           7258 	zxb	r7
0000241a 8800           7259 	zxb	r8
0000241c 09f0           7260 	mov	r9,ep
0000241e 23179100       7261 	ld.w	144[sp],r2
00002422 239f9500       7262 	ld.w	148[sp],r19
                        7263 --	    .bf
                        7264 .LDW361:
                        7265 --1988:                            RSCFD_U16* pTimeStamp, RSCFD_U16* pLabel)
                        7266 --1989: {
                        7267 --1991: 	T_CFMBCP temp_CFMBCP;
                        7268 --1992: 	T_CFDCFMBCP temp_CFDCFMBCP;

                                                                      Page 122
                                                              C:\Users\TIEZHU~1\AppData\Local\Temp\gh_000076o1.si
                        7269 --1993: 	RSCFD_U8 i;
                        7270 --1994: 	RSCFD_U8 payload_size;
                        7271 --1996: 	if (CFSTS(UnitIndex, ChannelIndex, FifoIndex).BIT.CFEMP)
00002426 0608           7272 	mov	r6,r1
00002428 cf0a           7273 	shl	15,r1
0000242a 4096d0ff       7274 	movhi	hi(-3145728),zero,r18
0000242e d209           7275 	add	r18,r1
00002430 01967801       7276 	addi	376,r1,r18
00002434 0708           7277 	mov	r7,r1
00002436 ec0f4202       7278 	mulu	12,r1,zero
0000243a d209           7279 	add	r18,r1
0000243c 0890           7280 	mov	r8,r18
0000243e c292           7281 	shl	2,r18
00002440 c191           7282 	add	r1,r18
00002442 320f0100       7283 	ld.w	0[r18],r1
00002446 c10e0100       7284 	andi	1,r1,r1
0000244a e009           7285 	cmp	zero,r1
0000244c c205*          7286 	be	.L3158
                        7287 --1997: 		return RSCFD_FALSE;
                        7288 --line1997
                        7289 ..lin.D.3A.5CCANFDGwMcuFirmRH850F1x.5Ccode.5CCANFDGwMcuFirmRH850F1x.5CCANFDGwMcuFirmRH850F1x.5Cprj.5CGHS.20MULTI.5CCAN.20Gateway.5Coutput.5Cobj.5Cpe1.5Crscanfd_drv.196::
                        7290 .LDWlin196:
0000244e 0052           7291 	mov	0,r10
00002450 80075002*      7292 	br	.L3156
                        7293 .L3158:
                        7294 --1999: 	if (CFDGRMCFG(UnitIndex).BIT.RCMC == 0)
                        7295 --line1999
                        7296 ..lin.D.3A.5CCANFDGwMcuFirmRH850F1x.5Ccode.5CCANFDGwMcuFirmRH850F1x.5CCANFDGwMcuFirmRH850F1x.5Cprj.5CGHS.20MULTI.5CCAN.20Gateway.5Coutput.5Cobj.5Cpe1.5Crscanfd_drv.197::
                        7297 .LDWlin197:
00002454 0608           7298 	mov	r6,r1
00002456 cf0a           7299 	shl	15,r1
00002458 4096d0ff       7300 	movhi	hi(-3145728),zero,r18
0000245c d209           7301 	add	r18,r1
0000245e 010efc04       7302 	addi	1276,r1,r1
00002462 210f0100       7303 	ld.w	0[r1],r1
00002466 c10e0100       7304 	andi	1,r1,r1
0000246a e009           7305 	cmp	zero,r1
0000246c fa6d*          7306 	bne	.L3161
                        7307 --2000: 	{
                        7308 --2001: 		temp_CFMBCP = CFMBCP(UnitIndex, ChannelIndex, FifoIndex);
                        7309 --line2001
                        7310 ..lin.D.3A.5CCANFDGwMcuFirmRH850F1x.5Ccode.5CCANFDGwMcuFirmRH850F1x.5CCANFDGwMcuFirmRH850F1x.5Cprj.5CGHS.20MULTI.5CCAN.20Gateway.5Coutput.5Cobj.5Cpe1.5Crscanfd_drv.198::
                        7311 .LDWlin198:
0000246e 0608           7312 	mov	r6,r1
00002470 cf0a           7313 	shl	15,r1
00002472 4096d0ff       7314 	movhi	hi(-3145728),zero,r18
00002476 d209           7315 	add	r18,r1
00002478 010e800e       7316 	addi	3712,r1,r1
0000247c e7963000       7317 	mulhi	48,r7,r18
00002480 c191           7318 	add	r1,r18
00002482 0808           7319 	mov	r8,r1
00002484 c40a           7320 	shl	4,r1
00002486 d209           7321 	add	r18,r1
00002488 23968000       7322 	movea	128,sp,r18
0000248c a10709800000   7323 	ld.dw	0[r1],r16
00002492 a10789700000   7324 	ld.dw	8[r1],r14
00002498 b2070f800000   7325 	st.dw	r16,0[r18]
0000249e b2078f700000   7326 	st.dw	r14,8[r18]
                        7327 --2002: 		CFPCTR(UnitIndex, ChannelIndex, FifoIndex).BIT.CFPC = 0xFFU;
000024a4 0608           7328 	mov	r6,r1
000024a6 cf0a           7329 	shl	15,r1

                                                                      Page 123
                                                              C:\Users\TIEZHU~1\AppData\Local\Temp\gh_000076o1.si
000024a8 4096d0ff       7330 	movhi	hi(-3145728),zero,r18
000024ac d209           7331 	add	r18,r1
000024ae 018ed801       7332 	addi	472,r1,r17
000024b2 0708           7333 	mov	r7,r1
000024b4 ec0f4202       7334 	mulu	12,r1,zero
000024b8 0190           7335 	mov	r1,r18
000024ba d191           7336 	add	r17,r18
000024bc 0808           7337 	mov	r8,r1
000024be c20a           7338 	shl	2,r1
000024c0 d209           7339 	add	r18,r1
000024c2 21970100       7340 	ld.w	0[r1],r18
000024c6 9296ff00       7341 	ori	255,r18,r18
000024ca 61970100       7342 	st.w	r18,0[r1]
                        7343 --2004: 		if (temp_CFMBCP.CFID.BIT.CFIDE == 0)
000024ce 230f8100       7344 	ld.w	128[sp],r1
000024d2 40960080       7345 	movhi	hi(-2147483648),zero,r18
000024d6 5209           7346 	and	r18,r1
000024d8 e009           7347 	cmp	zero,r1
000024da ba05*          7348 	bne	.L3163
                        7349 --2005: 		{
                        7350 --2006: 			pFrame->Format = RSCFD_FRAME_FORMAT_CLASSICAL_BASE;
                        7351 --line2006
                        7352 ..lin.D.3A.5CCANFDGwMcuFirmRH850F1x.5Ccode.5CCANFDGwMcuFirmRH850F1x.5CCANFDGwMcuFirmRH850F1x.5Cprj.5CGHS.20MULTI.5CCAN.20Gateway.5Coutput.5Cobj.5Cpe1.5Crscanfd_drv.199::
                        7353 .LDWlin199:
000024dc 0105           7354 	sst.w	zero,0[ep]
000024de b505*          7355 	br	.L3165
                        7356 .L3163:
                        7357 --2007: 		}
                        7358 --2008: 		else
                        7359 --2009: 		{
                        7360 --2010: 			pFrame->Format = RSCFD_FRAME_FORMAT_CLASSICAL_EXTENDED;
                        7361 --line2010
                        7362 ..lin.D.3A.5CCANFDGwMcuFirmRH850F1x.5Ccode.5CCANFDGwMcuFirmRH850F1x.5CCANFDGwMcuFirmRH850F1x.5Cprj.5CGHS.20MULTI.5CCAN.20Gateway.5Coutput.5Cobj.5Cpe1.5Crscanfd_drv.200::
                        7363 .LDWlin200:
000024e0 010a           7364 	mov	1,r1
000024e2 010d           7365 	sst.w	r1,0[ep]
                        7366 .L3165:
                        7367 --2011: 		}
                        7368 --2012: 		pFrame->Type = (RSCFD_FrameType) temp_CFMBCP.CFID.BIT.CFRTR;
000024e4 230f8100       7369 	ld.w	128[sp],r1
000024e8 c10a           7370 	shl	1,r1
000024ea 9f0a           7371 	shr	31,r1
000024ec 030d           7372 	sst.w	r1,4[ep]
                        7373 --2013: 		pFrame->ID = temp_CFMBCP.CFID.BIT.CFID;
000024ee 230f8100       7374 	ld.w	128[sp],r1
000024f2 c30a           7375 	shl	3,r1
000024f4 830a           7376 	shr	3,r1
000024f6 050d           7377 	sst.w	r1,8[ep]
                        7378 --2014: 		pFrame->DLC = temp_CFMBCP.CFPTR.BIT.CFDLC;
000024f8 230f8500       7379 	ld.w	132[sp],r1
000024fc 9c0a           7380 	shr	28,r1
000024fe 8c0b           7381 	sst.b	r1,12[ep]
                        7382 --2015: 		if (pLabel != 0)
00002500 e099           7383 	cmp	zero,r19
00002502 f205*          7384 	be	.L3166
                        7385 --2016: 		{
                        7386 --2017: 			*pLabel = temp_CFMBCP.CFPTR.BIT.CFPTR;
                        7387 --line2017
                        7388 ..lin.D.3A.5CCANFDGwMcuFirmRH850F1x.5Ccode.5CCANFDGwMcuFirmRH850F1x.5CCANFDGwMcuFirmRH850F1x.5Cprj.5CGHS.20MULTI.5CCAN.20Gateway.5Coutput.5Cobj.5Cpe1.5Crscanfd_drv.201::
                        7389 .LDWlin201:
00002504 230f8500       7390 	ld.w	132[sp],r1

                                                                      Page 124
                                                              C:\Users\TIEZHU~1\AppData\Local\Temp\gh_000076o1.si
00002508 c40a           7391 	shl	4,r1
0000250a 940a           7392 	shr	20,r1
0000250c 730f0000       7393 	st.h	r1,0[r19]
                        7394 .L3166:
                        7395 --2018: 		}
                        7396 --2019: 		if (pTimeStamp != 0)
00002510 e011           7397 	cmp	zero,r2
00002512 f205*          7398 	be	.L3168
                        7399 --2020: 		{
                        7400 --2021: 			*pTimeStamp = temp_CFMBCP.CFPTR.BIT.CFTS;
                        7401 --line2021
                        7402 ..lin.D.3A.5CCANFDGwMcuFirmRH850F1x.5Ccode.5CCANFDGwMcuFirmRH850F1x.5CCANFDGwMcuFirmRH850F1x.5Cprj.5CGHS.20MULTI.5CCAN.20Gateway.5Coutput.5Cobj.5Cpe1.5Crscanfd_drv.202::
                        7403 .LDWlin202:
00002514 230f8500       7404 	ld.w	132[sp],r1
00002518 c10effff       7405 	andi	65535,r1,r1
0000251c 620f0000       7406 	st.h	r1,0[r2]
                        7407 .L3168:
                        7408 --2022: 		}
                        7409 --2023: 		for (i = 0U; i < 8U; i++)
00002520 000a           7410 	mov	0,r1
                        7411 .L3172:
                        7412 --2024: 		{
                        7413 --2025: #if (CPU_ENDIAN_TYPE == CPU_ENDIAN_BIG)
                        7414 --2026: 			/* TBD */
                        7415 --2027: #else
                        7416 --2028: 			pFrame->Data[i] = temp_CFMBCP.CFDF_CFDB[i];
00002522 1e9e0d00       7417 	addi	13,ep,r19
00002526 0110           7418 	mov	r1,r2
00002528 d311           7419 	add	r19,r2
0000252a 239e8000       7420 	movea	128,sp,r19
0000252e 13960800       7421 	addi	8,r19,r18
00002532 0198           7422 	mov	r1,r19
00002534 d299           7423 	add	r18,r19
00002536 939f0100       7424 	ld.bu	0[r19],r19
0000253a 429f0000       7425 	st.b	r19,0[r2]
0000253e 410a           7426 	add	1,r1
00002540 8100           7427 	zxb	r1
00002542 680a           7428 	cmp	8,r1
00002544 f1ed*          7429 	bl	.L3172
00002546 80075801*      7430 	br	.L3173
                        7431 .L3161:
                        7432 --2029: #endif
                        7433 --2030: 		}
                        7434 --2031: 	}
                        7435 --2032: 	else
                        7436 --2033: 	{
                        7437 --2034: 		temp_CFDCFMBCP = CFDCFMBCP(UnitIndex, ChannelIndex, FifoIndex);
                        7438 --line2034
                        7439 ..lin.D.3A.5CCANFDGwMcuFirmRH850F1x.5Ccode.5CCANFDGwMcuFirmRH850F1x.5CCANFDGwMcuFirmRH850F1x.5Cprj.5CGHS.20MULTI.5CCAN.20Gateway.5Coutput.5Cobj.5Cpe1.5Crscanfd_drv.203::
                        7440 .LDWlin203:
0000254a 0608           7441 	mov	r6,r1
0000254c cf0a           7442 	shl	15,r1
0000254e 4096d0ff       7443 	movhi	hi(-3145728),zero,r18
00002552 d209           7444 	add	r18,r1
00002554 01960034       7445 	addi	13312,r1,r18
00002558 e70e8001       7446 	mulhi	384,r7,r1
0000255c d209           7447 	add	r18,r1
0000255e 0890           7448 	mov	r8,r18
00002560 c792           7449 	shl	7,r18
00002562 c191           7450 	add	r1,r18
00002564 1208           7451 	mov	r18,r1

                                                                      Page 125
                                                              C:\Users\TIEZHU~1\AppData\Local\Temp\gh_000076o1.si
00002566 23960000       7452 	movea	0,sp,r18
0000256a 018e8000       7453 	addi	128,r1,r17
                        7454 .L3367:
0000256e a10709700000   7455 	ld.dw	0[r1],r14
00002574 b2070f700000   7456 	st.dw	r14,0[r18]
0000257a 480a           7457 	add	8,r1
0000257c 4892           7458 	add	8,r18
0000257e e189           7459 	cmp	r1,r17
00002580 faf5*          7460 	bne	.L3367
                        7461 --2035: 		CFDCFPCTR(UnitIndex, ChannelIndex, FifoIndex).BIT.CFPC = 0xFFU;
                        7462 --line2035
                        7463 ..lin.D.3A.5CCANFDGwMcuFirmRH850F1x.5Ccode.5CCANFDGwMcuFirmRH850F1x.5CCANFDGwMcuFirmRH850F1x.5Cprj.5CGHS.20MULTI.5CCAN.20Gateway.5Coutput.5Cobj.5Cpe1.5Crscanfd_drv.204::
                        7464 .LDWlin204:
00002582 0608           7465 	mov	r6,r1
00002584 cf0a           7466 	shl	15,r1
00002586 4096d0ff       7467 	movhi	hi(-3145728),zero,r18
0000258a d209           7468 	add	r18,r1
0000258c 018ed801       7469 	addi	472,r1,r17
00002590 0708           7470 	mov	r7,r1
00002592 ec0f4202       7471 	mulu	12,r1,zero
00002596 0190           7472 	mov	r1,r18
00002598 d191           7473 	add	r17,r18
0000259a 0808           7474 	mov	r8,r1
0000259c c20a           7475 	shl	2,r1
0000259e d209           7476 	add	r18,r1
000025a0 21970100       7477 	ld.w	0[r1],r18
000025a4 9296ff00       7478 	ori	255,r18,r18
000025a8 61970100       7479 	st.w	r18,0[r1]
                        7480 --2036: 		pFrame->BRS = temp_CFDCFMBCP.CFDCFFDCSTS.BIT.CFBRS;
000025ac 230f0900       7481 	ld.w	8[sp],r1
000025b0 de0a           7482 	shl	30,r1
000025b2 9f0a           7483 	shr	31,r1
000025b4 cd0b           7484 	sst.b	r1,77[ep]
                        7485 --2037: 		pFrame->ESI = temp_CFDCFMBCP.CFDCFFDCSTS.BIT.CFESI;
000025b6 230f0900       7486 	ld.w	8[sp],r1
000025ba c10e0100       7487 	andi	1,r1,r1
000025be ce0b           7488 	sst.b	r1,78[ep]
                        7489 --2038: 		if (temp_CFDCFMBCP.CFDCFID.BIT.CFIDE == 0)
000025c0 230f0100       7490 	ld.w	0[sp],r1
000025c4 40960080       7491 	movhi	hi(-2147483648),zero,r18
000025c8 5209           7492 	and	r18,r1
000025ca e009           7493 	cmp	zero,r1
000025cc ca0d*          7494 	bne	.L3174
                        7495 --2039: 		{
                        7496 --2040: 			if (temp_CFDCFMBCP.CFDCFFDCSTS.BIT.CFFDF)
                        7497 --line2040
                        7498 ..lin.D.3A.5CCANFDGwMcuFirmRH850F1x.5Ccode.5CCANFDGwMcuFirmRH850F1x.5CCANFDGwMcuFirmRH850F1x.5Cprj.5CGHS.20MULTI.5CCAN.20Gateway.5Coutput.5Cobj.5Cpe1.5Crscanfd_drv.205::
                        7499 .LDWlin205:
000025ce 230f0900       7500 	ld.w	8[sp],r1
000025d2 c10e0400       7501 	andi	4,r1,r1
000025d6 e009           7502 	cmp	zero,r1
000025d8 c205*          7503 	be	.L3176
                        7504 --2041: 			{
                        7505 --2042: 				pFrame->Format = RSCFD_FRAME_FORMAT_FD_BASE;
                        7506 --line2042
                        7507 ..lin.D.3A.5CCANFDGwMcuFirmRH850F1x.5Ccode.5CCANFDGwMcuFirmRH850F1x.5CCANFDGwMcuFirmRH850F1x.5Cprj.5CGHS.20MULTI.5CCAN.20Gateway.5Coutput.5Cobj.5Cpe1.5Crscanfd_drv.206::
                        7508 .LDWlin206:
000025da 020a           7509 	mov	2,r1
000025dc 010d           7510 	sst.w	r1,0[ep]
000025de e50d*          7511 	br	.L3179
                        7512 .L3176:

                                                                      Page 126
                                                              C:\Users\TIEZHU~1\AppData\Local\Temp\gh_000076o1.si
                        7513 --2043: 			}
                        7514 --2044: 			else
                        7515 --2045: 			{
                        7516 --2046: 				pFrame->Format = RSCFD_FRAME_FORMAT_CLASSICAL_BASE;
                        7517 --line2046
                        7518 ..lin.D.3A.5CCANFDGwMcuFirmRH850F1x.5Ccode.5CCANFDGwMcuFirmRH850F1x.5CCANFDGwMcuFirmRH850F1x.5Cprj.5CGHS.20MULTI.5CCAN.20Gateway.5Coutput.5Cobj.5Cpe1.5Crscanfd_drv.207::
                        7519 .LDWlin207:
000025e0 0105           7520 	sst.w	zero,0[ep]
000025e2 c50d*          7521 	br	.L3179
                        7522 .L3174:
                        7523 --2047: 			}
                        7524 --2048: 		}
                        7525 --2049: 		else
                        7526 --2050: 		{
                        7527 --2051: 			if (temp_CFDCFMBCP.CFDCFFDCSTS.BIT.CFFDF)
                        7528 --line2051
                        7529 ..lin.D.3A.5CCANFDGwMcuFirmRH850F1x.5Ccode.5CCANFDGwMcuFirmRH850F1x.5CCANFDGwMcuFirmRH850F1x.5Cprj.5CGHS.20MULTI.5CCAN.20Gateway.5Coutput.5Cobj.5Cpe1.5Crscanfd_drv.208::
                        7530 .LDWlin208:
000025e4 230f0900       7531 	ld.w	8[sp],r1
000025e8 c10e0400       7532 	andi	4,r1,r1
000025ec e009           7533 	cmp	zero,r1
000025ee c205*          7534 	be	.L3180
                        7535 --2052: 			{
                        7536 --2053: 				pFrame->Format = RSCFD_FRAME_FORMAT_FD_EXTENDED;
                        7537 --line2053
                        7538 ..lin.D.3A.5CCANFDGwMcuFirmRH850F1x.5Ccode.5CCANFDGwMcuFirmRH850F1x.5CCANFDGwMcuFirmRH850F1x.5Cprj.5CGHS.20MULTI.5CCAN.20Gateway.5Coutput.5Cobj.5Cpe1.5Crscanfd_drv.209::
                        7539 .LDWlin209:
000025f0 030a           7540 	mov	3,r1
000025f2 010d           7541 	sst.w	r1,0[ep]
000025f4 b505*          7542 	br	.L3179
                        7543 .L3180:
                        7544 --2054: 			}
                        7545 --2055: 			else
                        7546 --2056: 			{
                        7547 --2057: 				pFrame->Format = RSCFD_FRAME_FORMAT_CLASSICAL_EXTENDED;
                        7548 --line2057
                        7549 ..lin.D.3A.5CCANFDGwMcuFirmRH850F1x.5Ccode.5CCANFDGwMcuFirmRH850F1x.5CCANFDGwMcuFirmRH850F1x.5Cprj.5CGHS.20MULTI.5CCAN.20Gateway.5Coutput.5Cobj.5Cpe1.5Crscanfd_drv.210::
                        7550 .LDWlin210:
000025f6 010a           7551 	mov	1,r1
000025f8 010d           7552 	sst.w	r1,0[ep]
                        7553 .L3179:
                        7554 --2058: 			}
                        7555 --2059: 		}
                        7556 --2060: 		pFrame->Type = (RSCFD_FrameType) temp_CFDCFMBCP.CFDCFID.BIT.CFRTR;
000025fa 230f0100       7557 	ld.w	0[sp],r1
000025fe c10a           7558 	shl	1,r1
00002600 9f0a           7559 	shr	31,r1
00002602 030d           7560 	sst.w	r1,4[ep]
                        7561 --2061: 		pFrame->ID = temp_CFDCFMBCP.CFDCFID.BIT.CFID;
00002604 230f0100       7562 	ld.w	0[sp],r1
00002608 c30a           7563 	shl	3,r1
0000260a 830a           7564 	shr	3,r1
0000260c 050d           7565 	sst.w	r1,8[ep]
                        7566 --2062: 		pFrame->DLC = temp_CFDCFMBCP.CFDCFPTR.BIT.CFDLC;
0000260e 230f0500       7567 	ld.w	4[sp],r1
00002612 9c0a           7568 	shr	28,r1
00002614 8c0b           7569 	sst.b	r1,12[ep]
                        7570 --2063: 		if (pLabel != 0)
00002616 e099           7571 	cmp	zero,r19
00002618 f205*          7572 	be	.L3183
                        7573 --2064: 		{

                                                                      Page 127
                                                              C:\Users\TIEZHU~1\AppData\Local\Temp\gh_000076o1.si
                        7574 --2065: 			*pLabel = temp_CFDCFMBCP.CFDCFPTR.BIT.CFPTR;
                        7575 --line2065
                        7576 ..lin.D.3A.5CCANFDGwMcuFirmRH850F1x.5Ccode.5CCANFDGwMcuFirmRH850F1x.5CCANFDGwMcuFirmRH850F1x.5Cprj.5CGHS.20MULTI.5CCAN.20Gateway.5Coutput.5Cobj.5Cpe1.5Crscanfd_drv.211::
                        7577 .LDWlin211:
0000261a 230f0500       7578 	ld.w	4[sp],r1
0000261e c40a           7579 	shl	4,r1
00002620 940a           7580 	shr	20,r1
00002622 730f0000       7581 	st.h	r1,0[r19]
                        7582 .L3183:
                        7583 --2066: 		}
                        7584 --2067: 		if (pTimeStamp != 0)
00002626 e011           7585 	cmp	zero,r2
00002628 f205*          7586 	be	.L3185
                        7587 --2068: 		{
                        7588 --2069: 			*pTimeStamp = temp_CFDCFMBCP.CFDCFPTR.BIT.CFTS;
                        7589 --line2069
                        7590 ..lin.D.3A.5CCANFDGwMcuFirmRH850F1x.5Ccode.5CCANFDGwMcuFirmRH850F1x.5CCANFDGwMcuFirmRH850F1x.5Cprj.5CGHS.20MULTI.5CCAN.20Gateway.5Coutput.5Cobj.5Cpe1.5Crscanfd_drv.212::
                        7591 .LDWlin212:
0000262a 230f0500       7592 	ld.w	4[sp],r1
0000262e c10effff       7593 	andi	65535,r1,r1
00002632 620f0000       7594 	st.h	r1,0[r2]
                        7595 .L3185:
                        7596 --2070: 		}
                        7597 --2071: 		payload_size = _FifoPayloadSizeMap[CFDCFCC(UnitIndex, ChannelIndex, FifoIndex).BIT.CFPLS];
00002636 0608           7598 	mov	r6,r1
00002638 cf0a           7599 	shl	15,r1
0000263a 4016d0ff       7600 	movhi	hi(-3145728),zero,r2
0000263e c209           7601 	add	r2,r1
00002640 01161801       7602 	addi	280,r1,r2
00002644 0708           7603 	mov	r7,r1
00002646 ec0f4202       7604 	mulu	12,r1,zero
0000264a c209           7605 	add	r2,r1
0000264c 0810           7606 	mov	r8,r2
0000264e c212           7607 	shl	2,r2
00002650 c111           7608 	add	r1,r2
00002652 220f0100       7609 	ld.w	0[r2],r1
00002656 d90a           7610 	shl	25,r1
00002658 9d0a           7611 	shr	29,r1
0000265a 25160000*      7612 	movea	sdaoff2(__FifoPayloadSizeMap),r5,r2
0000265e c209           7613 	add	r2,r1
00002660 81970100       7614 	ld.bu	0[r1],r18
                        7615 --2072: 		for (i = 0U; i < 64; i++)
00002664 000a           7616 	mov	0,r1
                        7617 .L3189:
                        7618 --2073: 		{
                        7619 --2074: 			if (i < payload_size)
00002666 f209           7620 	cmp	r18,r1
00002668 8915*          7621 	bnl	.L3190
                        7622 --2075: 			{
                        7623 --2076: #if (CPU_ENDIAN_TYPE == CPU_ENDIAN_BIG)
                        7624 --2077: 				/* TBD */
                        7625 --2078: #else
                        7626 --2079: 				pFrame->Data[i] = temp_CFDCFMBCP.CFDCFDF_CFDB[i];
                        7627 --line2079
                        7628 ..lin.D.3A.5CCANFDGwMcuFirmRH850F1x.5Ccode.5CCANFDGwMcuFirmRH850F1x.5CCANFDGwMcuFirmRH850F1x.5Cprj.5CGHS.20MULTI.5CCAN.20Gateway.5Coutput.5Cobj.5Cpe1.5Crscanfd_drv.213::
                        7629 .LDWlin213:
0000266a 1e9e0d00       7630 	addi	13,ep,r19
0000266e 0110           7631 	mov	r1,r2
00002670 d311           7632 	add	r19,r2
00002672 239e0000       7633 	movea	0,sp,r19
00002676 138e0c00       7634 	addi	12,r19,r17

                                                                      Page 128
                                                              C:\Users\TIEZHU~1\AppData\Local\Temp\gh_000076o1.si
0000267a 0198           7635 	mov	r1,r19
0000267c d199           7636 	add	r17,r19
0000267e 939f0100       7637 	ld.bu	0[r19],r19
00002682 429f0000       7638 	st.b	r19,0[r2]
00002686 f505*          7639 	br	.L3192
                        7640 .L3190:
                        7641 --2080: #endif
                        7642 --2081: 			}
                        7643 --2082: 			else
                        7644 --2083: 			{
                        7645 --2084: 				pFrame->Data[i] = 0;
                        7646 --line2084
                        7647 ..lin.D.3A.5CCANFDGwMcuFirmRH850F1x.5Ccode.5CCANFDGwMcuFirmRH850F1x.5CCANFDGwMcuFirmRH850F1x.5Cprj.5CGHS.20MULTI.5CCAN.20Gateway.5Coutput.5Cobj.5Cpe1.5Crscanfd_drv.214::
                        7648 .LDWlin214:
00002688 1e9e0d00       7649 	addi	13,ep,r19
0000268c 0110           7650 	mov	r1,r2
0000268e d311           7651 	add	r19,r2
00002690 42070000       7652 	st.b	zero,0[r2]
                        7653 .L3192:
00002694 410a           7654 	add	1,r1
00002696 8100           7655 	zxb	r1
00002698 0106c0ff       7656 	addi	-64,r1,zero
0000269c d9e5*          7657 	bnl	.L3189
                        7658 .L3173:
                        7659 --2085: 			}
                        7660 --2086: 		}
                        7661 --2087: 	}
                        7662 --2089: 	return RSCFD_TRUE;
                        7663 --line2089
                        7664 ..lin.D.3A.5CCANFDGwMcuFirmRH850F1x.5Ccode.5CCANFDGwMcuFirmRH850F1x.5CCANFDGwMcuFirmRH850F1x.5Cprj.5CGHS.20MULTI.5CCAN.20Gateway.5Coutput.5Cobj.5Cpe1.5Crscanfd_drv.215::
                        7665 .LDWlin215:
0000269e 0152           7666 	mov	1,r10
                        7667 .L3156:
                        7668 --	    .ef
                        7669 .LDW461:
000026a0 031e9000       7670 	addi	144,sp,sp
000026a4 7f00           7671 	jmp	[lp]
                        7672 	.type	_RSCFD_ReadCFIFO,@function
                        7673 	.size	_RSCFD_ReadCFIFO,.-_RSCFD_ReadCFIFO
                        7674 	.align	2
                        7675 .LDW561:
                        7676 --_temp_CFMBCP	128[sp]	local
                        7677 --_temp_CFDCFMBCP	0[sp]	local
                        7678 --_i	r1	local
                        7679 --_payload_size	r18	local
                        7680 
                        7681 --_UnitIndex	r6	param
                        7682 --_ChannelIndex	r7	param
                        7683 --_FifoIndex	r8	param
                        7684 --_pFrame	ep	param
                        7685 --_pTimeStamp	r2	param
                        7686 --_pLabel	r19	param
                        7687 
                        7688 	.data
                        7689 	.text
                        7690 
                        7691 --2090: } /* End of RSCFD_ReadCFIFO() */
                        7692 
                        7693 --2092: /***********************************************************************************************************************
                        7694 --2093:  * Function Name: RSCFD_GetCFIFOCount
                        7695 --2094:  * Description  : get number of messages stored in Tx/Rx fifo

                                                                      Page 129
                                                              C:\Users\TIEZHU~1\AppData\Local\Temp\gh_000076o1.si
                        7696 --2095:  * Arguments    : UnitIndex -
                        7697 --2096:  *              :   specified unit
                        7698 --2097:  *              : ChannelIndex -
                        7699 --2098:  *              :   specified channel
                        7700 --2099:  *              : FifoIndex -
                        7701 --2100:  *              :   specified Tx/Rx fifo index
                        7702 --2101:  * Return Value : number of messages stored in Tx/Rx fifo
                        7703 --2102:  ***********************************************************************************************************************/
                        7704 --2103: RSCFD_U8 RSCFD_GetCFIFOCount(RSCFD_U8 UnitIndex, RSCFD_U8 ChannelIndex, RSCFD_U8 FifoIndex)
                        7705 	.align	2
                        7706 	.align	2
                        7707 	.global	_RSCFD_GetCFIFOCount
                        7708 _RSCFD_GetCFIFOCount:
000026a6 8600           7709 	zxb	r6
000026a8 8700           7710 	zxb	r7
000026aa 8800           7711 	zxb	r8
                        7712 --	    .bf
                        7713 .LDW661:
                        7714 --2104: {
                        7715 --2105: 	return CFSTS(UnitIndex, ChannelIndex, FifoIndex).BIT.CFMC;
000026ac 0608           7716 	mov	r6,r1
000026ae cf0a           7717 	shl	15,r1
000026b0 4016d0ff       7718 	movhi	hi(-3145728),zero,r2
000026b4 c209           7719 	add	r2,r1
000026b6 01167801       7720 	addi	376,r1,r2
000026ba 0708           7721 	mov	r7,r1
000026bc ec0f4202       7722 	mulu	12,r1,zero
000026c0 c209           7723 	add	r2,r1
000026c2 0810           7724 	mov	r8,r2
000026c4 c212           7725 	shl	2,r2
000026c6 02f0           7726 	mov	r2,ep
000026c8 c1f1           7727 	add	r1,ep
000026ca 000d           7728 	sld.w	0[ep],r1
000026cc d00a           7729 	shl	16,r1
000026ce 980a           7730 	shr	24,r1
000026d0 0150           7731 	mov	r1,r10
                        7732 --	    .ef
                        7733 .LDW761:
000026d2 7f00           7734 	jmp	[lp]
                        7735 	.type	_RSCFD_GetCFIFOCount,@function
                        7736 	.size	_RSCFD_GetCFIFOCount,.-_RSCFD_GetCFIFOCount
                        7737 	.align	2
                        7738 .LDW861:
                        7739 
                        7740 --_UnitIndex	r6	param
                        7741 --_ChannelIndex	r7	param
                        7742 --_FifoIndex	r8	param
                        7743 
                        7744 	.data
                        7745 	.text
                        7746 
                        7747 --2106: } /* End of RSCFD_GetCFIFOCount() */
                        7748 
                        7749 --2108: /***********************************************************************************************************************
                        7750 --2109:  * Function Name: RSCFD_SetTxQ
                        7751 --2110:  * Description  : set Tx queue
                        7752 --2111:  * Arguments    : UnitIndex -
                        7753 --2112:  *              :   specified unit
                        7754 --2113:  *              : ChannelIndex -
                        7755 --2114:  *              :   specified channel
                        7756 --2115:  *              : Depth -

                                                                      Page 130
                                                              C:\Users\TIEZHU~1\AppData\Local\Temp\gh_000076o1.si
                        7757 --2116:  *              :   specified Tx queue depth
                        7758 --2117:  * Return Value : none
                        7759 --2118:  ***********************************************************************************************************************/
                        7760 --2119: void RSCFD_SetTxQ(RSCFD_U8 UnitIndex, RSCFD_U8 ChannelIndex, RSCFD_TxQDepth Depth)
                        7761 	.align	2
                        7762 	.align	2
                        7763 	.global	_RSCFD_SetTxQ
                        7764 _RSCFD_SetTxQ:
000026d4 8600           7765 	zxb	r6
000026d6 8700           7766 	zxb	r7
                        7767 --	    .bf
                        7768 .LDW961:
                        7769 --2120: {
                        7770 --2121: 	TXQCC(UnitIndex, ChannelIndex).LONG = 0UL;
000026d8 0608           7771 	mov	r6,r1
000026da cf0a           7772 	shl	15,r1
000026dc 4016d0ff       7773 	movhi	hi(-3145728),zero,r2
000026e0 c209           7774 	add	r2,r1
000026e2 0116a003       7775 	addi	928,r1,r2
000026e6 0708           7776 	mov	r7,r1
000026e8 c20a           7777 	shl	2,r1
000026ea 01f0           7778 	mov	r1,ep
000026ec c2f1           7779 	add	r2,ep
000026ee 0105           7780 	sst.w	zero,0[ep]
                        7781 --2122: 	TXQCC(UnitIndex, ChannelIndex).BIT.TXQDC = Depth;
000026f0 0608           7782 	mov	r6,r1
000026f2 cf0a           7783 	shl	15,r1
000026f4 4016d0ff       7784 	movhi	hi(-3145728),zero,r2
000026f8 c209           7785 	add	r2,r1
000026fa 0116a003       7786 	addi	928,r1,r2
000026fe 0708           7787 	mov	r7,r1
00002700 c20a           7788 	shl	2,r1
00002702 01f0           7789 	mov	r1,ep
00002704 c2f1           7790 	add	r2,ep
00002706 000d           7791 	sld.w	0[ep],r1
00002708 e80fd0b8       7792 	bins	r8,8,4,r1
0000270c 010d           7793 	sst.w	r1,0[ep]
                        7794 --2123: } /* End of RSCFD_SetTxQ() */
                        7795 --	    .ef
                        7796 .LDW071:
0000270e 7f00           7797 	jmp	[lp]
                        7798 	.type	_RSCFD_SetTxQ,@function
                        7799 	.size	_RSCFD_SetTxQ,.-_RSCFD_SetTxQ
                        7800 	.align	2
                        7801 .LDW171:
                        7802 
                        7803 --_UnitIndex	r6	param
                        7804 --_ChannelIndex	r7	param
                        7805 --_Depth	r8	param
                        7806 
                        7807 	.data
                        7808 	.text
                        7809 
                        7810 
                        7811 --2125: /***********************************************************************************************************************
                        7812 --2126:  * Function Name: RSCFD_SetTxQInterrupt
                        7813 --2127:  * Description  : set Tx queue interrupt
                        7814 --2128:  * Arguments    : UnitIndex -
                        7815 --2129:  *              :   specified unit
                        7816 --2130:  *              : ChannelIndex -
                        7817 --2131:  *              :   specified channel

                                                                      Page 131
                                                              C:\Users\TIEZHU~1\AppData\Local\Temp\gh_000076o1.si
                        7818 --2132:  *              : Enable -
                        7819 --2133:  *              :   enable or disable interrupt
                        7820 --2134:  *              : Mode -
                        7821 --2135:  *              :   Tx queue interrupt mode
                        7822 --2136:  * Return Value : none
                        7823 --2137:  ***********************************************************************************************************************/
                        7824 --2138: void RSCFD_SetTxQInterrupt(RSCFD_U8 UnitIndex, RSCFD_U8 ChannelIndex, RSCFD_BOOL Enable, RSCFD_TxQIntMode Mode)
                        7825 	.align	2
                        7826 	.align	2
                        7827 	.global	_RSCFD_SetTxQInterrupt
                        7828 _RSCFD_SetTxQInterrupt:
00002710 8600           7829 	zxb	r6
00002712 8700           7830 	zxb	r7
00002714 8800           7831 	zxb	r8
                        7832 --	    .bf
                        7833 .LDW271:
                        7834 --2139: {
                        7835 --2140: 	TXQCC(UnitIndex, ChannelIndex).BIT.TXQIM = Mode;
00002716 0608           7836 	mov	r6,r1
00002718 cf0a           7837 	shl	15,r1
0000271a 4016d0ff       7838 	movhi	hi(-3145728),zero,r2
0000271e c209           7839 	add	r2,r1
00002720 0116a003       7840 	addi	928,r1,r2
00002724 0708           7841 	mov	r7,r1
00002726 c20a           7842 	shl	2,r1
00002728 01f0           7843 	mov	r1,ep
0000272a c2f1           7844 	add	r2,ep
0000272c 000d           7845 	sld.w	0[ep],r1
0000272e e90fdad8       7846 	bins	r9,13,1,r1
00002732 010d           7847 	sst.w	r1,0[ep]
                        7848 --2141: 	TXQCC(UnitIndex, ChannelIndex).BIT.TXQIE = Enable;
00002734 0608           7849 	mov	r6,r1
00002736 cf0a           7850 	shl	15,r1
00002738 4016d0ff       7851 	movhi	hi(-3145728),zero,r2
0000273c c209           7852 	add	r2,r1
0000273e 0116a003       7853 	addi	928,r1,r2
00002742 0708           7854 	mov	r7,r1
00002744 c20a           7855 	shl	2,r1
00002746 01f0           7856 	mov	r1,ep
00002748 c2f1           7857 	add	r2,ep
0000274a 000d           7858 	sld.w	0[ep],r1
0000274c e80fd8c8       7859 	bins	r8,12,1,r1
00002750 010d           7860 	sst.w	r1,0[ep]
                        7861 --2142: } /* End of RSCFD_SetTxQInterrupt() */
                        7862 --	    .ef
                        7863 .LDW371:
00002752 7f00           7864 	jmp	[lp]
                        7865 	.type	_RSCFD_SetTxQInterrupt,@function
                        7866 	.size	_RSCFD_SetTxQInterrupt,.-_RSCFD_SetTxQInterrupt
                        7867 	.align	2
                        7868 .LDW471:
                        7869 
                        7870 --_UnitIndex	r6	param
                        7871 --_ChannelIndex	r7	param
                        7872 --_Enable	r8	param
                        7873 --_Mode	r9	param
                        7874 
                        7875 	.data
                        7876 	.text
                        7877 
                        7878 

                                                                      Page 132
                                                              C:\Users\TIEZHU~1\AppData\Local\Temp\gh_000076o1.si
                        7879 --2144: /***********************************************************************************************************************
                        7880 --2145:  * Function Name: RSCFD_DisableTxQInterrupt
                        7881 --2146:  * Description  : disable Tx queue interrupt
                        7882 --2147:  * Arguments    : UnitIndex -
                        7883 --2148:  *              :   specified unit
                        7884 --2149:  *              : ChannelIndex -
                        7885 --2150:  *              :   specified channel
                        7886 --2151:  * Return Value : none
                        7887 --2152:  ***********************************************************************************************************************/
                        7888 --2153: void RSCFD_DisableTxQInterrupt(RSCFD_U8 UnitIndex, RSCFD_U8 ChannelIndex)
                        7889 	.align	2
                        7890 	.align	2
                        7891 	.global	_RSCFD_DisableTxQInterrupt
                        7892 _RSCFD_DisableTxQInterrupt:
00002754 8600           7893 	zxb	r6
00002756 8700           7894 	zxb	r7
                        7895 --	    .bf
                        7896 .LDW571:
                        7897 --2154: {
                        7898 --2155: 	TXQCC(UnitIndex, ChannelIndex).BIT.TXQIE = RSCFD_FALSE;
00002758 0608           7899 	mov	r6,r1
0000275a cf0a           7900 	shl	15,r1
0000275c 4016d0ff       7901 	movhi	hi(-3145728),zero,r2
00002760 c209           7902 	add	r2,r1
00002762 0116a003       7903 	addi	928,r1,r2
00002766 0708           7904 	mov	r7,r1
00002768 c20a           7905 	shl	2,r1
0000276a 01f0           7906 	mov	r1,ep
0000276c c2f1           7907 	add	r2,ep
0000276e 000d           7908 	sld.w	0[ep],r1
00002770 2016ffef       7909 	movea	-4097,zero,r2
00002774 4209           7910 	and	r2,r1
00002776 010d           7911 	sst.w	r1,0[ep]
                        7912 --2156: } /* End of RSCFD_DisableTxQInterrupt() */
                        7913 --	    .ef
                        7914 .LDW671:
00002778 7f00           7915 	jmp	[lp]
                        7916 	.type	_RSCFD_DisableTxQInterrupt,@function
                        7917 	.size	_RSCFD_DisableTxQInterrupt,.-_RSCFD_DisableTxQInterrupt
                        7918 	.align	2
                        7919 .LDW771:
                        7920 
                        7921 --_UnitIndex	r6	param
                        7922 --_ChannelIndex	r7	param
                        7923 
                        7924 	.data
                        7925 	.text
                        7926 
                        7927 
                        7928 --2158: /***********************************************************************************************************************
                        7929 --2159:  * Function Name: RSCFD_EnableTxQInterrupt
                        7930 --2160:  * Description  : enable Tx queue interrupt
                        7931 --2161:  * Arguments    : UnitIndex -
                        7932 --2162:  *              :   specified unit
                        7933 --2163:  *              : ChannelIndex -
                        7934 --2164:  *              :   specified channel
                        7935 --2165:  * Return Value : none
                        7936 --2166:  ***********************************************************************************************************************/
                        7937 --2167: void RSCFD_EnableTxQInterrupt(RSCFD_U8 UnitIndex, RSCFD_U8 ChannelIndex)
                        7938 	.align	2
                        7939 	.align	2

                                                                      Page 133
                                                              C:\Users\TIEZHU~1\AppData\Local\Temp\gh_000076o1.si
                        7940 	.global	_RSCFD_EnableTxQInterrupt
                        7941 _RSCFD_EnableTxQInterrupt:
0000277a 8600           7942 	zxb	r6
0000277c 8700           7943 	zxb	r7
                        7944 --	    .bf
                        7945 .LDW871:
                        7946 --2168: {
                        7947 --2169: 	TXQCC(UnitIndex, ChannelIndex).BIT.TXQIE = RSCFD_TRUE;
0000277e 0608           7948 	mov	r6,r1
00002780 cf0a           7949 	shl	15,r1
00002782 4016d0ff       7950 	movhi	hi(-3145728),zero,r2
00002786 c209           7951 	add	r2,r1
00002788 0116a003       7952 	addi	928,r1,r2
0000278c 0708           7953 	mov	r7,r1
0000278e c20a           7954 	shl	2,r1
00002790 01f0           7955 	mov	r1,ep
00002792 c2f1           7956 	add	r2,ep
00002794 000d           7957 	sld.w	0[ep],r1
00002796 810e0010       7958 	ori	4096,r1,r1
0000279a 010d           7959 	sst.w	r1,0[ep]
                        7960 --2170: } /* End of RSCFD_EnableTxQInterrupt() */
                        7961 --	    .ef
                        7962 .LDW971:
0000279c 7f00           7963 	jmp	[lp]
                        7964 	.type	_RSCFD_EnableTxQInterrupt,@function
                        7965 	.size	_RSCFD_EnableTxQInterrupt,.-_RSCFD_EnableTxQInterrupt
                        7966 	.align	2
                        7967 .LDW081:
                        7968 
                        7969 --_UnitIndex	r6	param
                        7970 --_ChannelIndex	r7	param
                        7971 
                        7972 	.data
                        7973 	.text
                        7974 
                        7975 
                        7976 --2172: /***********************************************************************************************************************
                        7977 --2173:  * Function Name: RSCFD_EnableTxQ
                        7978 --2174:  * Description  : enable Tx queue
                        7979 --2175:  * Arguments    : UnitIndex -
                        7980 --2176:  *              :   specified unit
                        7981 --2177:  *              : ChannelIndex -
                        7982 --2178:  *              :   specified channel
                        7983 --2179:  *              : Enable -
                        7984 --2180:  *              :   enable or disable
                        7985 --2181:  * Return Value : none
                        7986 --2182:  ***********************************************************************************************************************/
                        7987 --2183: void RSCFD_EnableTxQ(RSCFD_U8 UnitIndex, RSCFD_U8 ChannelIndex, RSCFD_BOOL Enable)
                        7988 	.align	2
                        7989 	.align	2
                        7990 	.global	_RSCFD_EnableTxQ
                        7991 _RSCFD_EnableTxQ:
0000279e 8600           7992 	zxb	r6
000027a0 8700           7993 	zxb	r7
000027a2 8800           7994 	zxb	r8
                        7995 --	    .bf
                        7996 .LDW181:
                        7997 --2184: {
                        7998 --2185: 	TXQCC(UnitIndex, ChannelIndex).BIT.TXQE = Enable;
000027a4 0608           7999 	mov	r6,r1
000027a6 cf0a           8000 	shl	15,r1

                                                                      Page 134
                                                              C:\Users\TIEZHU~1\AppData\Local\Temp\gh_000076o1.si
000027a8 4016d0ff       8001 	movhi	hi(-3145728),zero,r2
000027ac c209           8002 	add	r2,r1
000027ae 0116a003       8003 	addi	928,r1,r2
000027b2 0708           8004 	mov	r7,r1
000027b4 c20a           8005 	shl	2,r1
000027b6 01f0           8006 	mov	r1,ep
000027b8 c2f1           8007 	add	r2,ep
000027ba 000d           8008 	sld.w	0[ep],r1
000027bc e80fd000       8009 	bins	r8,0,1,r1
000027c0 010d           8010 	sst.w	r1,0[ep]
                        8011 --2186: } /* End of RSCFD_EnableTxQ() */
                        8012 --	    .ef
                        8013 .LDW281:
000027c2 7f00           8014 	jmp	[lp]
                        8015 	.type	_RSCFD_EnableTxQ,@function
                        8016 	.size	_RSCFD_EnableTxQ,.-_RSCFD_EnableTxQ
                        8017 	.align	2
                        8018 .LDW381:
                        8019 
                        8020 --_UnitIndex	r6	param
                        8021 --_ChannelIndex	r7	param
                        8022 --_Enable	r8	param
                        8023 
                        8024 	.data
                        8025 	.text
                        8026 
                        8027 
                        8028 --2188: /***********************************************************************************************************************
                        8029 --2189:  * Function Name: RSCFD_WriteTxQ
                        8030 --2190:  * Description  : write frame to Tx queue
                        8031 --2191:  * Arguments    : UnitIndex -
                        8032 --2192:  *              :   specified unit
                        8033 --2193:  *              : ChannelIndex -
                        8034 --2194:  *              :   specified channel
                        8035 --2195:  *              : pFrame -
                        8036 --2196:  *              :   pointer to where frame stored
                        8037 --2197:  *              : EnableTxHistory -
                        8038 --2198:  *              :   enable or disable Tx history list
                        8039 --2199:  *              : Label -
                        8040 --2200:  *              :   label information which should be transmitted
                        8041 --2201:  * Return Value : TRUE if write successfully
                        8042 --2202:  ***********************************************************************************************************************/
                        8043 --2203: RSCFD_BOOL RSCFD_WriteTxQ(RSCFD_U8 UnitIndex, RSCFD_U8 ChannelIndex, const RSCFD_Frame* pFrame,
                        8044 	.align	2
                        8045 	.align	2
                        8046 	.global	_RSCFD_WriteTxQ
                        8047 _RSCFD_WriteTxQ:
000027c4 031eecff       8048 	addi	-20,sp,sp
000027c8 63ff1100       8049 	st.w	lp,16[sp]
000027cc 63e70d00       8050 	st.w	r28,12[sp]
000027d0 63ef0900       8051 	st.w	r29,8[sp]
000027d4 c6eeff00       8052 	andi	255,r6,r29
000027d8 c7e6ff00       8053 	andi	255,r7,r28
000027dc c916ff00       8054 	andi	255,r9,r2
000027e0 839f1500       8055 	ld.bu	20[sp],r19
                        8056 --	    .bf
                        8057 .LDW481:
                        8058 --2204:                           RSCFD_BOOL EnableTxHistory, RSCFD_U8 Label)
                        8059 --2205: {
                        8060 --2206: 	if (TXQSTS(UnitIndex, ChannelIndex).BIT.TXQFLL)
000027e4 1d08           8061 	mov	r29,r1

                                                                      Page 135
                                                              C:\Users\TIEZHU~1\AppData\Local\Temp\gh_000076o1.si
000027e6 cf0a           8062 	shl	15,r1
000027e8 4096d0ff       8063 	movhi	hi(-3145728),zero,r18
000027ec d209           8064 	add	r18,r1
000027ee 0196c003       8065 	addi	960,r1,r18
000027f2 1c08           8066 	mov	r28,r1
000027f4 c20a           8067 	shl	2,r1
000027f6 01f0           8068 	mov	r1,ep
000027f8 d2f1           8069 	add	r18,ep
000027fa 000d           8070 	sld.w	0[ep],r1
000027fc c10e0200       8071 	andi	2,r1,r1
00002800 e009           8072 	cmp	zero,r1
00002802 b205*          8073 	be	.L3589
                        8074 --2207: 		return RSCFD_FALSE;
                        8075 --line2207
                        8076 ..lin.D.3A.5CCANFDGwMcuFirmRH850F1x.5Ccode.5CCANFDGwMcuFirmRH850F1x.5CCANFDGwMcuFirmRH850F1x.5Cprj.5CGHS.20MULTI.5CCAN.20Gateway.5Coutput.5Cobj.5Cpe1.5Crscanfd_drv.216::
                        8077 .LDWlin216:
00002804 0052           8078 	mov	0,r10
00002806 b51d*          8079 	br	.L3587
                        8080 .L3589:
                        8081 --2209: 	RSCFD_WriteTMB(UnitIndex, ChannelIndex, 15U, pFrame, EnableTxHistory, Label);
                        8082 --line2209
                        8083 ..lin.D.3A.5CCANFDGwMcuFirmRH850F1x.5Ccode.5CCANFDGwMcuFirmRH850F1x.5CCANFDGwMcuFirmRH850F1x.5Cprj.5CGHS.20MULTI.5CCAN.20Gateway.5Coutput.5Cobj.5Cpe1.5Crscanfd_drv.217::
                        8084 .LDWlin217:
00002808 1d30           8085 	mov	r29,r6
0000280a 1c38           8086 	mov	r28,r7
0000280c 0848           8087 	mov	r8,r9
0000280e 63170100       8088 	st.w	r2,0[sp]
00002812 639f0500       8089 	st.w	r19,4[sp]
00002816 0f42           8090 	mov	15,r8
                        8091 	jarl	_RSCFD_WriteTMB,lp
                        8091 <EXPANSION BEGIN>
                        8091 jarl22 _RSCFD_WriteTMB , lp 
00002818 bfffd8e5*      8091 <EXPANSION END>
                        8092 --2210: 	TXQPCTR(UnitIndex, ChannelIndex).BIT.TXQPC = 0xFFU;
                        8093 --line2210
                        8094 ..lin.D.3A.5CCANFDGwMcuFirmRH850F1x.5Ccode.5CCANFDGwMcuFirmRH850F1x.5CCANFDGwMcuFirmRH850F1x.5Cprj.5CGHS.20MULTI.5CCAN.20Gateway.5Coutput.5Cobj.5Cpe1.5Crscanfd_drv.218::
                        8095 .LDWlin218:
0000281c 1d08           8096 	mov	r29,r1
0000281e cf0a           8097 	shl	15,r1
00002820 4016d0ff       8098 	movhi	hi(-3145728),zero,r2
00002824 c209           8099 	add	r2,r1
00002826 0116e003       8100 	addi	992,r1,r2
0000282a 1c08           8101 	mov	r28,r1
0000282c c20a           8102 	shl	2,r1
0000282e 01f0           8103 	mov	r1,ep
00002830 c2f1           8104 	add	r2,ep
00002832 000d           8105 	sld.w	0[ep],r1
00002834 810eff00       8106 	ori	255,r1,r1
00002838 010d           8107 	sst.w	r1,0[ep]
                        8108 --2212: 	return RSCFD_TRUE;
0000283a 0152           8109 	mov	1,r10
                        8110 .L3587:
                        8111 --	    .ef
                        8112 .LDW581:
0000283c 23ff1100       8113 	ld.w	16[sp],lp
00002840 23ef0900       8114 	ld.w	8[sp],r29
00002844 23e70d00       8115 	ld.w	12[sp],r28
00002848 031e1400       8116 	addi	20,sp,sp
0000284c 7f00           8117 	jmp	[lp]
                        8118 	.type	_RSCFD_WriteTxQ,@function
                        8119 	.size	_RSCFD_WriteTxQ,.-_RSCFD_WriteTxQ

                                                                      Page 136
                                                              C:\Users\TIEZHU~1\AppData\Local\Temp\gh_000076o1.si
                        8120 	.align	2
                        8121 .LDW681:
                        8122 
                        8123 --_UnitIndex	r29	param
                        8124 --_ChannelIndex	r28	param
                        8125 --_pFrame	r8	param
                        8126 --_EnableTxHistory	r2	param
                        8127 --_Label	r19	param
                        8128 
                        8129 	.data
                        8130 	.text
                        8131 
                        8132 --2213: } /* End of RSCFD_WriteTxQ() */
                        8133 
                        8134 --2215: /***********************************************************************************************************************
                        8135 --2216:  * Function Name: RSCFD_GetTxQCount
                        8136 --2217:  * Description  : get number of messages in the Tx queue
                        8137 --2218:  * Arguments    : UnitIndex -
                        8138 --2219:  *              :   specified unit
                        8139 --2220:  *              : ChannelIndex -
                        8140 --2221:  *              :   specified channel
                        8141 --2222:  * Return Value : number of messages in the Tx queue
                        8142 --2223:  ***********************************************************************************************************************/
                        8143 --2224: RSCFD_U8 RSCFD_GetTxQCount(RSCFD_U8 UnitIndex, RSCFD_U8 ChannelIndex)
                        8144 	.align	2
                        8145 	.align	2
                        8146 	.global	_RSCFD_GetTxQCount
                        8147 _RSCFD_GetTxQCount:
0000284e 8600           8148 	zxb	r6
00002850 8700           8149 	zxb	r7
                        8150 --	    .bf
                        8151 .LDW781:
                        8152 --2225: {
                        8153 --2226: 	return (RSCFD_U8) TXQSTS(UnitIndex, ChannelIndex).BIT.TXQMC;
00002852 0608           8154 	mov	r6,r1
00002854 cf0a           8155 	shl	15,r1
00002856 4016d0ff       8156 	movhi	hi(-3145728),zero,r2
0000285a c209           8157 	add	r2,r1
0000285c 0116c003       8158 	addi	960,r1,r2
00002860 0708           8159 	mov	r7,r1
00002862 c20a           8160 	shl	2,r1
00002864 01f0           8161 	mov	r1,ep
00002866 c2f1           8162 	add	r2,ep
00002868 000d           8163 	sld.w	0[ep],r1
0000286a d30a           8164 	shl	19,r1
0000286c 9b0a           8165 	shr	27,r1
0000286e 0150           8166 	mov	r1,r10
                        8167 --	    .ef
                        8168 .LDW881:
00002870 7f00           8169 	jmp	[lp]
                        8170 	.type	_RSCFD_GetTxQCount,@function
                        8171 	.size	_RSCFD_GetTxQCount,.-_RSCFD_GetTxQCount
                        8172 	.align	2
                        8173 .LDW981:
                        8174 
                        8175 --_UnitIndex	r6	param
                        8176 --_ChannelIndex	r7	param
                        8177 
                        8178 	.data
                        8179 	.text
                        8180 

                                                                      Page 137
                                                              C:\Users\TIEZHU~1\AppData\Local\Temp\gh_000076o1.si
                        8181 --2227: } /* End of RSCFD_GetTxQCount() */
                        8182 
                        8183 --2229: /***********************************************************************************************************************
                        8184 --2230:  * Function Name: RSCFD_SetTHL
                        8185 --2231:  * Description  : set Tx history list
                        8186 --2232:  * Arguments    : UnitIndex -
                        8187 --2233:  *              :   specified unit
                        8188 --2234:  *              : ChannelIndex -
                        8189 --2235:  *              :   specified channel
                        8190 --2236:  *              : Mode -
                        8191 --2237:  *              :   specified Tx history list mode
                        8192 --2238:  * Return Value : none
                        8193 --2239:  ***********************************************************************************************************************/
                        8194 --2240: void RSCFD_SetTHL(RSCFD_U8 UnitIndex, RSCFD_U8 ChannelIndex, RSCFD_THLMode Mode)
                        8195 	.align	2
                        8196 	.align	2
                        8197 	.global	_RSCFD_SetTHL
                        8198 _RSCFD_SetTHL:
00002872 8600           8199 	zxb	r6
00002874 8700           8200 	zxb	r7
                        8201 --	    .bf
                        8202 .LDW091:
                        8203 --2241: {
                        8204 --2242: 	THLCC(UnitIndex, ChannelIndex).LONG = 0UL;
00002876 0608           8205 	mov	r6,r1
00002878 cf0a           8206 	shl	15,r1
0000287a 4016d0ff       8207 	movhi	hi(-3145728),zero,r2
0000287e c209           8208 	add	r2,r1
00002880 01160004       8209 	addi	1024,r1,r2
00002884 0708           8210 	mov	r7,r1
00002886 c20a           8211 	shl	2,r1
00002888 01f0           8212 	mov	r1,ep
0000288a c2f1           8213 	add	r2,ep
0000288c 0105           8214 	sst.w	zero,0[ep]
                        8215 --2243: 	THLCC(UnitIndex, ChannelIndex).BIT.THLDTE = Mode;
0000288e 0608           8216 	mov	r6,r1
00002890 cf0a           8217 	shl	15,r1
00002892 4016d0ff       8218 	movhi	hi(-3145728),zero,r2
00002896 c209           8219 	add	r2,r1
00002898 01160004       8220 	addi	1024,r1,r2
0000289c 0708           8221 	mov	r7,r1
0000289e c20a           8222 	shl	2,r1
000028a0 01f0           8223 	mov	r1,ep
000028a2 c2f1           8224 	add	r2,ep
000028a4 000d           8225 	sld.w	0[ep],r1
000028a6 e80fd4a8       8226 	bins	r8,10,1,r1
000028aa 010d           8227 	sst.w	r1,0[ep]
                        8228 --2244: } /* End of RSCFD_SetTHL() */
                        8229 --	    .ef
                        8230 .LDW191:
000028ac 7f00           8231 	jmp	[lp]
                        8232 	.type	_RSCFD_SetTHL,@function
                        8233 	.size	_RSCFD_SetTHL,.-_RSCFD_SetTHL
                        8234 	.align	2
                        8235 .LDW291:
                        8236 
                        8237 --_UnitIndex	r6	param
                        8238 --_ChannelIndex	r7	param
                        8239 --_Mode	r8	param
                        8240 
                        8241 	.data

                                                                      Page 138
                                                              C:\Users\TIEZHU~1\AppData\Local\Temp\gh_000076o1.si
                        8242 	.text
                        8243 
                        8244 
                        8245 --2246: /***********************************************************************************************************************
                        8246 --2247:  * Function Name: RSCFD_SetTHLInterrupt
                        8247 --2248:  * Description  : set Tx history list interrupt
                        8248 --2249:  * Arguments    : UnitIndex -
                        8249 --2250:  *              :   specified unit
                        8250 --2251:  *              : ChannelIndex -
                        8251 --2252:  *              :   specified channel
                        8252 --2253:  *              : Enable -
                        8253 --2254:  *              :   enable or disable Tx history list interrupt
                        8254 --2255:  *              : Mode -
                        8255 --2256:  *              :   specified Tx history list interupt mode
                        8256 --2257:  * Return Value : none
                        8257 --2258:  ***********************************************************************************************************************/
                        8258 --2259: void RSCFD_SetTHLInterrupt(RSCFD_U8 UnitIndex, RSCFD_U8 ChannelIndex, RSCFD_BOOL Enable, RSCFD_THLIntMode Mode)
                        8259 	.align	2
                        8260 	.align	2
                        8261 	.global	_RSCFD_SetTHLInterrupt
                        8262 _RSCFD_SetTHLInterrupt:
000028ae 8600           8263 	zxb	r6
000028b0 8700           8264 	zxb	r7
000028b2 8800           8265 	zxb	r8
                        8266 --	    .bf
                        8267 .LDW391:
                        8268 --2260: {
                        8269 --2261: 	THLCC(UnitIndex, ChannelIndex).BIT.THLIM = Mode;
000028b4 0608           8270 	mov	r6,r1
000028b6 cf0a           8271 	shl	15,r1
000028b8 4016d0ff       8272 	movhi	hi(-3145728),zero,r2
000028bc c209           8273 	add	r2,r1
000028be 01160004       8274 	addi	1024,r1,r2
000028c2 0708           8275 	mov	r7,r1
000028c4 c20a           8276 	shl	2,r1
000028c6 01f0           8277 	mov	r1,ep
000028c8 c2f1           8278 	add	r2,ep
000028ca 000d           8279 	sld.w	0[ep],r1
000028cc e90fd298       8280 	bins	r9,9,1,r1
000028d0 010d           8281 	sst.w	r1,0[ep]
                        8282 --2262: 	THLCC(UnitIndex, ChannelIndex).BIT.THLIE = Enable;
000028d2 0608           8283 	mov	r6,r1
000028d4 cf0a           8284 	shl	15,r1
000028d6 4016d0ff       8285 	movhi	hi(-3145728),zero,r2
000028da c209           8286 	add	r2,r1
000028dc 01160004       8287 	addi	1024,r1,r2
000028e0 0708           8288 	mov	r7,r1
000028e2 c20a           8289 	shl	2,r1
000028e4 01f0           8290 	mov	r1,ep
000028e6 c2f1           8291 	add	r2,ep
000028e8 000d           8292 	sld.w	0[ep],r1
000028ea e80fd088       8293 	bins	r8,8,1,r1
000028ee 010d           8294 	sst.w	r1,0[ep]
                        8295 --2263: } /* End of RSCFD_SetTHLInterrupt() */
                        8296 --	    .ef
                        8297 .LDW491:
000028f0 7f00           8298 	jmp	[lp]
                        8299 	.type	_RSCFD_SetTHLInterrupt,@function
                        8300 	.size	_RSCFD_SetTHLInterrupt,.-_RSCFD_SetTHLInterrupt
                        8301 	.align	2
                        8302 .LDW591:

                                                                      Page 139
                                                              C:\Users\TIEZHU~1\AppData\Local\Temp\gh_000076o1.si
                        8303 
                        8304 --_UnitIndex	r6	param
                        8305 --_ChannelIndex	r7	param
                        8306 --_Enable	r8	param
                        8307 --_Mode	r9	param
                        8308 
                        8309 	.data
                        8310 	.text
                        8311 
                        8312 
                        8313 --2265: /***********************************************************************************************************************
                        8314 --2266:  * Function Name: RSCFD_DisableTHLInterrupt
                        8315 --2267:  * Description  : disable Tx history list interrupt
                        8316 --2268:  * Arguments    : UnitIndex -
                        8317 --2269:  *              :   specified unit
                        8318 --2270:  *              : ChannelIndex -
                        8319 --2271:  *              :   specified channel
                        8320 --2272:  * Return Value : none
                        8321 --2273:  ***********************************************************************************************************************/
                        8322 --2274: void RSCFD_DisableTHLInterrupt(RSCFD_U8 UnitIndex, RSCFD_U8 ChannelIndex)
                        8323 	.align	2
                        8324 	.align	2
                        8325 	.global	_RSCFD_DisableTHLInterrupt
                        8326 _RSCFD_DisableTHLInterrupt:
000028f2 8600           8327 	zxb	r6
000028f4 8700           8328 	zxb	r7
                        8329 --	    .bf
                        8330 .LDW691:
                        8331 --2275: {
                        8332 --2276: 	THLCC(UnitIndex, ChannelIndex).BIT.THLIE = RSCFD_FALSE;
000028f6 0608           8333 	mov	r6,r1
000028f8 cf0a           8334 	shl	15,r1
000028fa 4016d0ff       8335 	movhi	hi(-3145728),zero,r2
000028fe c209           8336 	add	r2,r1
00002900 01160004       8337 	addi	1024,r1,r2
00002904 0708           8338 	mov	r7,r1
00002906 c20a           8339 	shl	2,r1
00002908 01f0           8340 	mov	r1,ep
0000290a c2f1           8341 	add	r2,ep
0000290c 000d           8342 	sld.w	0[ep],r1
0000290e 2016fffe       8343 	movea	-257,zero,r2
00002912 4209           8344 	and	r2,r1
00002914 010d           8345 	sst.w	r1,0[ep]
                        8346 --2277: } /* End of RSCFD_DisableTHLInterrupt() */
                        8347 --	    .ef
                        8348 .LDW791:
00002916 7f00           8349 	jmp	[lp]
                        8350 	.type	_RSCFD_DisableTHLInterrupt,@function
                        8351 	.size	_RSCFD_DisableTHLInterrupt,.-_RSCFD_DisableTHLInterrupt
                        8352 	.align	2
                        8353 .LDW891:
                        8354 
                        8355 --_UnitIndex	r6	param
                        8356 --_ChannelIndex	r7	param
                        8357 
                        8358 	.data
                        8359 	.text
                        8360 
                        8361 
                        8362 --2279: /***********************************************************************************************************************
                        8363 --2280:  * Function Name: RSCFD_EnableTHLInterrupt

                                                                      Page 140
                                                              C:\Users\TIEZHU~1\AppData\Local\Temp\gh_000076o1.si
                        8364 --2281:  * Description  : enable Tx history list interrupt
                        8365 --2282:  * Arguments    : UnitIndex -
                        8366 --2283:  *              :   specified unit
                        8367 --2284:  *              : ChannelIndex -
                        8368 --2285:  *              :   specified channel
                        8369 --2286:  * Return Value : none
                        8370 --2287:  ***********************************************************************************************************************/
                        8371 --2288: void RSCFD_EnableTHLInterrupt(RSCFD_U8 UnitIndex, RSCFD_U8 ChannelIndex)
                        8372 	.align	2
                        8373 	.align	2
                        8374 	.global	_RSCFD_EnableTHLInterrupt
                        8375 _RSCFD_EnableTHLInterrupt:
00002918 8600           8376 	zxb	r6
0000291a 8700           8377 	zxb	r7
                        8378 --	    .bf
                        8379 .LDW991:
                        8380 --2289: {
                        8381 --2290: 	THLCC(UnitIndex, ChannelIndex).BIT.THLIE = RSCFD_TRUE;
0000291c 0608           8382 	mov	r6,r1
0000291e cf0a           8383 	shl	15,r1
00002920 4016d0ff       8384 	movhi	hi(-3145728),zero,r2
00002924 c209           8385 	add	r2,r1
00002926 01160004       8386 	addi	1024,r1,r2
0000292a 0708           8387 	mov	r7,r1
0000292c c20a           8388 	shl	2,r1
0000292e 01f0           8389 	mov	r1,ep
00002930 c2f1           8390 	add	r2,ep
00002932 000d           8391 	sld.w	0[ep],r1
00002934 810e0001       8392 	ori	256,r1,r1
00002938 010d           8393 	sst.w	r1,0[ep]
                        8394 --2291: } /* End of RSCFD_EnableTHLInterrupt() */
                        8395 --	    .ef
                        8396 .LDW002:
0000293a 7f00           8397 	jmp	[lp]
                        8398 	.type	_RSCFD_EnableTHLInterrupt,@function
                        8399 	.size	_RSCFD_EnableTHLInterrupt,.-_RSCFD_EnableTHLInterrupt
                        8400 	.align	2
                        8401 .LDW102:
                        8402 
                        8403 --_UnitIndex	r6	param
                        8404 --_ChannelIndex	r7	param
                        8405 
                        8406 	.data
                        8407 	.text
                        8408 
                        8409 
                        8410 --2293: /***********************************************************************************************************************
                        8411 --2294:  * Function Name: RSCFD_EnableTHL
                        8412 --2295:  * Description  : enable Tx history list
                        8413 --2296:  * Arguments    : UnitIndex -
                        8414 --2297:  *              :   specified unit
                        8415 --2298:  *              : ChannelIndex -
                        8416 --2299:  *              :   specified channel
                        8417 --2300:  *              : Enable -
                        8418 --2301:  *              :   Enable or disable
                        8419 --2302:  * Return Value : none
                        8420 --2303:  ***********************************************************************************************************************/
                        8421 --2304: void RSCFD_EnableTHL(RSCFD_U8 UnitIndex, RSCFD_U8 ChannelIndex, RSCFD_BOOL Enable)
                        8422 	.align	2
                        8423 	.align	2
                        8424 	.global	_RSCFD_EnableTHL

                                                                      Page 141
                                                              C:\Users\TIEZHU~1\AppData\Local\Temp\gh_000076o1.si
                        8425 _RSCFD_EnableTHL:
0000293c 8600           8426 	zxb	r6
0000293e 8700           8427 	zxb	r7
00002940 8800           8428 	zxb	r8
                        8429 --	    .bf
                        8430 .LDW202:
                        8431 --2305: {
                        8432 --2306: 	THLCC(UnitIndex, ChannelIndex).BIT.THLE = Enable;
00002942 0608           8433 	mov	r6,r1
00002944 cf0a           8434 	shl	15,r1
00002946 4016d0ff       8435 	movhi	hi(-3145728),zero,r2
0000294a c209           8436 	add	r2,r1
0000294c 01160004       8437 	addi	1024,r1,r2
00002950 0708           8438 	mov	r7,r1
00002952 c20a           8439 	shl	2,r1
00002954 01f0           8440 	mov	r1,ep
00002956 c2f1           8441 	add	r2,ep
00002958 000d           8442 	sld.w	0[ep],r1
0000295a e80fd000       8443 	bins	r8,0,1,r1
0000295e 010d           8444 	sst.w	r1,0[ep]
                        8445 --2307: } /* End of RSCFD_EnableTHL() */
                        8446 --	    .ef
                        8447 .LDW302:
00002960 7f00           8448 	jmp	[lp]
                        8449 	.type	_RSCFD_EnableTHL,@function
                        8450 	.size	_RSCFD_EnableTHL,.-_RSCFD_EnableTHL
                        8451 	.align	2
                        8452 .LDW402:
                        8453 
                        8454 --_UnitIndex	r6	param
                        8455 --_ChannelIndex	r7	param
                        8456 --_Enable	r8	param
                        8457 
                        8458 	.data
                        8459 	.text
                        8460 
                        8461 
                        8462 --2309: /***********************************************************************************************************************
                        8463 --2310:  * Function Name: RSCFD_ReadTHL
                        8464 --2311:  * Description  : read Tx history list information
                        8465 --2312:  * Arguments    : UnitIndex -
                        8466 --2313:  *              :   specified unit
                        8467 --2314:  *              : ChannelIndex -
                        8468 --2315:  *              :   specified channel
                        8469 --2316:  *              : pThl -
                        8470 --2317:  *              :   pointer to where Tx history list information will be stored
                        8471 --2318:  * Return Value : TRUE if read successfully
                        8472 --2319:  ***********************************************************************************************************************/
                        8473 --2320: RSCFD_BOOL RSCFD_ReadTHL(RSCFD_U8 UnitIndex, RSCFD_U8 ChannelIndex, RSCFD_THLEntry* pThl)
                        8474 	.align	2
                        8475 	.align	2
                        8476 	.global	_RSCFD_ReadTHL
                        8477 _RSCFD_ReadTHL:
00002962 8600           8478 	zxb	r6
00002964 8700           8479 	zxb	r7
00002966 08f0           8480 	mov	r8,ep
                        8481 --	    .bf
                        8482 .LDW502:
                        8483 --2321: {
                        8484 --2322: 	T_THLACC temp_THLACC;
                        8485 --2324: 	if (THLSTS(UnitIndex, ChannelIndex).BIT.THLEMP)

                                                                      Page 142
                                                              C:\Users\TIEZHU~1\AppData\Local\Temp\gh_000076o1.si
00002968 0608           8486 	mov	r6,r1
0000296a cf0a           8487 	shl	15,r1
0000296c 4016d0ff       8488 	movhi	hi(-3145728),zero,r2
00002970 c209           8489 	add	r2,r1
00002972 01162004       8490 	addi	1056,r1,r2
00002976 0708           8491 	mov	r7,r1
00002978 c20a           8492 	shl	2,r1
0000297a c209           8493 	add	r2,r1
0000297c 210f0100       8494 	ld.w	0[r1],r1
00002980 c10e0100       8495 	andi	1,r1,r1
00002984 e009           8496 	cmp	zero,r1
00002986 b205*          8497 	be	.L3813
                        8498 --2325: 		return RSCFD_FALSE;
                        8499 --line2325
                        8500 ..lin.D.3A.5CCANFDGwMcuFirmRH850F1x.5Ccode.5CCANFDGwMcuFirmRH850F1x.5CCANFDGwMcuFirmRH850F1x.5Cprj.5CGHS.20MULTI.5CCAN.20Gateway.5Coutput.5Cobj.5Cpe1.5Crscanfd_drv.219::
                        8501 .LDWlin219:
00002988 0052           8502 	mov	0,r10
0000298a d545*          8503 	br	.L3811
                        8504 .L3813:
                        8505 --2327: 	if (CFDGRMCFG(UnitIndex).BIT.RCMC == 0)
                        8506 --line2327
                        8507 ..lin.D.3A.5CCANFDGwMcuFirmRH850F1x.5Ccode.5CCANFDGwMcuFirmRH850F1x.5CCANFDGwMcuFirmRH850F1x.5Cprj.5CGHS.20MULTI.5CCAN.20Gateway.5Coutput.5Cobj.5Cpe1.5Crscanfd_drv.220::
                        8508 .LDWlin220:
0000298c 0608           8509 	mov	r6,r1
0000298e cf0a           8510 	shl	15,r1
00002990 4016d0ff       8511 	movhi	hi(-3145728),zero,r2
00002994 c209           8512 	add	r2,r1
00002996 010efc04       8513 	addi	1276,r1,r1
0000299a 210f0100       8514 	ld.w	0[r1],r1
0000299e c10e0100       8515 	andi	1,r1,r1
000029a2 e009           8516 	cmp	zero,r1
000029a4 ea0d*          8517 	bne	.L3816
                        8518 --2328: 	{
                        8519 --2329: 		temp_THLACC = THLACC(UnitIndex, ChannelIndex);
                        8520 --line2329
                        8521 ..lin.D.3A.5CCANFDGwMcuFirmRH850F1x.5Ccode.5CCANFDGwMcuFirmRH850F1x.5CCANFDGwMcuFirmRH850F1x.5Cprj.5CGHS.20MULTI.5CCAN.20Gateway.5Coutput.5Cobj.5Cpe1.5Crscanfd_drv.221::
                        8522 .LDWlin221:
000029a6 0608           8523 	mov	r6,r1
000029a8 cf0a           8524 	shl	15,r1
000029aa 4016d0ff       8525 	movhi	hi(-3145728),zero,r2
000029ae c209           8526 	add	r2,r1
000029b0 01160018       8527 	addi	6144,r1,r2
000029b4 0708           8528 	mov	r7,r1
000029b6 c20a           8529 	shl	2,r1
000029b8 c209           8530 	add	r2,r1
000029ba 210f0100       8531 	ld.w	0[r1],r1
000029be d50d*          8532 	br	.L3818
                        8533 .L3816:
                        8534 --2330: 	}
                        8535 --2331: 	else
                        8536 --2332: 	{
                        8537 --2333: 		temp_THLACC = CFDTHLACC(UnitIndex, ChannelIndex);
                        8538 --line2333
                        8539 ..lin.D.3A.5CCANFDGwMcuFirmRH850F1x.5Ccode.5CCANFDGwMcuFirmRH850F1x.5CCANFDGwMcuFirmRH850F1x.5Cprj.5CGHS.20MULTI.5CCAN.20Gateway.5Coutput.5Cobj.5Cpe1.5Crscanfd_drv.222::
                        8540 .LDWlin222:
000029c0 0608           8541 	mov	r6,r1
000029c2 cf0a           8542 	shl	15,r1
000029c4 4016d0ff       8543 	movhi	hi(-3145728),zero,r2
000029c8 c209           8544 	add	r2,r1
000029ca 01160060       8545 	addi	24576,r1,r2
000029ce 0708           8546 	mov	r7,r1

                                                                      Page 143
                                                              C:\Users\TIEZHU~1\AppData\Local\Temp\gh_000076o1.si
000029d0 c20a           8547 	shl	2,r1
000029d2 c209           8548 	add	r2,r1
000029d4 210f0100       8549 	ld.w	0[r1],r1
                        8550 .L3818:
                        8551 --2334: 	}
                        8552 --2336: 	pThl->BufferNumber = temp_THLACC.BIT.BN;
000029d8 0110           8553 	mov	r1,r2
000029da d912           8554 	shl	25,r2
000029dc 9c12           8555 	shr	28,r2
000029de 8413           8556 	sst.b	r2,4[ep]
                        8557 --2337: 	pThl->BufferType = (RSCFD_THLBufferType) temp_THLACC.BIT.BT;
000029e0 0110           8558 	mov	r1,r2
000029e2 c2160700       8559 	andi	7,r2,r2
000029e6 0115           8560 	sst.w	r2,0[ep]
                        8561 --2338: 	pThl->Label = temp_THLACC.BIT.TID;
000029e8 0110           8562 	mov	r1,r2
000029ea d012           8563 	shl	16,r2
000029ec 9812           8564 	shr	24,r2
000029ee 8513           8565 	sst.b	r2,5[ep]
                        8566 --2339: 	pThl->TimeStamp = temp_THLACC.BIT.TMTS;
000029f0 900a           8567 	shr	16,r1
000029f2 830c           8568 	sst.h	r1,6[ep]
                        8569 --2341: 	THLPCTR(UnitIndex, ChannelIndex).BIT.THLPC = 0xFFU;
000029f4 0608           8570 	mov	r6,r1
000029f6 cf0a           8571 	shl	15,r1
000029f8 4016d0ff       8572 	movhi	hi(-3145728),zero,r2
000029fc c209           8573 	add	r2,r1
000029fe 01164004       8574 	addi	1088,r1,r2
00002a02 0708           8575 	mov	r7,r1
00002a04 c20a           8576 	shl	2,r1
00002a06 01f0           8577 	mov	r1,ep
00002a08 c2f1           8578 	add	r2,ep
00002a0a 000d           8579 	sld.w	0[ep],r1
00002a0c 810eff00       8580 	ori	255,r1,r1
00002a10 010d           8581 	sst.w	r1,0[ep]
                        8582 --2343: 	return RSCFD_TRUE;
00002a12 0152           8583 	mov	1,r10
                        8584 .L3811:
                        8585 --	    .ef
                        8586 .LDW602:
00002a14 7f00           8587 	jmp	[lp]
                        8588 	.type	_RSCFD_ReadTHL,@function
                        8589 	.size	_RSCFD_ReadTHL,.-_RSCFD_ReadTHL
                        8590 	.align	2
                        8591 .LDW702:
                        8592 --_temp_THLACC	r1	local
                        8593 
                        8594 --_UnitIndex	r6	param
                        8595 --_ChannelIndex	r7	param
                        8596 --_pThl	ep	param
                        8597 
                        8598 	.data
                        8599 	.text
                        8600 
                        8601 --2344: } /* End of RSCFD_ReadTHL() */
                        8602 
                        8603 --2346: /***********************************************************************************************************************
                        8604 --2347:  * Function Name: RSCFD_GetTHLCount
                        8605 --2348:  * Description  : get number of messages stored in Tx history list
                        8606 --2349:  * Arguments    : UnitIndex -
                        8607 --2350:  *              :   specified unit

                                                                      Page 144
                                                              C:\Users\TIEZHU~1\AppData\Local\Temp\gh_000076o1.si
                        8608 --2351:  *              : ChannelIndex -
                        8609 --2352:  *              :   specified channel
                        8610 --2353:  * Return Value : number of messages stored in Tx history list
                        8611 --2354:  ***********************************************************************************************************************/
                        8612 --2355: RSCFD_U8 RSCFD_GetTHLCount(RSCFD_U8 UnitIndex, RSCFD_U8 ChannelIndex)
                        8613 	.align	2
                        8614 	.align	2
                        8615 	.global	_RSCFD_GetTHLCount
                        8616 _RSCFD_GetTHLCount:
00002a16 8600           8617 	zxb	r6
00002a18 8700           8618 	zxb	r7
                        8619 --	    .bf
                        8620 .LDW802:
                        8621 --2356: {
                        8622 --2357: 	return THLSTS(UnitIndex, ChannelIndex).BIT.THLMC;
00002a1a 0608           8623 	mov	r6,r1
00002a1c cf0a           8624 	shl	15,r1
00002a1e 4016d0ff       8625 	movhi	hi(-3145728),zero,r2
00002a22 c209           8626 	add	r2,r1
00002a24 01162004       8627 	addi	1056,r1,r2
00002a28 0708           8628 	mov	r7,r1
00002a2a c20a           8629 	shl	2,r1
00002a2c 01f0           8630 	mov	r1,ep
00002a2e c2f1           8631 	add	r2,ep
00002a30 000d           8632 	sld.w	0[ep],r1
00002a32 d30a           8633 	shl	19,r1
00002a34 9b0a           8634 	shr	27,r1
00002a36 0150           8635 	mov	r1,r10
                        8636 --	    .ef
                        8637 .LDW902:
00002a38 7f00           8638 	jmp	[lp]
                        8639 	.type	_RSCFD_GetTHLCount,@function
                        8640 	.size	_RSCFD_GetTHLCount,.-_RSCFD_GetTHLCount
                        8641 	.align	2
                        8642 .LDW012:
                        8643 
                        8644 --_UnitIndex	r6	param
                        8645 --_ChannelIndex	r7	param
                        8646 
                        8647 	.data
                        8648 	.text
                        8649 
                        8650 --2358: } /* End of RSCFD_GetTHLCount() */
                        8651 
                        8652 --2360: /***********************************************************************************************************************
                        8653 --2361:  * Function Name: RSCFD_ClearTHLIntFlag
                        8654 --2362:  * Description  : clear Tx history list interrupt flag
                        8655 --2363:  * Arguments    : UnitIndex -
                        8656 --2364:  *              :   specified unit
                        8657 --2365:  *              : ChannelIndex -
                        8658 --2366:  *              :   specified channel
                        8659 --2367:  * Return Value : none
                        8660 --2368:  ***********************************************************************************************************************/
                        8661 --2369: void RSCFD_ClearTHLIntFlag(RSCFD_U8 UnitIndex, RSCFD_U8 ChannelIndex)
                        8662 	.align	2
                        8663 	.align	2
                        8664 	.global	_RSCFD_ClearTHLIntFlag
                        8665 _RSCFD_ClearTHLIntFlag:
00002a3a 8600           8666 	zxb	r6
00002a3c 8700           8667 	zxb	r7
                        8668 --	    .bf

                                                                      Page 145
                                                              C:\Users\TIEZHU~1\AppData\Local\Temp\gh_000076o1.si
                        8669 .LDW112:
                        8670 --2370: {
                        8671 --2371: 	THLSTS(UnitIndex, ChannelIndex).BIT.THLIF = 0U;
00002a3e 0608           8672 	mov	r6,r1
00002a40 cf0a           8673 	shl	15,r1
00002a42 4016d0ff       8674 	movhi	hi(-3145728),zero,r2
00002a46 c209           8675 	add	r2,r1
00002a48 01162004       8676 	addi	1056,r1,r2
00002a4c 0708           8677 	mov	r7,r1
00002a4e c20a           8678 	shl	2,r1
00002a50 01f0           8679 	mov	r1,ep
00002a52 c2f1           8680 	add	r2,ep
00002a54 000d           8681 	sld.w	0[ep],r1
00002a56 1712           8682 	mov	-9,r2
00002a58 4209           8683 	and	r2,r1
00002a5a 010d           8684 	sst.w	r1,0[ep]
                        8685 --2372: } /* End of RSCFD_ClearTHLIntFlag() */
                        8686 --	    .ef
                        8687 .LDW212:
00002a5c 7f00           8688 	jmp	[lp]
                        8689 	.type	_RSCFD_ClearTHLIntFlag,@function
                        8690 	.size	_RSCFD_ClearTHLIntFlag,.-_RSCFD_ClearTHLIntFlag
                        8691 	.align	2
                        8692 .LDW312:
                        8693 
                        8694 --_UnitIndex	r6	param
                        8695 --_ChannelIndex	r7	param
                        8696 
                        8697 	.data
                        8698 	.text
                        8699 
                        8700 	.align	2
                        8701 --__RmbPayloadSizeMap	sdaoff2(__RmbPayloadSizeMap)	static
                        8702 --__FifoPayloadSizeMap	sdaoff2(__FifoPayloadSizeMap)	static
                        8703 --_FDDlcBytesMap	_FDDlcBytesMap	static
                        8704 
                        8705 	.data
                        8706 	.ghsnote version,15
                        8707 	.ghsnote tools,3
                        8708 	.ghsnote options,144
                        8709 	.text
                        8710 	.align	2
                        8711 ..eof.D.3A.5CCANFDGwMcuFirmRH850F1x.5Ccode.5CCANFDGwMcuFirmRH850F1x.5CCANFDGwMcuFirmRH850F1x.5Cprj.5CGHS.20MULTI.5CCAN.20Gateway.5Coutput.5Cobj.5Cpe1.5Crscanfd_drv...44.3A.5CCANFDGwMcuFirmRH850F1x.5Ccode.5CCANFDGwMcuFirmRH850F1x.5CCANFDGwMcuFirmRH850F1x.5Cprj.5CGHS.20MULTI.5CCAN.20Gateway..5641940A..0::
                        8712 .rh850_flags REGMODE32,DATA_ALIGN8,GP_FIX,EP_NONFIX,TP_FIX,REG2_NONRESERVE,G3M
