                                                                      Page 1
                                                              C:\Users\TIEZHU~1\AppData\Local\Temp\gh_00006hc1.si
Command Line: C:\GHS\V800.V2014.1.7\comp_201417\ease850.exe -w -elf -b0 -Ipe1_project\inc -I..\..\..\src -Isrc -Idev -Iinc -Idevice -IC:\GHS\V800.V2014.1.7\comp_201417\lib\rh850 -cg_underscore -cpu=rh850g3m -no_v850_simd -rh850_fpsimd=none -nomacro -patch_dbo=D:\CANFDGwMcuFirmRH850F1x\code\CANFDGwMcuFirmRH850F1x\CANFDGwMcuFirmRH850F1x\prj\GHS MULTI\CAN Gateway\output\obj\pe1\Can.dbo -source=Can.c -o .\output\obj\pe1\gh_00006hc1.o -list=.\output\obj\pe1\Can.lst C:\Users\TIEZHU~1\AppData\Local\Temp\gh_00006hc1.si 
Original File: C:\Users\TIEZHU~1\AppData\Local\Temp\gh_00006hc1.si
Source File: Can.c
Directory: D:\CANFDGwMcuFirmRH850F1x\code\CANFDGwMcuFirmRH850F1x\CANFDGwMcuFirmRH850F1x\prj\GHS MULTI\CAN Gateway
Host OS: Windows 7
EASE: Copyright (C) 1983-2014 Green Hills Software.  All Rights Reversed.
Release: Compiler v2014.1.7
Build Directory: [Directory] BTOWINBOX:c:/build_2014_1_bto/2014-09-04.2200-2014_1_bto/win32-comp-ecom
Revision: [VCInfo] http://toolsvc/branches/release-branch-2014-1-bto/src@515859 (built by build)
Revision Date: Fri Sep 05 14:05:06 2014

Release Date: Fri Sep 05 14:43:29 2014

                           1 --Driver Command: ccv850 -c -MD -Ipe1_project\inc -I..\..\..\src -Isrc -Idev
                           2 --		-Iinc -Idevice -DMY_CLOCK -UMSC_CLOCK -sda -DEMBEDDED
                           3 --		--enable_noinline --restrict --bool -bsp generic -g -list
                           4 --		-passsource -preprocess_assembly_files
                           5 --		--preprocess_linker_directive_full -DDEVICE=F1H -cpu=rh850g3m
                           6 --		-Onone -DCPU1=1 -DCPU2=0 -DCORE1 -object_dir=./output/obj/pe1
                           7 --		-filetype.c ..\..\..\src\Can.c -o .\output\obj\pe1\Can.o
                           8 --Source File:   ..\..\..\src\Can.c
                           9 --Directory:     
                          10 --		D:\CANFDGwMcuFirmRH850F1x\code\CANFDGwMcuFirmRH850F1x\CANFDGwMcuFirmRH850F1x\prj\GHS
                          11 --		MULTI\CAN Gateway
                          12 --Compile Date:  Tue Nov 10 14:51:55 2015
                          13 --Host OS:       Win32
                          14 --Version:       C-RH850 2014.1.7 RELEASE VERSION
                          15 --Release:       Compiler v2014.1.7
                          16 --Revision Date: Fri Sep 05 14:10:46 2014
                          17 --Release Date:  Fri Sep 05 14:44:23 2014
                          18 -- ecom  -g -w
                          19 
                          20 --1: /***********************************************************************************************************************
                          21 --2:  * DISCLAIMER
                          22 --3:  * This software is supplied by Renesas Electronics Corporation and is only intended for use with Renesas products. No
                          23 --4:  * other uses are authorized. This software is owned by Renesas Electronics Corporation and is protected under all
                          24 --5:  * applicable laws, including copyright laws.
                          25 --6:  * THIS SOFTWARE IS PROVIDED "AS IS" AND RENESAS MAKES NO WARRANTIES REGARDING
                          26 --7:  * THIS SOFTWARE, WHETHER EXPRESS, IMPLIED OR STATUTORY, INCLUDING BUT NOT LIMITED TO WARRANTIES OF MERCHANTABILITY,
                          27 --8:  * FITNESS FOR A PARTICULAR PURPOSE AND NON-INFRINGEMENT. ALL SUCH WARRANTIES ARE EXPRESSLY DISCLAIMED. TO THE MAXIMUM
                          28 --9:  * EXTENT PERMITTED NOT PROHIBITED BY LAW, NEITHER RENESAS ELECTRONICS CORPORATION NOR ANY OF ITS AFFILIATED COMPANIES
                          29 --10:  * SHALL BE LIABLE FOR ANY DIRECT, INDIRECT, SPECIAL, INCIDENTAL OR CONSEQUENTIAL DAMAGES FOR ANY REASON RELATED TO THIS
                          30 --11:  * SOFTWARE, EVEN IF RENESAS OR ITS AFFILIATES HAVE BEEN ADVISED OF THE POSSIBILITY OF SUCH DAMAGES.
                          31 --12:  * Renesas reserves the right, without notice, to make changes to this software and to discontinue the availability of
                          32 --13:  * this software. By using this software, you agree to the additional terms and conditions found by accessing the
                          33 --14:  * following link:
                          34 --15:  * http:/ /www.renesas.com/disclaimer
                          35 --16:  *
                          36 --17:  * Copyright (C) 2011 Renesas Electronics Corporation. All rights reserved.
                          37 --18:  ***********************************************************************************************************************/
                          38 --19: /***********************************************************************************************************************
                          39 --20:  * File Name	: Can.c
                          40 --21:  * Version      : 1.0
                          41 --22:  * Description  : This file implements functions in CAN driver module.
                          42 --23:  **********************************************************************************************************************/
                          43 --24: /**********************************************************************************************************************
                          44 --25:  * History : DD.MM.YYYY Version  Description
                          45 --26:  *         : 25.09.2014 1.00     First Release
                          46 --27:  ***********************************************************************************************************************/
                          47 --29: /***********************************************************************************************************************
                          48 --30:  Includes   <System Includes> , "Project Includes"
                          49 --31:  ***********************************************************************************************************************/
                          50 --32: #include "Can_Cfg.h"

                                                                      Page 2
                                                              C:\Users\TIEZHU~1\AppData\Local\Temp\gh_00006hc1.si
                          51 --33: #include "Can.h"
                          52 --34: #include "CanIf.h"
                          53 --35: #include "dr7f7015273.h"
                          54 --36: #include "interrupt_reg.h"
                          55 --37: #include "User_Callback.h"
                          56 --39: /***********************************************************************************************************************
                          57 --40:  Macro definitions
                          58 --41:  ***********************************************************************************************************************/
                          59 --42: /* ---- Bit,Register operation ---- */
                          60 --43: /* MISRA C:2012 Violation - Rule 4.9 */
                          61 --44: /* Justification - below register operation macro definition are used unavoidable */
                          62 --45: #define SET_BIT(reg, m)     				((reg) |= (1U << (m)))
                          63 --46: #define CLR_BIT(reg, m)     				((reg) &= (uint16_t)(~((uint16_t)1U << (m))))
                          64 --47: #define WR_PROT_REG(cmd, reg, value)                \
                          65 --48:     do {                                            \
                          66 --49:         cmd = 0xA5U;                                \
                          67 --50:         reg = value;                                \
                          68 --51:         reg = ~value;                               \
                          69 --52:         reg = value;                                \
                          70 --53:     } while (0)
                          71 --55: /* ---- CAN port registers ---- */
                          72 --56: /* MISRA C:2012 Violation - Rule 4.9 */
                          73 --57: /* Justification - below register operation macro definition are used unavoidable */
                          74 --58: #define PORT_N_BASE_ADDR					(0xFFC10000UL)
                          75 --59: #define REG_PMC(n)    						(*(volatile uint16_t*)(PORT_N_BASE_ADDR + 0x0400U + ((n)*4U)))
                          76 --60: #define REG_PIPC(n)  						(*(volatile uint16_t*)(PORT_N_BASE_ADDR + 0x4200U + ((n)*4U)))
                          77 --61: #define REG_PM(n)     						(*(volatile uint16_t*)(PORT_N_BASE_ADDR + 0x0300U + ((n)*4U)))
                          78 --62: #define REG_PFC(n)    						(*(volatile uint16_t*)(PORT_N_BASE_ADDR + 0x0500U + ((n)*4U)))
                          79 --63: #define REG_PFCE(n)   						(*(volatile uint16_t*)(PORT_N_BASE_ADDR + 0x0600U + ((n)*4U)))
                          80 --64: #define REG_PFCAE(n)  						(*(volatile uint16_t*)(PORT_N_BASE_ADDR + 0x0A00U + ((n)*4U)))
                          81 --66: /* ---- CAN interrupt controller registers ---- */
                          82 --67: #define REG_ICRCANGERR0               		(*(volatile uint16_t*)0xFFFEEA2CUL)
                          83 --68: #define REG_ICRCANGRECC0              		(*(volatile uint16_t*)0xFFFEEA2EUL)
                          84 --69: #define REG_ICRCAN0ERR                		(*(volatile uint16_t*)0xFFFEEA30UL)
                          85 --70: #define REG_ICRCAN0REC                		(*(volatile uint16_t*)0xFFFEEA32UL)
                          86 --71: #define REG_ICRCAN0TRX                		(*(volatile uint16_t*)0xFFFEEA34UL)
                          87 --72: #define REG_ICRCAN1ERR                		(*(volatile uint16_t*)0xFFFFB0E2UL)
                          88 --73: #define REG_ICRCAN1REC                		(*(volatile uint16_t*)0xFFFFB0E4UL)
                          89 --74: #define REG_ICRCAN1TRX                		(*(volatile uint16_t*)0xFFFFB0E6UL)
                          90 --75: #define REG_ICRCAN2ERR                		(*(volatile uint16_t*)0xFFFFB1B2UL)
                          91 --76: #define REG_ICRCAN2REC                		(*(volatile uint16_t*)0xFFFFB1B4UL)
                          92 --77: #define REG_ICRCAN2TRX                		(*(volatile uint16_t*)0xFFFFB1B6UL)
                          93 --78: #define REG_ICRCAN3ERR                		(*(volatile uint16_t*)0xFFFFB1B8UL)
                          94 --79: #define REG_ICRCAN3REC                		(*(volatile uint16_t*)0xFFFFB1BAUL)
                          95 --80: #define REG_ICRCAN3TRX                		(*(volatile uint16_t*)0xFFFFB1BCUL)
                          96 --81: #define REG_ICRCAN4ERR                		(*(volatile uint16_t*)0xFFFFB220UL)
                          97 --82: #define REG_ICRCAN4REC                		(*(volatile uint16_t*)0xFFFFB222UL)
                          98 --83: #define REG_ICRCAN4TRX                		(*(volatile uint16_t*)0xFFFFB224UL)
                          99 --84: #define REG_ICRCAN5ERR                		(*(volatile uint16_t*)0xFFFFB23EUL)
                         100 --85: #define REG_ICRCAN5REC                		(*(volatile uint16_t*)0xFFFFB240UL)
                         101 --86: #define REG_ICRCAN5TRX                		(*(volatile uint16_t*)0xFFFFB242UL)
                         102 --87: #define REG_ICRCANGERR1               		(*(volatile uint16_t*)0xFFFFB27EUL)
                         103 --88: #define REG_ICRCANGRECC1              		(*(volatile uint16_t*)0xFFFFB280UL)
                         104 --89: #define REG_ICRCAN6ERR                		(*(volatile uint16_t*)0xFFFFB282UL)
                         105 --90: #define REG_ICRCAN6REC                		(*(volatile uint16_t*)0xFFFFB284UL)
                         106 --91: #define REG_ICRCAN6TRX                		(*(volatile uint16_t*)0xFFFFB286UL)
                         107 --93: /* ---- CAN fixed configuration information ---- */
                         108 --94: /* Default Global configuration */
                         109 --95: #define CAN_TX_PRIORITY_ID             		(0U)
                         110 --96: #define CAN_DLC_CHECK_ENABLED          		(1U << 1U)
                         111 --97: #define CAN_DLC_REPLACEMENT_DISABLED   		(0U)

                                                                      Page 3
                                                              C:\Users\TIEZHU~1\AppData\Local\Temp\gh_00006hc1.si
                         112 --98: #define CAN_MIRROR_DISABLED            		(0U)
                         113 --99: #define CAN_CLK_SOURCE_CLK_XINCAN      		(1U << 4U)
                         114 --100: #define CAN_TIMESTAMP_CLK_SOURCE_NODIV   	(0U)
                         115 --101: #define CAN_TIMESTAMP_CLK_SOURCE_CH0   		(0U)
                         116 --102: #define CAN_INTERVAL_TMR_PRESCALER_0   		(0U)
                         117 --103: #define CAN_GLOBAL_CONFIG              		(CAN_TX_PRIORITY_ID | \
                         118 --104: 		                                	CAN_DLC_CHECK_ENABLED | \
                         119 --105: 		                                	CAN_DLC_REPLACEMENT_DISABLED | \
                         120 --106: 		                                	CAN_MIRROR_DISABLED | \
                         121 --107: 		                                	CAN_CLK_SOURCE_CLK_XINCAN | \
                         122 --108: 		                                	CAN_TIMESTAMP_CLK_SOURCE_NODIV | \
                         123 --109: 		                                	CAN_TIMESTAMP_CLK_SOURCE_CH0 | \
                         124 --110: 		                                	CAN_INTERVAL_TMR_PRESCALER_0)
                         125 --111: /* Default Tx Queue settings */
                         126 --112: #define CAN_DEPTH_OF_TXQ               		(10U)
                         127 --113: #define RSCFD_TXQ_DEPTH_10					(RSCFD_TXQ_DEPTH_10_MESSAGE)
                         128 --114: #define RSCFD_TXQ_INT_MODE					(RSCFD_TXQ_INT_MODE_EACH_MSG)
                         129 --115: /* Default Tx/Rx FIFO configuration */
                         130 --116: #define RSCAN_FIXED_TOTAL_CFIFONUM_USED     (1U)
                         131 --117: #define RSCAN_FIXED_GWFIFO_INDEX            (0U)
                         132 --118: #define RSCAN_FIXED_TXBUF_LINKED            (0U)
                         133 --119: #define RSCAN_FIXED_INTERVAL                (0U)
                         134 --121: /* Default Tx buffer configuration */
                         135 --122: #define RSCAN_DEFAULT_TXBUF_MERGED          (3U)
                         136 --123: #define RSCAN_DEFAULT_TXBUF_MERGED_TOTAL    (6U)
                         137 --125: /* DLC value definition for CAN/CAN FD frame */
                         138 --126: #define CLASSIC_FRM_DLC_MAX                 (8U)
                         139 --127: #define FD_PAYLOAD_DLC_8                    (8U)
                         140 --128: #define FD_FRM_DLC_9                        (9U)
                         141 --129: #define FD_PAYLOAD_DLC_9                    (12U)
                         142 --130: #define FD_FRM_DLC_A                        (10U)
                         143 --131: #define FD_PAYLOAD_DLC_A                    (16U)
                         144 --132: #define FD_FRM_DLC_B                        (11U)
                         145 --133: #define FD_PAYLOAD_DLC_B                    (20U)
                         146 --134: #define FD_FRM_DLC_C                        (12U)
                         147 --135: #define FD_PAYLOAD_DLC_C                    (24U)
                         148 --136: #define FD_FRM_DLC_D                        (13U)
                         149 --137: #define FD_PAYLOAD_DLC_D                    (32U)
                         150 --138: #define FD_FRM_DLC_E                        (14U)
                         151 --139: #define FD_PAYLOAD_DLC_E                    (48U)
                         152 --140: #define FD_FRM_DLC_F                        (15U)
                         153 --141: #define FD_PAYLOAD_DLC_F                    (64U)
                         154 --143: /***********************************************************************************************************************
                         155 --144:  Typedef definitions
                         156 --145:  ***********************************************************************************************************************/
                         157 --146: typedef enum
                         158 --147: {
                         159 --148: 	CAN_TX_OBJ_TXQ = 0, CAN_TX_OBJ_TXBUF_MERGED
                         160 --149: } can_tx_obj_t;
                         161 --151: typedef enum
                         162 --152: {
                         163 --153: 	TXBUF_STS_NO_RESULT = 0, TXBUF_STS_ABORTED, TXBUF_STS_TX_OK_NO_ABORT_REQ, TXBUF_STS_TX_OK_ABORT_REQ,
                         164 --154: /* MISRA C:2012 Violation - Rule 2.3 */
                         165 --155: /* Justification - the elements is referenced */
                         166 --156: } can_txbuf_sts_t;
                         167 --157: /***********************************************************************************************************************
                         168 --158:  Exported global variables (to be accessed by other files)
                         169 --159:  ***********************************************************************************************************************/
                         170 --161: /***********************************************************************************************************************
                         171 --162:  Private global variables and functions
                         172 --163:  ***********************************************************************************************************************/

                                                                      Page 4
                                                              C:\Users\TIEZHU~1\AppData\Local\Temp\gh_00006hc1.si
                         173 --164: /* ---- PDU ID for HTH ---- */
                         174 --165: static can_pdu_id_tx_map_tbl_t g_can_hoh_pduid_txtbl[CAN_NUM_OF_CHN][CAN_DEPTH_OF_TXQ];
                         175 --166: /* MISRA C:2012 Violation - Rule 8.9 */
                         176 --167: /* Justification - this variable can't be defined in block scope for configurable in another file */
                         177 --168: static PduIdType g_can_hoh_pduid_txbuf_tbl[CAN_NUM_OF_CHN];
                         178 --169: /* ---- local function declaration ---- */
                         179 --170: static void can_set_port(can_port_t PortSetting);
                         180 --171: static void can_read_rxfifo(uint8_t CanUnit, uint8_t RxFifoIdx);
                         181 --172: static boolean can_is_txlabel_correct(uint8_t MapTableIdx, uint8_t Label);
                         182 --173: static void can_check_tx_completion(uint8_t PhyChn);
                         183 --174: static void can_check_rx_completion(void);
                         184 --175: static void can_init_global(const Can_UnitCfgType* ConfigPtr);
                         185 --176: static uint16_t can_get_current_afl_idx(uint8_t PhyChnIdx);
                         186 --177: static void can_set_tdc(uint8_t UnitId, uint8_t ChannelId, const can_controller_cfg_t* pCanCfg);
                         187 --178: static void can_set_afl(uint8_t PhyChnIdx, uint8_t UnitId, uint8_t ChannelId, const can_controller_cfg_t* pCanCfg);
                         188 --179: static void can_set_txbuffer(uint8_t UnitId, uint8_t ChannelId, const can_controller_cfg_t* pCanCfg);
                         189 --180: static void can_set_txq(uint8_t UnitId, uint8_t ChannelId);
                         190 --181: static void can_set_trfifo(uint8_t UnitId, uint8_t ChannelId, const can_controller_cfg_t* pCanCfg);
                         191 --182: static void can_set_thl(uint8_t UnitId, uint8_t ChannelId);
                         192 --183: static void can_init_channel(uint8_t PhyChnIdx, const can_controller_cfg_t* pCanControllerTbl);
                         193 --184: static void can_set_interrupt(void);
                         194 --185: static void can_disable_chn_interrupt(uint8_t UnitId, uint8_t ChannelId);
                         195 --186: static void can_enable_chn_interrupt(uint8_t UnitId, uint8_t ChannelId);
                         196 --187: static void can_disable_rxfifo_interrupt(uint8_t UnitId);
                         197 --188: static void can_enable_rxfifo_interrupt(uint8_t UnitId);
                         198 --189: static RSCFD_FrameFormat can_get_id_type(uint32_t pdu_id);
                         199 --190: static uint8_t can_get_dlc_by_data_length(uint8_t dataLength, RSCFD_FrameFormat frmFormat);
                         200 --191: static uint8_t can_get_data_length_by_dlc(const RSCFD_Frame* pfrm);
                         201 --192: static RSCFD_Frame can_get_txmsg(const Can_PduType* PduInfo, uint8_t UnitId, uint8_t ChannelId);
                         202 --193: static boolean can_get_txpointer(uint8_t ChannelId, PduIdType PduId, uint8_t* pTxPointer);
                         203 --194: static uint8_t can_get_chn_cfgtbl_index(uint8_t UnitId, uint8_t ChannelId);
                         204 --195: static void Can_DisableControllerInterrupts(uint8_t PhyChnIdx);
                         205 --196: static void Can_EnableControllerInterrupts(uint8_t PhyChnIdx);
                         206 --197: static Can_ReturnType Can_CheckWakeup(uint8_t Controller);
                         207 --198: static boolean can_is_canfd(const RSCFD_Frame* frmMsg);
                         208 --199: static can_tx_obj_t can_select_tx_obj(const RSCFD_Frame* frmMsg);
                         209 --200: static Can_ReturnType can_is_txbuf_ongoing(uint8_t UnitId, uint8_t ChannelId, uint8_t txBufIdx);
                         210 --201: static can_if_pdu_can_id_t can_get_frm_format(RSCFD_FrameFormat frmFormat);
                         211 --202: /***********************************************************************************************************************
                         212 --203:  * Function Name: can_set_port
                         213 --204:  * Description  : This function sets specified CAN port.
                         214 --205:  * Arguments    : PortSetting -
                         215 --206:  *                    specified CAN port setting
                         216 --207:  * Return Value : none
                         217 --208:  ***********************************************************************************************************************/
                         218 --209: /* MISRA C:2012 Violation - Rule 11.4, 11.6 */
                         219 --210: /* Justification - Some macro for register definition and bit operation are used unavoidable */
                         220 --211: static void can_set_port(can_port_t PortSetting)
                         221 	.text
                         222 ..bof.D.3A.5CCANFDGwMcuFirmRH850F1x.5Ccode.5CCANFDGwMcuFirmRH850F1x.5CCANFDGwMcuFirmRH850F1x.5Cprj.5CGHS.20MULTI.5CCAN.20Gateway.5Coutput.5Cobj.5Cpe1.5CCan...44.3A.5CCANFDGwMcuFirmRH850F1x.5Ccode.5CCANFDGwMcuFirmRH850F1x.5CCANFDGwMcuFirmRH850F1x.5Cprj.5CGHS.20MULTI.5CCAN.20Gateway..5641940B..0::
                         223 	.align	2
                         224 	.global	_can_set_port..D.3A.5CCANFDGwMcuFirmRH850F1x.5Ccode.5CCANFDGwMcuFirmRH850F1x.5CCANFDGwMcuFirmRH850F1x.5Cprj.5CGHS.20MULTI.5CCAN.20Gateway.5Coutput.5Cobj.5Cpe1.5CCan.
                         225 _can_set_port..D.3A.5CCANFDGwMcuFirmRH850F1x.5Ccode.5CCANFDGwMcuFirmRH850F1x.5CCANFDGwMcuFirmRH850F1x.5Cprj.5CGHS.20MULTI.5CCAN.20Gateway.5Coutput.5Cobj.5Cpe1.5CCan.:
                         226 _can_set_port:
00000000 5c1a            227 	add	-4,sp
00000002 63ff0100        228 	st.w	lp,0[sp]
                         229 --	    .bf
                         230 .LDW01:
                         231 --212: {
                         232 --213: 	switch (PortSetting)
00000006 0608            233 	mov	r6,r1

                                                                      Page 5
                                                              C:\Users\TIEZHU~1\AppData\Local\Temp\gh_00006hc1.si
00000008 6f0a            234 	cmp	15,r1
0000000a eb07bf0c*       235 	bh	.L2
0000000e c20a            236 	shl	2,r1
00000010 e10600000000*   237 	jmp	.L123[r1]
                         238 .L123:
00000016 80074000*       239 	jr	.L6
0000001a 80073801*       240 	jr	.L17
0000001e 8007f801*       241 	jr	.L18
00000022 8007b802*       242 	jr	.L19
00000026 80077803*       243 	jr	.L20
0000002a 80073804*       244 	jr	.L21
0000002e 8007f804*       245 	jr	.L22
00000032 8007b805*       246 	jr	.L23
00000036 80077806*       247 	jr	.L24
0000003a 80073807*       248 	jr	.L25
0000003e 8007f807*       249 	jr	.L26
00000042 8007b808*       250 	jr	.L27
00000046 80077809*       251 	jr	.L28
0000004a 8007380a*       252 	jr	.L29
0000004e 8007f80a*       253 	jr	.L30
00000052 8007b60b*       254 	jr	.L31
                         255 .L6:
                         256 --214: 	{
                         257 --215: 		/* ---- RS-CAN 0 port setting ---- */
                         258 --216: 		case CAN0_RX_P0_1_TX_P0_0:
                         259 --217: 			/* CRX - P0_1 */
                         260 --218: 			CLR_BIT(REG_PFCAE(0U), 1U);
                         261 --line218
                         262 ..lin.D.3A.5CCANFDGwMcuFirmRH850F1x.5Ccode.5CCANFDGwMcuFirmRH850F1x.5CCANFDGwMcuFirmRH850F1x.5Cprj.5CGHS.20MULTI.5CCAN.20Gateway.5Coutput.5Cobj.5Cpe1.5CCan.1::
                         263 .LDWlin1:
00000056 a00707081482    264 	ld.hu	4290841088[zero],r1
0000005c c10efdff        265 	andi	65533,r1,r1
00000060 a0070d081482    266 	st.h	r1,4290841088[zero]
                         267 --219: 			CLR_BIT(REG_PFCE(0U), 1U);
00000066 a00707080c82    268 	ld.hu	4290840064[zero],r1
0000006c c10efdff        269 	andi	65533,r1,r1
00000070 a0070d080c82    270 	st.h	r1,4290840064[zero]
                         271 --220: 			SET_BIT(REG_PFC(0U), 1U);
00000076 a00707080a82    272 	ld.hu	4290839808[zero],r1
0000007c 810e0200        273 	ori	2,r1,r1
00000080 a0070d080a82    274 	st.h	r1,4290839808[zero]
                         275 --221: 			CLR_BIT(REG_PIPC(0U), 1U);
00000086 a00707088482    276 	ld.hu	4290855424[zero],r1
0000008c c10efdff        277 	andi	65533,r1,r1
00000090 a0070d088482    278 	st.h	r1,4290855424[zero]
                         279 --222: 			SET_BIT(REG_PMC(0U), 1U);
00000096 a00707080882    280 	ld.hu	4290839552[zero],r1
0000009c 810e0200        281 	ori	2,r1,r1
000000a0 a0070d080882    282 	st.h	r1,4290839552[zero]
                         283 --223: 			SET_BIT(REG_PM(0U), 1U);
000000a6 a00707080682    284 	ld.hu	4290839296[zero],r1
000000ac 810e0200        285 	ori	2,r1,r1
000000b0 a0070d080682    286 	st.h	r1,4290839296[zero]
                         287 --224: 			/* CTX - P0_0 */
                         288 --225: 			CLR_BIT(REG_PFCAE(0U), 0U);
000000b6 a00707081482    289 	ld.hu	4290841088[zero],r1
000000bc c10efeff        290 	andi	65534,r1,r1
000000c0 a0070d081482    291 	st.h	r1,4290841088[zero]
                         292 --226: 			CLR_BIT(REG_PFCE(0U), 0U);
000000c6 a00707080c82    293 	ld.hu	4290840064[zero],r1
000000cc c10efeff        294 	andi	65534,r1,r1

                                                                      Page 6
                                                              C:\Users\TIEZHU~1\AppData\Local\Temp\gh_00006hc1.si
000000d0 a0070d080c82    295 	st.h	r1,4290840064[zero]
                         296 --227: 			SET_BIT(REG_PFC(0U), 0U);
000000d6 a00707080a82    297 	ld.hu	4290839808[zero],r1
000000dc 810e0100        298 	ori	1,r1,r1
000000e0 a0070d080a82    299 	st.h	r1,4290839808[zero]
                         300 --228: 			CLR_BIT(REG_PIPC(0U), 0U);
000000e6 a00707088482    301 	ld.hu	4290855424[zero],r1
000000ec c10efeff        302 	andi	65534,r1,r1
000000f0 a0070d088482    303 	st.h	r1,4290855424[zero]
                         304 --229: 			SET_BIT(REG_PMC(0U), 0U);
000000f6 a00707080882    305 	ld.hu	4290839552[zero],r1
000000fc 810e0100        306 	ori	1,r1,r1
00000100 a0070d080882    307 	st.h	r1,4290839552[zero]
                         308 --230: 			CLR_BIT(REG_PM(0U), 0U);
00000106 a00707080682    309 	ld.hu	4290839296[zero],r1
0000010c c10efeff        310 	andi	65534,r1,r1
00000110 a0070d080682    311 	st.h	r1,4290839296[zero]
                         312 --232: 			User_StartTimeCount();
                         313 	jarl	_User_StartTimeCount,lp
                         313 <EXPANSION BEGIN>
                         313 jarl22 _User_StartTimeCount , lp 
00000116 80ff0000*       313 <EXPANSION END>
                         314 --233: 			while (PODC0 != 0x00UL)
                         315 --line233
                         316 ..lin.D.3A.5CCANFDGwMcuFirmRH850F1x.5Ccode.5CCANFDGwMcuFirmRH850F1x.5CCANFDGwMcuFirmRH850F1x.5Cprj.5CGHS.20MULTI.5CCAN.20Gateway.5Coutput.5Cobj.5Cpe1.5CCan.2::
                         317 .LDWlin2:
0000011a d515*           318 	br	.L7
                         319 .L9:
                         320 --234: 			{
                         321 --235: 				if (TRUE == User_IsTimeOut())
                         322 --line235
                         323 ..lin.D.3A.5CCANFDGwMcuFirmRH850F1x.5Ccode.5CCANFDGwMcuFirmRH850F1x.5CCANFDGwMcuFirmRH850F1x.5Cprj.5CGHS.20MULTI.5CCAN.20Gateway.5Coutput.5Cobj.5Cpe1.5CCan.3::
                         324 .LDWlin3:
                         325 	jarl	_User_IsTimeOut,lp
                         325 <EXPANSION BEGIN>
                         325 jarl22 _User_IsTimeOut , lp 
0000011c 80ff0000*       325 <EXPANSION END>
00000120 6152            326 	cmp	1,r10
00000122 e207a70b*       327 	be	.L2
                         328 --236: 				{
                         329 --237: 					/* exit if timeout */
                         330 --238: 					break;
                         331 --239: 				}
                         332 --241: 				WR_PROT_REG(PPCMD0, PODC0, 0x00UL);
                         333 --line241
                         334 ..lin.D.3A.5CCANFDGwMcuFirmRH850F1x.5Ccode.5CCANFDGwMcuFirmRH850F1x.5CCANFDGwMcuFirmRH850F1x.5Cprj.5CGHS.20MULTI.5CCAN.20Gateway.5Coutput.5Cobj.5Cpe1.5CCan.4::
                         335 .LDWlin4:
00000126 200ea500        336 	movea	165,zero,r1
0000012a 80070f089882    337 	st.w	r1,4290857984[zero]
00000130 80070f008a82    338 	st.w	zero,4290856192[zero]
00000136 1f0a            339 	mov	-1,r1
00000138 80070f088a82    340 	st.w	r1,4290856192[zero]
0000013e 80070f008a82    341 	st.w	zero,4290856192[zero]
                         342 .L7:
00000144 800709088a82    343 	ld.w	4290856192[zero],r1
0000014a e009            344 	cmp	zero,r1
0000014c 8aed*           345 	bne	.L9
0000014e 80077a0b*       346 	br	.L2
                         347 .L17:
                         348 --242: 			}
                         349 --243: 			break;

                                                                      Page 7
                                                              C:\Users\TIEZHU~1\AppData\Local\Temp\gh_00006hc1.si
                         350 --245: 		case CAN0_RX_P10_0_TX_P10_1:
                         351 --246: 			/* CRX - P10_0 */
                         352 --247: 			CLR_BIT(REG_PFCAE(10U), 0U);
                         353 --line247
                         354 ..lin.D.3A.5CCANFDGwMcuFirmRH850F1x.5Ccode.5CCANFDGwMcuFirmRH850F1x.5CCANFDGwMcuFirmRH850F1x.5Cprj.5CGHS.20MULTI.5CCAN.20Gateway.5Coutput.5Cobj.5Cpe1.5CCan.5::
                         355 .LDWlin5:
00000152 a007870a1482    356 	ld.hu	4290841128[zero],r1
00000158 c10efeff        357 	andi	65534,r1,r1
0000015c a0078d0a1482    358 	st.h	r1,4290841128[zero]
                         359 --248: 			CLR_BIT(REG_PFCE(10U), 0U);
00000162 a007870a0c82    360 	ld.hu	4290840104[zero],r1
00000168 c10efeff        361 	andi	65534,r1,r1
0000016c a0078d0a0c82    362 	st.h	r1,4290840104[zero]
                         363 --249: 			SET_BIT(REG_PFC(10U), 0U);
00000172 a007870a0a82    364 	ld.hu	4290839848[zero],r1
00000178 810e0100        365 	ori	1,r1,r1
0000017c a0078d0a0a82    366 	st.h	r1,4290839848[zero]
                         367 --250: 			CLR_BIT(REG_PIPC(10U), 0U);
00000182 a007870a8482    368 	ld.hu	4290855464[zero],r1
00000188 c10efeff        369 	andi	65534,r1,r1
0000018c a0078d0a8482    370 	st.h	r1,4290855464[zero]
                         371 --251: 			SET_BIT(REG_PMC(10U), 0U);
00000192 a007870a0882    372 	ld.hu	4290839592[zero],r1
00000198 810e0100        373 	ori	1,r1,r1
0000019c a0078d0a0882    374 	st.h	r1,4290839592[zero]
                         375 --252: 			SET_BIT(REG_PM(10U), 0U);
000001a2 a007870a0682    376 	ld.hu	4290839336[zero],r1
000001a8 810e0100        377 	ori	1,r1,r1
000001ac a0078d0a0682    378 	st.h	r1,4290839336[zero]
                         379 --253: 			/* CTX - P10_1 */
                         380 --254: 			CLR_BIT(REG_PFCAE(10U), 1U);
000001b2 a007870a1482    381 	ld.hu	4290841128[zero],r1
000001b8 c10efdff        382 	andi	65533,r1,r1
000001bc a0078d0a1482    383 	st.h	r1,4290841128[zero]
                         384 --255: 			CLR_BIT(REG_PFCE(10U), 1U);
000001c2 a007870a0c82    385 	ld.hu	4290840104[zero],r1
000001c8 c10efdff        386 	andi	65533,r1,r1
000001cc a0078d0a0c82    387 	st.h	r1,4290840104[zero]
                         388 --256: 			SET_BIT(REG_PFC(10U), 1U);
000001d2 a007870a0a82    389 	ld.hu	4290839848[zero],r1
000001d8 810e0200        390 	ori	2,r1,r1
000001dc a0078d0a0a82    391 	st.h	r1,4290839848[zero]
                         392 --257: 			CLR_BIT(REG_PIPC(10U), 1U);
000001e2 a007870a8482    393 	ld.hu	4290855464[zero],r1
000001e8 c10efdff        394 	andi	65533,r1,r1
000001ec a0078d0a8482    395 	st.h	r1,4290855464[zero]
                         396 --258: 			SET_BIT(REG_PMC(10U), 1U);
000001f2 a007870a0882    397 	ld.hu	4290839592[zero],r1
000001f8 810e0200        398 	ori	2,r1,r1
000001fc a0078d0a0882    399 	st.h	r1,4290839592[zero]
                         400 --259: 			CLR_BIT(REG_PM(10U), 1U);
00000202 a007870a0682    401 	ld.hu	4290839336[zero],r1
00000208 c10efdff        402 	andi	65533,r1,r1
0000020c a0078d0a0682    403 	st.h	r1,4290839336[zero]
00000212 8007b60a*       404 	br	.L2
                         405 .L18:
                         406 --260: 			break;
                         407 --262: 			/* ---- RS-CAN 1 port setting ---- */
                         408 --263: 		case CAN1_RX_P0_2_TX_P0_3:
                         409 --264: 			/* CRX - P0_2 */
                         410 --265: 			CLR_BIT(REG_PFCAE(0U), 2U);

                                                                      Page 8
                                                              C:\Users\TIEZHU~1\AppData\Local\Temp\gh_00006hc1.si
                         411 --line265
                         412 ..lin.D.3A.5CCANFDGwMcuFirmRH850F1x.5Ccode.5CCANFDGwMcuFirmRH850F1x.5CCANFDGwMcuFirmRH850F1x.5Cprj.5CGHS.20MULTI.5CCAN.20Gateway.5Coutput.5Cobj.5Cpe1.5CCan.6::
                         413 .LDWlin6:
00000216 a00707081482    414 	ld.hu	4290841088[zero],r1
0000021c c10efbff        415 	andi	65531,r1,r1
00000220 a0070d081482    416 	st.h	r1,4290841088[zero]
                         417 --266: 			CLR_BIT(REG_PFCE(0U), 2U);
00000226 a00707080c82    418 	ld.hu	4290840064[zero],r1
0000022c c10efbff        419 	andi	65531,r1,r1
00000230 a0070d080c82    420 	st.h	r1,4290840064[zero]
                         421 --267: 			SET_BIT(REG_PFC(0U), 2U);
00000236 a00707080a82    422 	ld.hu	4290839808[zero],r1
0000023c 810e0400        423 	ori	4,r1,r1
00000240 a0070d080a82    424 	st.h	r1,4290839808[zero]
                         425 --268: 			CLR_BIT(REG_PIPC(0U), 2U);
00000246 a00707088482    426 	ld.hu	4290855424[zero],r1
0000024c c10efbff        427 	andi	65531,r1,r1
00000250 a0070d088482    428 	st.h	r1,4290855424[zero]
                         429 --269: 			SET_BIT(REG_PMC(0U), 2U);
00000256 a00707080882    430 	ld.hu	4290839552[zero],r1
0000025c 810e0400        431 	ori	4,r1,r1
00000260 a0070d080882    432 	st.h	r1,4290839552[zero]
                         433 --270: 			SET_BIT(REG_PM(0U), 2U);
00000266 a00707080682    434 	ld.hu	4290839296[zero],r1
0000026c 810e0400        435 	ori	4,r1,r1
00000270 a0070d080682    436 	st.h	r1,4290839296[zero]
                         437 --271: 			/* CTX - P0_3 */
                         438 --272: 			CLR_BIT(REG_PFCAE(0U), 3U);
00000276 a00707081482    439 	ld.hu	4290841088[zero],r1
0000027c c10ef7ff        440 	andi	65527,r1,r1
00000280 a0070d081482    441 	st.h	r1,4290841088[zero]
                         442 --273: 			CLR_BIT(REG_PFCE(0U), 3U);
00000286 a00707080c82    443 	ld.hu	4290840064[zero],r1
0000028c c10ef7ff        444 	andi	65527,r1,r1
00000290 a0070d080c82    445 	st.h	r1,4290840064[zero]
                         446 --274: 			SET_BIT(REG_PFC(0U), 3U);
00000296 a00707080a82    447 	ld.hu	4290839808[zero],r1
0000029c 810e0800        448 	ori	8,r1,r1
000002a0 a0070d080a82    449 	st.h	r1,4290839808[zero]
                         450 --275: 			CLR_BIT(REG_PIPC(0U), 3U);
000002a6 a00707088482    451 	ld.hu	4290855424[zero],r1
000002ac c10ef7ff        452 	andi	65527,r1,r1
000002b0 a0070d088482    453 	st.h	r1,4290855424[zero]
                         454 --276: 			SET_BIT(REG_PMC(0U), 3U);
000002b6 a00707080882    455 	ld.hu	4290839552[zero],r1
000002bc 810e0800        456 	ori	8,r1,r1
000002c0 a0070d080882    457 	st.h	r1,4290839552[zero]
                         458 --277: 			CLR_BIT(REG_PM(0U), 3U);
000002c6 a00707080682    459 	ld.hu	4290839296[zero],r1
000002cc c10ef7ff        460 	andi	65527,r1,r1
000002d0 a0070d080682    461 	st.h	r1,4290839296[zero]
000002d6 8007f209*       462 	br	.L2
                         463 .L19:
                         464 --278: 			break;
                         465 --280: 		case CAN1_RX_P10_6_TX_P10_7:
                         466 --281: 			/* CRX - P10_6 */
                         467 --282: 			CLR_BIT(REG_PFCAE(10U), 6U);
                         468 --line282
                         469 ..lin.D.3A.5CCANFDGwMcuFirmRH850F1x.5Ccode.5CCANFDGwMcuFirmRH850F1x.5CCANFDGwMcuFirmRH850F1x.5Cprj.5CGHS.20MULTI.5CCAN.20Gateway.5Coutput.5Cobj.5Cpe1.5CCan.7::
                         470 .LDWlin7:
000002da a007870a1482    471 	ld.hu	4290841128[zero],r1

                                                                      Page 9
                                                              C:\Users\TIEZHU~1\AppData\Local\Temp\gh_00006hc1.si
000002e0 c10ebfff        472 	andi	65471,r1,r1
000002e4 a0078d0a1482    473 	st.h	r1,4290841128[zero]
                         474 --283: 			SET_BIT(REG_PFCE(10U), 6U);
000002ea a007870a0c82    475 	ld.hu	4290840104[zero],r1
000002f0 810e4000        476 	ori	64,r1,r1
000002f4 a0078d0a0c82    477 	st.h	r1,4290840104[zero]
                         478 --284: 			SET_BIT(REG_PFC(10U), 6U);
000002fa a007870a0a82    479 	ld.hu	4290839848[zero],r1
00000300 810e4000        480 	ori	64,r1,r1
00000304 a0078d0a0a82    481 	st.h	r1,4290839848[zero]
                         482 --285: 			CLR_BIT(REG_PIPC(10U), 6U);
0000030a a007870a8482    483 	ld.hu	4290855464[zero],r1
00000310 c10ebfff        484 	andi	65471,r1,r1
00000314 a0078d0a8482    485 	st.h	r1,4290855464[zero]
                         486 --286: 			SET_BIT(REG_PMC(10U), 6U);
0000031a a007870a0882    487 	ld.hu	4290839592[zero],r1
00000320 810e4000        488 	ori	64,r1,r1
00000324 a0078d0a0882    489 	st.h	r1,4290839592[zero]
                         490 --287: 			SET_BIT(REG_PM(10U), 6U);
0000032a a007870a0682    491 	ld.hu	4290839336[zero],r1
00000330 810e4000        492 	ori	64,r1,r1
00000334 a0078d0a0682    493 	st.h	r1,4290839336[zero]
                         494 --288: 			/* CTX - P10_7 */
                         495 --289: 			CLR_BIT(REG_PFCAE(10U), 7U);
0000033a a007870a1482    496 	ld.hu	4290841128[zero],r1
00000340 c10e7fff        497 	andi	65407,r1,r1
00000344 a0078d0a1482    498 	st.h	r1,4290841128[zero]
                         499 --290: 			SET_BIT(REG_PFCE(10U), 7U);
0000034a a007870a0c82    500 	ld.hu	4290840104[zero],r1
00000350 810e8000        501 	ori	128,r1,r1
00000354 a0078d0a0c82    502 	st.h	r1,4290840104[zero]
                         503 --291: 			SET_BIT(REG_PFC(10U), 7U);
0000035a a007870a0a82    504 	ld.hu	4290839848[zero],r1
00000360 810e8000        505 	ori	128,r1,r1
00000364 a0078d0a0a82    506 	st.h	r1,4290839848[zero]
                         507 --292: 			CLR_BIT(REG_PIPC(10U), 7U);
0000036a a007870a8482    508 	ld.hu	4290855464[zero],r1
00000370 c10e7fff        509 	andi	65407,r1,r1
00000374 a0078d0a8482    510 	st.h	r1,4290855464[zero]
                         511 --293: 			SET_BIT(REG_PMC(10U), 7U);
0000037a a007870a0882    512 	ld.hu	4290839592[zero],r1
00000380 810e8000        513 	ori	128,r1,r1
00000384 a0078d0a0882    514 	st.h	r1,4290839592[zero]
                         515 --294: 			CLR_BIT(REG_PM(10U), 7U);
0000038a a007870a0682    516 	ld.hu	4290839336[zero],r1
00000390 c10e7fff        517 	andi	65407,r1,r1
00000394 a0078d0a0682    518 	st.h	r1,4290839336[zero]
0000039a 80072e09*       519 	br	.L2
                         520 .L20:
                         521 --295: 			break;
                         522 --297: 			/* ---- RS-CAN 2 port setting ---- */
                         523 --298: 		case CAN2_RX_P0_5_TX_P0_4:
                         524 --299: 			/* CRX - P0_5 */
                         525 --300: 			CLR_BIT(REG_PFCAE(0U), 5U);
                         526 --line300
                         527 ..lin.D.3A.5CCANFDGwMcuFirmRH850F1x.5Ccode.5CCANFDGwMcuFirmRH850F1x.5CCANFDGwMcuFirmRH850F1x.5Cprj.5CGHS.20MULTI.5CCAN.20Gateway.5Coutput.5Cobj.5Cpe1.5CCan.8::
                         528 .LDWlin8:
0000039e a00707081482    529 	ld.hu	4290841088[zero],r1
000003a4 c10edfff        530 	andi	65503,r1,r1
000003a8 a0070d081482    531 	st.h	r1,4290841088[zero]
                         532 --301: 			CLR_BIT(REG_PFCE(0U), 5U);

                                                                      Page 10
                                                              C:\Users\TIEZHU~1\AppData\Local\Temp\gh_00006hc1.si
000003ae a00707080c82    533 	ld.hu	4290840064[zero],r1
000003b4 c10edfff        534 	andi	65503,r1,r1
000003b8 a0070d080c82    535 	st.h	r1,4290840064[zero]
                         536 --302: 			CLR_BIT(REG_PFC(0U), 5U);
000003be a00707080a82    537 	ld.hu	4290839808[zero],r1
000003c4 c10edfff        538 	andi	65503,r1,r1
000003c8 a0070d080a82    539 	st.h	r1,4290839808[zero]
                         540 --303: 			CLR_BIT(REG_PIPC(0U), 5U);
000003ce a00707088482    541 	ld.hu	4290855424[zero],r1
000003d4 c10edfff        542 	andi	65503,r1,r1
000003d8 a0070d088482    543 	st.h	r1,4290855424[zero]
                         544 --304: 			SET_BIT(REG_PMC(0U), 5U);
000003de a00707080882    545 	ld.hu	4290839552[zero],r1
000003e4 810e2000        546 	ori	32,r1,r1
000003e8 a0070d080882    547 	st.h	r1,4290839552[zero]
                         548 --305: 			SET_BIT(REG_PM(0U), 5U);
000003ee a00707080682    549 	ld.hu	4290839296[zero],r1
000003f4 810e2000        550 	ori	32,r1,r1
000003f8 a0070d080682    551 	st.h	r1,4290839296[zero]
                         552 --306: 			/* CTX - P0_4 */
                         553 --307: 			CLR_BIT(REG_PFCAE(0U), 4U);
000003fe a00707081482    554 	ld.hu	4290841088[zero],r1
00000404 c10eefff        555 	andi	65519,r1,r1
00000408 a0070d081482    556 	st.h	r1,4290841088[zero]
                         557 --308: 			CLR_BIT(REG_PFCE(0U), 4U);
0000040e a00707080c82    558 	ld.hu	4290840064[zero],r1
00000414 c10eefff        559 	andi	65519,r1,r1
00000418 a0070d080c82    560 	st.h	r1,4290840064[zero]
                         561 --309: 			CLR_BIT(REG_PFC(0U), 4U);
0000041e a00707080a82    562 	ld.hu	4290839808[zero],r1
00000424 c10eefff        563 	andi	65519,r1,r1
00000428 a0070d080a82    564 	st.h	r1,4290839808[zero]
                         565 --310: 			CLR_BIT(REG_PIPC(0U), 4U);
0000042e a00707088482    566 	ld.hu	4290855424[zero],r1
00000434 c10eefff        567 	andi	65519,r1,r1
00000438 a0070d088482    568 	st.h	r1,4290855424[zero]
                         569 --311: 			SET_BIT(REG_PMC(0U), 4U);
0000043e a00707080882    570 	ld.hu	4290839552[zero],r1
00000444 810e1000        571 	ori	16,r1,r1
00000448 a0070d080882    572 	st.h	r1,4290839552[zero]
                         573 --312: 			CLR_BIT(REG_PM(0U), 4U);
0000044e a00707080682    574 	ld.hu	4290839296[zero],r1
00000454 c10eefff        575 	andi	65519,r1,r1
00000458 a0070d080682    576 	st.h	r1,4290839296[zero]
0000045e 80076a08*       577 	br	.L2
                         578 .L21:
                         579 --313: 			break;
                         580 --315: 		case CAN2_RX_P11_15_TX_P12_0:
                         581 --316: 			/* CRX - P11_15 */
                         582 --317: 			CLR_BIT(REG_PFCAE(11U), 15U);
                         583 --line317
                         584 ..lin.D.3A.5CCANFDGwMcuFirmRH850F1x.5Ccode.5CCANFDGwMcuFirmRH850F1x.5CCANFDGwMcuFirmRH850F1x.5Cprj.5CGHS.20MULTI.5CCAN.20Gateway.5Coutput.5Cobj.5Cpe1.5CCan.9::
                         585 .LDWlin9:
00000462 a007c70a1482    586 	ld.hu	4290841132[zero],r1
00000468 c10eff7f        587 	andi	32767,r1,r1
0000046c a007cd0a1482    588 	st.h	r1,4290841132[zero]
                         589 --318: 			CLR_BIT(REG_PFCE(11U), 15U);
00000472 a007c70a0c82    590 	ld.hu	4290840108[zero],r1
00000478 c10eff7f        591 	andi	32767,r1,r1
0000047c a007cd0a0c82    592 	st.h	r1,4290840108[zero]
                         593 --319: 			CLR_BIT(REG_PFC(11U), 15U);

                                                                      Page 11
                                                              C:\Users\TIEZHU~1\AppData\Local\Temp\gh_00006hc1.si
00000482 a007c70a0a82    594 	ld.hu	4290839852[zero],r1
00000488 c10eff7f        595 	andi	32767,r1,r1
0000048c a007cd0a0a82    596 	st.h	r1,4290839852[zero]
                         597 --320: 			CLR_BIT(REG_PIPC(11U), 15U);
00000492 a007c70a8482    598 	ld.hu	4290855468[zero],r1
00000498 c10eff7f        599 	andi	32767,r1,r1
0000049c a007cd0a8482    600 	st.h	r1,4290855468[zero]
                         601 --321: 			SET_BIT(REG_PMC(11U), 15U);
000004a2 a007c70a0882    602 	ld.hu	4290839596[zero],r1
000004a8 810e0080        603 	ori	32768,r1,r1
000004ac a007cd0a0882    604 	st.h	r1,4290839596[zero]
                         605 --322: 			SET_BIT(REG_PM(11U), 15U);
000004b2 a007c70a0682    606 	ld.hu	4290839340[zero],r1
000004b8 810e0080        607 	ori	32768,r1,r1
000004bc a007cd0a0682    608 	st.h	r1,4290839340[zero]
                         609 --323: 			/* CTX - P12_0 */
                         610 --324: 			CLR_BIT(REG_PFCAE(12U), 0U);
000004c2 a007070b1482    611 	ld.hu	4290841136[zero],r1
000004c8 c10efeff        612 	andi	65534,r1,r1
000004cc a0070d0b1482    613 	st.h	r1,4290841136[zero]
                         614 --325: 			CLR_BIT(REG_PFCE(12U), 0U);
000004d2 a007070b0c82    615 	ld.hu	4290840112[zero],r1
000004d8 c10efeff        616 	andi	65534,r1,r1
000004dc a0070d0b0c82    617 	st.h	r1,4290840112[zero]
                         618 --326: 			CLR_BIT(REG_PFC(12U), 0U);
000004e2 a007070b0a82    619 	ld.hu	4290839856[zero],r1
000004e8 c10efeff        620 	andi	65534,r1,r1
000004ec a0070d0b0a82    621 	st.h	r1,4290839856[zero]
                         622 --327: 			CLR_BIT(REG_PIPC(12U), 0U);
000004f2 a007070b8482    623 	ld.hu	4290855472[zero],r1
000004f8 c10efeff        624 	andi	65534,r1,r1
000004fc a0070d0b8482    625 	st.h	r1,4290855472[zero]
                         626 --328: 			SET_BIT(REG_PMC(12U), 0U);
00000502 a007070b0882    627 	ld.hu	4290839600[zero],r1
00000508 810e0100        628 	ori	1,r1,r1
0000050c a0070d0b0882    629 	st.h	r1,4290839600[zero]
                         630 --329: 			SET_BIT(REG_PM(12U), 0U);
00000512 a007070b0682    631 	ld.hu	4290839344[zero],r1
00000518 810e0100        632 	ori	1,r1,r1
0000051c a0070d0b0682    633 	st.h	r1,4290839344[zero]
00000522 8007a607*       634 	br	.L2
                         635 .L22:
                         636 --330: 			break;
                         637 --332: 			/* ---- RS-CAN 3 port setting ---- */
                         638 --333: 		case CAN3_RX_P1_2_TX_P1_3:
                         639 --334: 			/* CRX - P1_2 */
                         640 --335: 			CLR_BIT(REG_PFCAE(1U), 2U);
                         641 --line335
                         642 ..lin.D.3A.5CCANFDGwMcuFirmRH850F1x.5Ccode.5CCANFDGwMcuFirmRH850F1x.5CCANFDGwMcuFirmRH850F1x.5Cprj.5CGHS.20MULTI.5CCAN.20Gateway.5Coutput.5Cobj.5Cpe1.5CCan.10::
                         643 .LDWlin10:
00000526 a00747081482    644 	ld.hu	4290841092[zero],r1
0000052c c10efbff        645 	andi	65531,r1,r1
00000530 a0074d081482    646 	st.h	r1,4290841092[zero]
                         647 --336: 			CLR_BIT(REG_PFCE(1U), 2U);
00000536 a00747080c82    648 	ld.hu	4290840068[zero],r1
0000053c c10efbff        649 	andi	65531,r1,r1
00000540 a0074d080c82    650 	st.h	r1,4290840068[zero]
                         651 --337: 			CLR_BIT(REG_PFC(1U), 2U);
00000546 a00747080a82    652 	ld.hu	4290839812[zero],r1
0000054c c10efbff        653 	andi	65531,r1,r1
00000550 a0074d080a82    654 	st.h	r1,4290839812[zero]

                                                                      Page 12
                                                              C:\Users\TIEZHU~1\AppData\Local\Temp\gh_00006hc1.si
                         655 --338: 			CLR_BIT(REG_PIPC(1U), 2U);
00000556 a00747088482    656 	ld.hu	4290855428[zero],r1
0000055c c10efbff        657 	andi	65531,r1,r1
00000560 a0074d088482    658 	st.h	r1,4290855428[zero]
                         659 --339: 			SET_BIT(REG_PMC(1U), 2U);
00000566 a00747080882    660 	ld.hu	4290839556[zero],r1
0000056c 810e0400        661 	ori	4,r1,r1
00000570 a0074d080882    662 	st.h	r1,4290839556[zero]
                         663 --340: 			SET_BIT(REG_PM(1U), 2U);
00000576 a00747080682    664 	ld.hu	4290839300[zero],r1
0000057c 810e0400        665 	ori	4,r1,r1
00000580 a0074d080682    666 	st.h	r1,4290839300[zero]
                         667 --341: 			/* CTX - P1_3 */
                         668 --342: 			CLR_BIT(REG_PFCAE(1U), 3U);
00000586 a00747081482    669 	ld.hu	4290841092[zero],r1
0000058c c10ef7ff        670 	andi	65527,r1,r1
00000590 a0074d081482    671 	st.h	r1,4290841092[zero]
                         672 --343: 			CLR_BIT(REG_PFCE(1U), 3U);
00000596 a00747080c82    673 	ld.hu	4290840068[zero],r1
0000059c c10ef7ff        674 	andi	65527,r1,r1
000005a0 a0074d080c82    675 	st.h	r1,4290840068[zero]
                         676 --344: 			CLR_BIT(REG_PFC(1U), 3U);
000005a6 a00747080a82    677 	ld.hu	4290839812[zero],r1
000005ac c10ef7ff        678 	andi	65527,r1,r1
000005b0 a0074d080a82    679 	st.h	r1,4290839812[zero]
                         680 --345: 			CLR_BIT(REG_PIPC(1U), 3U);
000005b6 a00747088482    681 	ld.hu	4290855428[zero],r1
000005bc c10ef7ff        682 	andi	65527,r1,r1
000005c0 a0074d088482    683 	st.h	r1,4290855428[zero]
                         684 --346: 			SET_BIT(REG_PMC(1U), 3U);
000005c6 a00747080882    685 	ld.hu	4290839556[zero],r1
000005cc 810e0800        686 	ori	8,r1,r1
000005d0 a0074d080882    687 	st.h	r1,4290839556[zero]
                         688 --347: 			CLR_BIT(REG_PM(1U), 3U);
000005d6 a00747080682    689 	ld.hu	4290839300[zero],r1
000005dc c10ef7ff        690 	andi	65527,r1,r1
000005e0 a0074d080682    691 	st.h	r1,4290839300[zero]
000005e6 8007e206*       692 	br	.L2
                         693 .L23:
                         694 --348: 			break;
                         695 --350: 		case CAN3_RX_P0_7_TX_P0_8:
                         696 --351: 			/* CRX - P0_7 */
                         697 --352: 			SET_BIT(REG_PFCAE(0U), 7U);
                         698 --line352
                         699 ..lin.D.3A.5CCANFDGwMcuFirmRH850F1x.5Ccode.5CCANFDGwMcuFirmRH850F1x.5CCANFDGwMcuFirmRH850F1x.5Cprj.5CGHS.20MULTI.5CCAN.20Gateway.5Coutput.5Cobj.5Cpe1.5CCan.11::
                         700 .LDWlin11:
000005ea a00707081482    701 	ld.hu	4290841088[zero],r1
000005f0 810e8000        702 	ori	128,r1,r1
000005f4 a0070d081482    703 	st.h	r1,4290841088[zero]
                         704 --353: 			CLR_BIT(REG_PFCE(0U), 7U);
000005fa a00707080c82    705 	ld.hu	4290840064[zero],r1
00000600 c10e7fff        706 	andi	65407,r1,r1
00000604 a0070d080c82    707 	st.h	r1,4290840064[zero]
                         708 --354: 			CLR_BIT(REG_PFC(0U), 7U);
0000060a a00707080a82    709 	ld.hu	4290839808[zero],r1
00000610 c10e7fff        710 	andi	65407,r1,r1
00000614 a0070d080a82    711 	st.h	r1,4290839808[zero]
                         712 --355: 			CLR_BIT(REG_PIPC(0U), 7U);
0000061a a00707088482    713 	ld.hu	4290855424[zero],r1
00000620 c10e7fff        714 	andi	65407,r1,r1
00000624 a0070d088482    715 	st.h	r1,4290855424[zero]

                                                                      Page 13
                                                              C:\Users\TIEZHU~1\AppData\Local\Temp\gh_00006hc1.si
                         716 --356: 			SET_BIT(REG_PMC(0U), 7U);
0000062a a00707080882    717 	ld.hu	4290839552[zero],r1
00000630 810e8000        718 	ori	128,r1,r1
00000634 a0070d080882    719 	st.h	r1,4290839552[zero]
                         720 --357: 			SET_BIT(REG_PM(0U), 7U);
0000063a a00707080682    721 	ld.hu	4290839296[zero],r1
00000640 810e8000        722 	ori	128,r1,r1
00000644 a0070d080682    723 	st.h	r1,4290839296[zero]
                         724 --358: 			/* CTX - P0_8 */
                         725 --359: 			SET_BIT(REG_PFCAE(0U), 8U);
0000064a a00707081482    726 	ld.hu	4290841088[zero],r1
00000650 810e0001        727 	ori	256,r1,r1
00000654 a0070d081482    728 	st.h	r1,4290841088[zero]
                         729 --360: 			CLR_BIT(REG_PFCE(0U), 8U);
0000065a a00707080c82    730 	ld.hu	4290840064[zero],r1
00000660 c10efffe        731 	andi	65279,r1,r1
00000664 a0070d080c82    732 	st.h	r1,4290840064[zero]
                         733 --361: 			CLR_BIT(REG_PFC(0U), 8U);
0000066a a00707080a82    734 	ld.hu	4290839808[zero],r1
00000670 c10efffe        735 	andi	65279,r1,r1
00000674 a0070d080a82    736 	st.h	r1,4290839808[zero]
                         737 --362: 			CLR_BIT(REG_PIPC(0U), 8U);
0000067a a00707088482    738 	ld.hu	4290855424[zero],r1
00000680 c10efffe        739 	andi	65279,r1,r1
00000684 a0070d088482    740 	st.h	r1,4290855424[zero]
                         741 --363: 			SET_BIT(REG_PMC(0U), 8U);
0000068a a00707080882    742 	ld.hu	4290839552[zero],r1
00000690 810e0001        743 	ori	256,r1,r1
00000694 a0070d080882    744 	st.h	r1,4290839552[zero]
                         745 --364: 			CLR_BIT(REG_PM(0U), 8U);
0000069a a00707080682    746 	ld.hu	4290839296[zero],r1
000006a0 c10efffe        747 	andi	65279,r1,r1
000006a4 a0070d080682    748 	st.h	r1,4290839296[zero]
000006aa 80071e06*       749 	br	.L2
                         750 .L24:
                         751 --365: 			break;
                         752 --367: 		case CAN3_RX_P11_3_TX_P11_4:
                         753 --368: 			/* CRX - P11_3 */
                         754 --369: 			CLR_BIT(REG_PFCAE(11U), 3U);
                         755 --line369
                         756 ..lin.D.3A.5CCANFDGwMcuFirmRH850F1x.5Ccode.5CCANFDGwMcuFirmRH850F1x.5CCANFDGwMcuFirmRH850F1x.5Cprj.5CGHS.20MULTI.5CCAN.20Gateway.5Coutput.5Cobj.5Cpe1.5CCan.12::
                         757 .LDWlin12:
000006ae a007c70a1482    758 	ld.hu	4290841132[zero],r1
000006b4 c10ef7ff        759 	andi	65527,r1,r1
000006b8 a007cd0a1482    760 	st.h	r1,4290841132[zero]
                         761 --370: 			CLR_BIT(REG_PFCE(11U), 3U);
000006be a007c70a0c82    762 	ld.hu	4290840108[zero],r1
000006c4 c10ef7ff        763 	andi	65527,r1,r1
000006c8 a007cd0a0c82    764 	st.h	r1,4290840108[zero]
                         765 --371: 			SET_BIT(REG_PFC(11U), 3U);
000006ce a007c70a0a82    766 	ld.hu	4290839852[zero],r1
000006d4 810e0800        767 	ori	8,r1,r1
000006d8 a007cd0a0a82    768 	st.h	r1,4290839852[zero]
                         769 --372: 			CLR_BIT(REG_PIPC(11U), 3U);
000006de a007c70a8482    770 	ld.hu	4290855468[zero],r1
000006e4 c10ef7ff        771 	andi	65527,r1,r1
000006e8 a007cd0a8482    772 	st.h	r1,4290855468[zero]
                         773 --373: 			SET_BIT(REG_PMC(11U), 3U);
000006ee a007c70a0882    774 	ld.hu	4290839596[zero],r1
000006f4 810e0800        775 	ori	8,r1,r1
000006f8 a007cd0a0882    776 	st.h	r1,4290839596[zero]

                                                                      Page 14
                                                              C:\Users\TIEZHU~1\AppData\Local\Temp\gh_00006hc1.si
                         777 --374: 			SET_BIT(REG_PM(11U), 3U);
000006fe a007c70a0682    778 	ld.hu	4290839340[zero],r1
00000704 810e0800        779 	ori	8,r1,r1
00000708 a007cd0a0682    780 	st.h	r1,4290839340[zero]
                         781 --375: 			/* CTX - P11_4 */
                         782 --376: 			CLR_BIT(REG_PFCAE(11U), 4U);
0000070e a007c70a1482    783 	ld.hu	4290841132[zero],r1
00000714 c10eefff        784 	andi	65519,r1,r1
00000718 a007cd0a1482    785 	st.h	r1,4290841132[zero]
                         786 --377: 			CLR_BIT(REG_PFCE(11U), 4U);
0000071e a007c70a0c82    787 	ld.hu	4290840108[zero],r1
00000724 c10eefff        788 	andi	65519,r1,r1
00000728 a007cd0a0c82    789 	st.h	r1,4290840108[zero]
                         790 --378: 			CLR_BIT(REG_PFC(11U), 4U);
0000072e a007c70a0a82    791 	ld.hu	4290839852[zero],r1
00000734 c10eefff        792 	andi	65519,r1,r1
00000738 a007cd0a0a82    793 	st.h	r1,4290839852[zero]
                         794 --379: 			CLR_BIT(REG_PIPC(11U), 4U);
0000073e a007c70a8482    795 	ld.hu	4290855468[zero],r1
00000744 c10eefff        796 	andi	65519,r1,r1
00000748 a007cd0a8482    797 	st.h	r1,4290855468[zero]
                         798 --380: 			SET_BIT(REG_PMC(11U), 4U);
0000074e a007c70a0882    799 	ld.hu	4290839596[zero],r1
00000754 810e1000        800 	ori	16,r1,r1
00000758 a007cd0a0882    801 	st.h	r1,4290839596[zero]
                         802 --381: 			CLR_BIT(REG_PM(11U), 4U);
0000075e a007c70a0682    803 	ld.hu	4290839340[zero],r1
00000764 c10eefff        804 	andi	65519,r1,r1
00000768 a007cd0a0682    805 	st.h	r1,4290839340[zero]
0000076e 80075a05*       806 	br	.L2
                         807 .L25:
                         808 --382: 			break;
                         809 --384: 			/* ---- RS-CAN 4 port setting ---- */
                         810 --385: 		case CAN4_RX_P1_12_TX_P1_13:
                         811 --386: 			/* CRX - P1_12 */
                         812 --387: 			CLR_BIT(REG_PFCAE(1U), 12U);
                         813 --line387
                         814 ..lin.D.3A.5CCANFDGwMcuFirmRH850F1x.5Ccode.5CCANFDGwMcuFirmRH850F1x.5CCANFDGwMcuFirmRH850F1x.5Cprj.5CGHS.20MULTI.5CCAN.20Gateway.5Coutput.5Cobj.5Cpe1.5CCan.13::
                         815 .LDWlin13:
00000772 a00747081482    816 	ld.hu	4290841092[zero],r1
00000778 c10effef        817 	andi	61439,r1,r1
0000077c a0074d081482    818 	st.h	r1,4290841092[zero]
                         819 --388: 			CLR_BIT(REG_PFCE(1U), 12U);
00000782 a00747080c82    820 	ld.hu	4290840068[zero],r1
00000788 c10effef        821 	andi	61439,r1,r1
0000078c a0074d080c82    822 	st.h	r1,4290840068[zero]
                         823 --389: 			CLR_BIT(REG_PFC(1U), 12U);
00000792 a00747080a82    824 	ld.hu	4290839812[zero],r1
00000798 c10effef        825 	andi	61439,r1,r1
0000079c a0074d080a82    826 	st.h	r1,4290839812[zero]
                         827 --390: 			CLR_BIT(REG_PIPC(1U), 12U);
000007a2 a00747088482    828 	ld.hu	4290855428[zero],r1
000007a8 c10effef        829 	andi	61439,r1,r1
000007ac a0074d088482    830 	st.h	r1,4290855428[zero]
                         831 --391: 			SET_BIT(REG_PMC(1U), 12U);
000007b2 a00747080882    832 	ld.hu	4290839556[zero],r1
000007b8 810e0010        833 	ori	4096,r1,r1
000007bc a0074d080882    834 	st.h	r1,4290839556[zero]
                         835 --392: 			SET_BIT(REG_PM(1U), 12U);
000007c2 a00747080682    836 	ld.hu	4290839300[zero],r1
000007c8 810e0010        837 	ori	4096,r1,r1

                                                                      Page 15
                                                              C:\Users\TIEZHU~1\AppData\Local\Temp\gh_00006hc1.si
000007cc a0074d080682    838 	st.h	r1,4290839300[zero]
                         839 --393: 			/* CTX - P1_13 */
                         840 --394: 			CLR_BIT(REG_PFCAE(1U), 13U);
000007d2 a00747081482    841 	ld.hu	4290841092[zero],r1
000007d8 c10effdf        842 	andi	57343,r1,r1
000007dc a0074d081482    843 	st.h	r1,4290841092[zero]
                         844 --395: 			CLR_BIT(REG_PFCE(1U), 13U);
000007e2 a00747080c82    845 	ld.hu	4290840068[zero],r1
000007e8 c10effdf        846 	andi	57343,r1,r1
000007ec a0074d080c82    847 	st.h	r1,4290840068[zero]
                         848 --396: 			CLR_BIT(REG_PFC(1U), 13U);
000007f2 a00747080a82    849 	ld.hu	4290839812[zero],r1
000007f8 c10effdf        850 	andi	57343,r1,r1
000007fc a0074d080a82    851 	st.h	r1,4290839812[zero]
                         852 --397: 			CLR_BIT(REG_PIPC(1U), 13U);
00000802 a00747088482    853 	ld.hu	4290855428[zero],r1
00000808 c10effdf        854 	andi	57343,r1,r1
0000080c a0074d088482    855 	st.h	r1,4290855428[zero]
                         856 --398: 			SET_BIT(REG_PMC(1U), 13U);
00000812 a00747080882    857 	ld.hu	4290839556[zero],r1
00000818 810e0020        858 	ori	8192,r1,r1
0000081c a0074d080882    859 	st.h	r1,4290839556[zero]
                         860 --399: 			CLR_BIT(REG_PM(1U), 13U);
00000822 a00747080682    861 	ld.hu	4290839300[zero],r1
00000828 c10effdf        862 	andi	57343,r1,r1
0000082c a0074d080682    863 	st.h	r1,4290839300[zero]
00000832 80079604*       864 	br	.L2
                         865 .L26:
                         866 --400: 			break;
                         867 --402: 		case CAN4_RX_P0_9_TX_P0_10:
                         868 --403: 			/* CRX - P0_9 */
                         869 --404: 			SET_BIT(REG_PFCAE(0U), 9U);
                         870 --line404
                         871 ..lin.D.3A.5CCANFDGwMcuFirmRH850F1x.5Ccode.5CCANFDGwMcuFirmRH850F1x.5CCANFDGwMcuFirmRH850F1x.5Cprj.5CGHS.20MULTI.5CCAN.20Gateway.5Coutput.5Cobj.5Cpe1.5CCan.14::
                         872 .LDWlin14:
00000836 a00707081482    873 	ld.hu	4290841088[zero],r1
0000083c 810e0002        874 	ori	512,r1,r1
00000840 a0070d081482    875 	st.h	r1,4290841088[zero]
                         876 --405: 			CLR_BIT(REG_PFCE(0U), 9U);
00000846 a00707080c82    877 	ld.hu	4290840064[zero],r1
0000084c c10efffd        878 	andi	65023,r1,r1
00000850 a0070d080c82    879 	st.h	r1,4290840064[zero]
                         880 --406: 			CLR_BIT(REG_PFC(0U), 9U);
00000856 a00707080a82    881 	ld.hu	4290839808[zero],r1
0000085c c10efffd        882 	andi	65023,r1,r1
00000860 a0070d080a82    883 	st.h	r1,4290839808[zero]
                         884 --407: 			CLR_BIT(REG_PIPC(0U), 9U);
00000866 a00707088482    885 	ld.hu	4290855424[zero],r1
0000086c c10efffd        886 	andi	65023,r1,r1
00000870 a0070d088482    887 	st.h	r1,4290855424[zero]
                         888 --408: 			SET_BIT(REG_PMC(0U), 9U);
00000876 a00707080882    889 	ld.hu	4290839552[zero],r1
0000087c 810e0002        890 	ori	512,r1,r1
00000880 a0070d080882    891 	st.h	r1,4290839552[zero]
                         892 --409: 			SET_BIT(REG_PM(0U), 9U);
00000886 a00707080682    893 	ld.hu	4290839296[zero],r1
0000088c 810e0002        894 	ori	512,r1,r1
00000890 a0070d080682    895 	st.h	r1,4290839296[zero]
                         896 --410: 			/* CTX - P0_10 */
                         897 --411: 			SET_BIT(REG_PFCAE(0U), 10U);
00000896 a00707081482    898 	ld.hu	4290841088[zero],r1

                                                                      Page 16
                                                              C:\Users\TIEZHU~1\AppData\Local\Temp\gh_00006hc1.si
0000089c 810e0004        899 	ori	1024,r1,r1
000008a0 a0070d081482    900 	st.h	r1,4290841088[zero]
                         901 --412: 			CLR_BIT(REG_PFCE(0U), 10U);
000008a6 a00707080c82    902 	ld.hu	4290840064[zero],r1
000008ac c10efffb        903 	andi	64511,r1,r1
000008b0 a0070d080c82    904 	st.h	r1,4290840064[zero]
                         905 --413: 			CLR_BIT(REG_PFC(0U), 10U);
000008b6 a00707080a82    906 	ld.hu	4290839808[zero],r1
000008bc c10efffb        907 	andi	64511,r1,r1
000008c0 a0070d080a82    908 	st.h	r1,4290839808[zero]
                         909 --414: 			CLR_BIT(REG_PIPC(0U), 10U);
000008c6 a00707088482    910 	ld.hu	4290855424[zero],r1
000008cc c10efffb        911 	andi	64511,r1,r1
000008d0 a0070d088482    912 	st.h	r1,4290855424[zero]
                         913 --415: 			SET_BIT(REG_PMC(0U), 10U);
000008d6 a00707080882    914 	ld.hu	4290839552[zero],r1
000008dc 810e0004        915 	ori	1024,r1,r1
000008e0 a0070d080882    916 	st.h	r1,4290839552[zero]
                         917 --416: 			CLR_BIT(REG_PM(0U), 10U);
000008e6 a00707080682    918 	ld.hu	4290839296[zero],r1
000008ec c10efffb        919 	andi	64511,r1,r1
000008f0 a0070d080682    920 	st.h	r1,4290839296[zero]
000008f6 8007d203*       921 	br	.L2
                         922 .L27:
                         923 --417: 			break;
                         924 --419: 		case CAN4_RX_P20_2_TX_P20_3:
                         925 --420: 			/* CRX - P20_2 */
                         926 --421: 			CLR_BIT(REG_PFCAE(20U), 2U);
                         927 --line421
                         928 ..lin.D.3A.5CCANFDGwMcuFirmRH850F1x.5Ccode.5CCANFDGwMcuFirmRH850F1x.5CCANFDGwMcuFirmRH850F1x.5Cprj.5CGHS.20MULTI.5CCAN.20Gateway.5Coutput.5Cobj.5Cpe1.5CCan.15::
                         929 .LDWlin15:
000008fa a007070d1482    930 	ld.hu	4290841168[zero],r1
00000900 c10efbff        931 	andi	65531,r1,r1
00000904 a0070d0d1482    932 	st.h	r1,4290841168[zero]
                         933 --422: 			CLR_BIT(REG_PFCE(20U), 2U);
0000090a a007070d0c82    934 	ld.hu	4290840144[zero],r1
00000910 c10efbff        935 	andi	65531,r1,r1
00000914 a0070d0d0c82    936 	st.h	r1,4290840144[zero]
                         937 --423: 			CLR_BIT(REG_PFC(20U), 2U);
0000091a a007070d0a82    938 	ld.hu	4290839888[zero],r1
00000920 c10efbff        939 	andi	65531,r1,r1
00000924 a0070d0d0a82    940 	st.h	r1,4290839888[zero]
                         941 --424: 			CLR_BIT(REG_PIPC(20U), 2U);
0000092a a007070d8482    942 	ld.hu	4290855504[zero],r1
00000930 c10efbff        943 	andi	65531,r1,r1
00000934 a0070d0d8482    944 	st.h	r1,4290855504[zero]
                         945 --425: 			SET_BIT(REG_PMC(20U), 2U);
0000093a a007070d0882    946 	ld.hu	4290839632[zero],r1
00000940 810e0400        947 	ori	4,r1,r1
00000944 a0070d0d0882    948 	st.h	r1,4290839632[zero]
                         949 --426: 			SET_BIT(REG_PM(20U), 2U);
0000094a a007070d0682    950 	ld.hu	4290839376[zero],r1
00000950 810e0400        951 	ori	4,r1,r1
00000954 a0070d0d0682    952 	st.h	r1,4290839376[zero]
                         953 --427: 			/* CTX - P20_3 */
                         954 --428: 			CLR_BIT(REG_PFCAE(20U), 3U);
0000095a a007070d1482    955 	ld.hu	4290841168[zero],r1
00000960 c10ef7ff        956 	andi	65527,r1,r1
00000964 a0070d0d1482    957 	st.h	r1,4290841168[zero]
                         958 --429: 			CLR_BIT(REG_PFCE(20U), 3U);
0000096a a007070d0c82    959 	ld.hu	4290840144[zero],r1

                                                                      Page 17
                                                              C:\Users\TIEZHU~1\AppData\Local\Temp\gh_00006hc1.si
00000970 c10ef7ff        960 	andi	65527,r1,r1
00000974 a0070d0d0c82    961 	st.h	r1,4290840144[zero]
                         962 --430: 			CLR_BIT(REG_PFC(20U), 3U);
0000097a a007070d0a82    963 	ld.hu	4290839888[zero],r1
00000980 c10ef7ff        964 	andi	65527,r1,r1
00000984 a0070d0d0a82    965 	st.h	r1,4290839888[zero]
                         966 --431: 			CLR_BIT(REG_PIPC(20U), 3U);
0000098a a007070d8482    967 	ld.hu	4290855504[zero],r1
00000990 c10ef7ff        968 	andi	65527,r1,r1
00000994 a0070d0d8482    969 	st.h	r1,4290855504[zero]
                         970 --432: 			SET_BIT(REG_PMC(20U), 3U);
0000099a a007070d0882    971 	ld.hu	4290839632[zero],r1
000009a0 810e0800        972 	ori	8,r1,r1
000009a4 a0070d0d0882    973 	st.h	r1,4290839632[zero]
                         974 --433: 			CLR_BIT(REG_PM(20U), 3U);
000009aa a007070d0682    975 	ld.hu	4290839376[zero],r1
000009b0 c10ef7ff        976 	andi	65527,r1,r1
000009b4 a0070d0d0682    977 	st.h	r1,4290839376[zero]
000009ba 80070e03*       978 	br	.L2
                         979 .L28:
                         980 --434: 			break;
                         981 --436: 			/* ---- RS-CAN 5 port setting ---- */
                         982 --437: 		case CAN5_RX_P0_13_TX_P0_14:
                         983 --438: 			/* CRX - P0_13 */
                         984 --439: 			SET_BIT(REG_PFCAE(0U), 13U);
                         985 --line439
                         986 ..lin.D.3A.5CCANFDGwMcuFirmRH850F1x.5Ccode.5CCANFDGwMcuFirmRH850F1x.5CCANFDGwMcuFirmRH850F1x.5Cprj.5CGHS.20MULTI.5CCAN.20Gateway.5Coutput.5Cobj.5Cpe1.5CCan.16::
                         987 .LDWlin16:
000009be a00707081482    988 	ld.hu	4290841088[zero],r1
000009c4 810e0020        989 	ori	8192,r1,r1
000009c8 a0070d081482    990 	st.h	r1,4290841088[zero]
                         991 --440: 			CLR_BIT(REG_PFCE(0U), 13U);
000009ce a00707080c82    992 	ld.hu	4290840064[zero],r1
000009d4 c10effdf        993 	andi	57343,r1,r1
000009d8 a0070d080c82    994 	st.h	r1,4290840064[zero]
                         995 --441: 			CLR_BIT(REG_PFC(0U), 13U);
000009de a00707080a82    996 	ld.hu	4290839808[zero],r1
000009e4 c10effdf        997 	andi	57343,r1,r1
000009e8 a0070d080a82    998 	st.h	r1,4290839808[zero]
                         999 --442: 			CLR_BIT(REG_PIPC(0U), 13U);
000009ee a00707088482   1000 	ld.hu	4290855424[zero],r1
000009f4 c10effdf       1001 	andi	57343,r1,r1
000009f8 a0070d088482   1002 	st.h	r1,4290855424[zero]
                        1003 --443: 			SET_BIT(REG_PMC(0U), 13U);
000009fe a00707080882   1004 	ld.hu	4290839552[zero],r1
00000a04 810e0020       1005 	ori	8192,r1,r1
00000a08 a0070d080882   1006 	st.h	r1,4290839552[zero]
                        1007 --444: 			SET_BIT(REG_PM(0U), 13U);
00000a0e a00707080682   1008 	ld.hu	4290839296[zero],r1
00000a14 810e0020       1009 	ori	8192,r1,r1
00000a18 a0070d080682   1010 	st.h	r1,4290839296[zero]
                        1011 --445: 			/* CTX - P0_14 */
                        1012 --446: 			SET_BIT(REG_PFCAE(0U), 14U);
00000a1e a00707081482   1013 	ld.hu	4290841088[zero],r1
00000a24 810e0040       1014 	ori	16384,r1,r1
00000a28 a0070d081482   1015 	st.h	r1,4290841088[zero]
                        1016 --447: 			CLR_BIT(REG_PFCE(0U), 14U);
00000a2e a00707080c82   1017 	ld.hu	4290840064[zero],r1
00000a34 c10effbf       1018 	andi	49151,r1,r1
00000a38 a0070d080c82   1019 	st.h	r1,4290840064[zero]
                        1020 --448: 			CLR_BIT(REG_PFC(0U), 14U);

                                                                      Page 18
                                                              C:\Users\TIEZHU~1\AppData\Local\Temp\gh_00006hc1.si
00000a3e a00707080a82   1021 	ld.hu	4290839808[zero],r1
00000a44 c10effbf       1022 	andi	49151,r1,r1
00000a48 a0070d080a82   1023 	st.h	r1,4290839808[zero]
                        1024 --449: 			CLR_BIT(REG_PIPC(0U), 14U);
00000a4e a00707088482   1025 	ld.hu	4290855424[zero],r1
00000a54 c10effbf       1026 	andi	49151,r1,r1
00000a58 a0070d088482   1027 	st.h	r1,4290855424[zero]
                        1028 --450: 			SET_BIT(REG_PMC(0U), 14U);
00000a5e a00707080882   1029 	ld.hu	4290839552[zero],r1
00000a64 810e0040       1030 	ori	16384,r1,r1
00000a68 a0070d080882   1031 	st.h	r1,4290839552[zero]
                        1032 --451: 			CLR_BIT(REG_PM(0U), 14U);
00000a6e a00707080682   1033 	ld.hu	4290839296[zero],r1
00000a74 c10effbf       1034 	andi	49151,r1,r1
00000a78 a0070d080682   1035 	st.h	r1,4290839296[zero]
00000a7e 80074a02*      1036 	br	.L2
                        1037 .L29:
                        1038 --452: 			break;
                        1039 --454: 		case CAN5_RX_P11_5_TX_P11_6:
                        1040 --455: 			/* CRX - P11_5 */
                        1041 --456: 			CLR_BIT(REG_PFCAE(11U), 5U);
                        1042 --line456
                        1043 ..lin.D.3A.5CCANFDGwMcuFirmRH850F1x.5Ccode.5CCANFDGwMcuFirmRH850F1x.5CCANFDGwMcuFirmRH850F1x.5Cprj.5CGHS.20MULTI.5CCAN.20Gateway.5Coutput.5Cobj.5Cpe1.5CCan.17::
                        1044 .LDWlin17:
00000a82 a007c70a1482   1045 	ld.hu	4290841132[zero],r1
00000a88 c10edfff       1046 	andi	65503,r1,r1
00000a8c a007cd0a1482   1047 	st.h	r1,4290841132[zero]
                        1048 --457: 			CLR_BIT(REG_PFCE(11U), 5U);
00000a92 a007c70a0c82   1049 	ld.hu	4290840108[zero],r1
00000a98 c10edfff       1050 	andi	65503,r1,r1
00000a9c a007cd0a0c82   1051 	st.h	r1,4290840108[zero]
                        1052 --458: 			CLR_BIT(REG_PFC(11U), 5U);
00000aa2 a007c70a0a82   1053 	ld.hu	4290839852[zero],r1
00000aa8 c10edfff       1054 	andi	65503,r1,r1
00000aac a007cd0a0a82   1055 	st.h	r1,4290839852[zero]
                        1056 --459: 			CLR_BIT(REG_PIPC(11U), 5U);
00000ab2 a007c70a8482   1057 	ld.hu	4290855468[zero],r1
00000ab8 c10edfff       1058 	andi	65503,r1,r1
00000abc a007cd0a8482   1059 	st.h	r1,4290855468[zero]
                        1060 --460: 			SET_BIT(REG_PMC(11U), 5U);
00000ac2 a007c70a0882   1061 	ld.hu	4290839596[zero],r1
00000ac8 810e2000       1062 	ori	32,r1,r1
00000acc a007cd0a0882   1063 	st.h	r1,4290839596[zero]
                        1064 --461: 			SET_BIT(REG_PM(11U), 5U);
00000ad2 a007c70a0682   1065 	ld.hu	4290839340[zero],r1
00000ad8 810e2000       1066 	ori	32,r1,r1
00000adc a007cd0a0682   1067 	st.h	r1,4290839340[zero]
                        1068 --462: 			/* CTX - P11_6 */
                        1069 --463: 			CLR_BIT(REG_PFCAE(11U), 6U);
00000ae2 a007c70a1482   1070 	ld.hu	4290841132[zero],r1
00000ae8 c10ebfff       1071 	andi	65471,r1,r1
00000aec a007cd0a1482   1072 	st.h	r1,4290841132[zero]
                        1073 --464: 			CLR_BIT(REG_PFCE(11U), 6U);
00000af2 a007c70a0c82   1074 	ld.hu	4290840108[zero],r1
00000af8 c10ebfff       1075 	andi	65471,r1,r1
00000afc a007cd0a0c82   1076 	st.h	r1,4290840108[zero]
                        1077 --465: 			CLR_BIT(REG_PFC(11U), 6U);
00000b02 a007c70a0a82   1078 	ld.hu	4290839852[zero],r1
00000b08 c10ebfff       1079 	andi	65471,r1,r1
00000b0c a007cd0a0a82   1080 	st.h	r1,4290839852[zero]
                        1081 --466: 			CLR_BIT(REG_PIPC(11U), 6U);

                                                                      Page 19
                                                              C:\Users\TIEZHU~1\AppData\Local\Temp\gh_00006hc1.si
00000b12 a007c70a8482   1082 	ld.hu	4290855468[zero],r1
00000b18 c10ebfff       1083 	andi	65471,r1,r1
00000b1c a007cd0a8482   1084 	st.h	r1,4290855468[zero]
                        1085 --467: 			SET_BIT(REG_PMC(11U), 6U);
00000b22 a007c70a0882   1086 	ld.hu	4290839596[zero],r1
00000b28 810e4000       1087 	ori	64,r1,r1
00000b2c a007cd0a0882   1088 	st.h	r1,4290839596[zero]
                        1089 --468: 			CLR_BIT(REG_PM(11U), 6U);
00000b32 a007c70a0682   1090 	ld.hu	4290839340[zero],r1
00000b38 c10ebfff       1091 	andi	65471,r1,r1
00000b3c a007cd0a0682   1092 	st.h	r1,4290839340[zero]
00000b42 80078601*      1093 	br	.L2
                        1094 .L30:
                        1095 --469: 			break;
                        1096 --471: 			/* ---- RS-CAN 6 port setting ---- */
                        1097 --472: 		case CAN6_RX_P2_0_TX_P2_1:
                        1098 --473: 			/* CRX - P2_0 */
                        1099 --474: 			CLR_BIT(REG_PFCAE(2U), 0U);
                        1100 --line474
                        1101 ..lin.D.3A.5CCANFDGwMcuFirmRH850F1x.5Ccode.5CCANFDGwMcuFirmRH850F1x.5CCANFDGwMcuFirmRH850F1x.5Cprj.5CGHS.20MULTI.5CCAN.20Gateway.5Coutput.5Cobj.5Cpe1.5CCan.18::
                        1102 .LDWlin18:
00000b46 a00787081482   1103 	ld.hu	4290841096[zero],r1
00000b4c c10efeff       1104 	andi	65534,r1,r1
00000b50 a0078d081482   1105 	st.h	r1,4290841096[zero]
                        1106 --475: 			CLR_BIT(REG_PFCE(2U), 0U);
00000b56 a00787080c82   1107 	ld.hu	4290840072[zero],r1
00000b5c c10efeff       1108 	andi	65534,r1,r1
00000b60 a0078d080c82   1109 	st.h	r1,4290840072[zero]
                        1110 --476: 			SET_BIT(REG_PFC(2U), 0U);
00000b66 a00787080a82   1111 	ld.hu	4290839816[zero],r1
00000b6c 810e0100       1112 	ori	1,r1,r1
00000b70 a0078d080a82   1113 	st.h	r1,4290839816[zero]
                        1114 --477: 			CLR_BIT(REG_PIPC(2U), 0U);
00000b76 a00787088482   1115 	ld.hu	4290855432[zero],r1
00000b7c c10efeff       1116 	andi	65534,r1,r1
00000b80 a0078d088482   1117 	st.h	r1,4290855432[zero]
                        1118 --478: 			SET_BIT(REG_PMC(2U), 0U);
00000b86 a00787080882   1119 	ld.hu	4290839560[zero],r1
00000b8c 810e0100       1120 	ori	1,r1,r1
00000b90 a0078d080882   1121 	st.h	r1,4290839560[zero]
                        1122 --479: 			SET_BIT(REG_PM(2U), 0U);
00000b96 a00787080682   1123 	ld.hu	4290839304[zero],r1
00000b9c 810e0100       1124 	ori	1,r1,r1
00000ba0 a0078d080682   1125 	st.h	r1,4290839304[zero]
                        1126 --480: 			/* CTX - P2_1 */
                        1127 --481: 			CLR_BIT(REG_PFCAE(2U), 1U);
00000ba6 a00787081482   1128 	ld.hu	4290841096[zero],r1
00000bac c10efdff       1129 	andi	65533,r1,r1
00000bb0 a0078d081482   1130 	st.h	r1,4290841096[zero]
                        1131 --482: 			CLR_BIT(REG_PFCE(2U), 1U);
00000bb6 a00787080c82   1132 	ld.hu	4290840072[zero],r1
00000bbc c10efdff       1133 	andi	65533,r1,r1
00000bc0 a0078d080c82   1134 	st.h	r1,4290840072[zero]
                        1135 --483: 			SET_BIT(REG_PFC(2U), 1U);
00000bc6 a00787080a82   1136 	ld.hu	4290839816[zero],r1
00000bcc 810e0200       1137 	ori	2,r1,r1
00000bd0 a0078d080a82   1138 	st.h	r1,4290839816[zero]
                        1139 --484: 			CLR_BIT(REG_PIPC(2U), 1U);
00000bd6 a00787088482   1140 	ld.hu	4290855432[zero],r1
00000bdc c10efdff       1141 	andi	65533,r1,r1
00000be0 a0078d088482   1142 	st.h	r1,4290855432[zero]

                                                                      Page 20
                                                              C:\Users\TIEZHU~1\AppData\Local\Temp\gh_00006hc1.si
                        1143 --485: 			SET_BIT(REG_PMC(2U), 1U);
00000be6 a00787080882   1144 	ld.hu	4290839560[zero],r1
00000bec 810e0200       1145 	ori	2,r1,r1
00000bf0 a0078d080882   1146 	st.h	r1,4290839560[zero]
                        1147 --486: 			CLR_BIT(REG_PM(2U), 1U);
00000bf6 a00787080682   1148 	ld.hu	4290839304[zero],r1
00000bfc c10efdff       1149 	andi	65533,r1,r1
00000c00 a0078d080682   1150 	st.h	r1,4290839304[zero]
00000c06 9565*          1151 	br	.L2
                        1152 .L31:
                        1153 --487: 			break;
                        1154 --489: 		case CAN6_RX_P20_0_TX_P20_1:
                        1155 --490: 			/* CRX - P20_0 */
                        1156 --491: 			CLR_BIT(REG_PFCAE(20U), 0U);
                        1157 --line491
                        1158 ..lin.D.3A.5CCANFDGwMcuFirmRH850F1x.5Ccode.5CCANFDGwMcuFirmRH850F1x.5CCANFDGwMcuFirmRH850F1x.5Cprj.5CGHS.20MULTI.5CCAN.20Gateway.5Coutput.5Cobj.5Cpe1.5CCan.19::
                        1159 .LDWlin19:
00000c08 a007070d1482   1160 	ld.hu	4290841168[zero],r1
00000c0e c10efeff       1161 	andi	65534,r1,r1
00000c12 a0070d0d1482   1162 	st.h	r1,4290841168[zero]
                        1163 --492: 			SET_BIT(REG_PFCE(20U), 0U);
00000c18 a007070d0c82   1164 	ld.hu	4290840144[zero],r1
00000c1e 810e0100       1165 	ori	1,r1,r1
00000c22 a0070d0d0c82   1166 	st.h	r1,4290840144[zero]
                        1167 --493: 			CLR_BIT(REG_PFC(20U), 0U);
00000c28 a007070d0a82   1168 	ld.hu	4290839888[zero],r1
00000c2e c10efeff       1169 	andi	65534,r1,r1
00000c32 a0070d0d0a82   1170 	st.h	r1,4290839888[zero]
                        1171 --494: 			CLR_BIT(REG_PIPC(20U), 0U);
00000c38 a007070d8482   1172 	ld.hu	4290855504[zero],r1
00000c3e c10efeff       1173 	andi	65534,r1,r1
00000c42 a0070d0d8482   1174 	st.h	r1,4290855504[zero]
                        1175 --495: 			SET_BIT(REG_PMC(20U), 0U);
00000c48 a007070d0882   1176 	ld.hu	4290839632[zero],r1
00000c4e 810e0100       1177 	ori	1,r1,r1
00000c52 a0070d0d0882   1178 	st.h	r1,4290839632[zero]
                        1179 --496: 			SET_BIT(REG_PM(20U), 0U);
00000c58 a007070d0682   1180 	ld.hu	4290839376[zero],r1
00000c5e 810e0100       1181 	ori	1,r1,r1
00000c62 a0070d0d0682   1182 	st.h	r1,4290839376[zero]
                        1183 --497: 			/* CTX - P20_1 */
                        1184 --498: 			CLR_BIT(REG_PFCAE(20U), 1U);
00000c68 a007070d1482   1185 	ld.hu	4290841168[zero],r1
00000c6e c10efdff       1186 	andi	65533,r1,r1
00000c72 a0070d0d1482   1187 	st.h	r1,4290841168[zero]
                        1188 --499: 			SET_BIT(REG_PFCE(20U), 1U);
00000c78 a007070d0c82   1189 	ld.hu	4290840144[zero],r1
00000c7e 810e0200       1190 	ori	2,r1,r1
00000c82 a0070d0d0c82   1191 	st.h	r1,4290840144[zero]
                        1192 --500: 			CLR_BIT(REG_PFC(20U), 1U);
00000c88 a007070d0a82   1193 	ld.hu	4290839888[zero],r1
00000c8e c10efdff       1194 	andi	65533,r1,r1
00000c92 a0070d0d0a82   1195 	st.h	r1,4290839888[zero]
                        1196 --501: 			CLR_BIT(REG_PIPC(20U), 1U);
00000c98 a007070d8482   1197 	ld.hu	4290855504[zero],r1
00000c9e c10efdff       1198 	andi	65533,r1,r1
00000ca2 a0070d0d8482   1199 	st.h	r1,4290855504[zero]
                        1200 --502: 			SET_BIT(REG_PMC(20U), 1U);
00000ca8 a007070d0882   1201 	ld.hu	4290839632[zero],r1
00000cae 810e0200       1202 	ori	2,r1,r1
00000cb2 a0070d0d0882   1203 	st.h	r1,4290839632[zero]

                                                                      Page 21
                                                              C:\Users\TIEZHU~1\AppData\Local\Temp\gh_00006hc1.si
                        1204 --503: 			CLR_BIT(REG_PM(20U), 1U);
00000cb8 a007070d0682   1205 	ld.hu	4290839376[zero],r1
00000cbe c10efdff       1206 	andi	65533,r1,r1
00000cc2 a0070d0d0682   1207 	st.h	r1,4290839376[zero]
                        1208 .L2:
                        1209 --504: 			break;
                        1210 --505: 		default:
                        1211 --506: 			/* ignore if other settings */
                        1212 --507: 			break;
                        1213 --508: 	}
                        1214 --509: } /* End of function can_set_port() */
                        1215 --	    .ef
                        1216 .LDW11:
00000cc8 23ff0100       1217 	ld.w	0[sp],lp
00000ccc 441a           1218 	add	4,sp
00000cce 7f00           1219 	jmp	[lp]
                        1220 	.type	_can_set_port,@function
                        1221 	.size	_can_set_port,.-_can_set_port
                        1222 	.type	_can_set_port..D.3A.5CCANFDGwMcuFirmRH850F1x.5Ccode.5CCANFDGwMcuFirmRH850F1x.5CCANFDGwMcuFirmRH850F1x.5Cprj.5CGHS.20MULTI.5CCAN.20Gateway.5Coutput.5Cobj.5Cpe1.5CCan.,@function
                        1223 	.size	_can_set_port..D.3A.5CCANFDGwMcuFirmRH850F1x.5Ccode.5CCANFDGwMcuFirmRH850F1x.5CCANFDGwMcuFirmRH850F1x.5Cprj.5CGHS.20MULTI.5CCAN.20Gateway.5Coutput.5Cobj.5Cpe1.5CCan.,.-_can_set_port..D.3A.5CCANFDGwMcuFirmRH850F1x.5Ccode.5CCANFDGwMcuFirmRH850F1x.5CCANFDGwMcuFirmRH850F1x.5Cprj.5CGHS.20MULTI.5CCAN.20Gateway.5Coutput.5Cobj.5Cpe1.5CCan.
                        1224 	.align	2
                        1225 .LDW21:
                        1226 
                        1227 --_PortSetting	r6	param
                        1228 
                        1229 	.section ".bss","awb"
                        1230 	.align	2
                        1231 	.global	_g_can_hoh_pduid_txbuf_tbl..D.3A.5CCANFDGwMcuFirmRH850F1x.5Ccode.5CCANFDGwMcuFirmRH850F1x.5CCANFDGwMcuFirmRH850F1x.5Cprj.5CGHS.20MULTI.5CCAN.20Gateway.5Coutput.5Cobj.5Cpe1.5CCan.
                        1232 _g_can_hoh_pduid_txbuf_tbl..D.3A.5CCANFDGwMcuFirmRH850F1x.5Ccode.5CCANFDGwMcuFirmRH850F1x.5CCANFDGwMcuFirmRH850F1x.5Cprj.5CGHS.20MULTI.5CCAN.20Gateway.5Coutput.5Cobj.5Cpe1.5CCan.:
00000000 000000000000   1233 _g_can_hoh_pduid_txbuf_tbl:	.space	12
00000006 000000000000 
                        1234 	.type	_g_can_hoh_pduid_txbuf_tbl..D.3A.5CCANFDGwMcuFirmRH850F1x.5Ccode.5CCANFDGwMcuFirmRH850F1x.5CCANFDGwMcuFirmRH850F1x.5Cprj.5CGHS.20MULTI.5CCAN.20Gateway.5Coutput.5Cobj.5Cpe1.5CCan.,@object
                        1235 	.size	_g_can_hoh_pduid_txbuf_tbl..D.3A.5CCANFDGwMcuFirmRH850F1x.5Ccode.5CCANFDGwMcuFirmRH850F1x.5CCANFDGwMcuFirmRH850F1x.5Cprj.5CGHS.20MULTI.5CCAN.20Gateway.5Coutput.5Cobj.5Cpe1.5CCan.,12
                        1236 	.type	_g_can_hoh_pduid_txbuf_tbl,@object
                        1237 	.size	_g_can_hoh_pduid_txbuf_tbl,12
                        1238 	.global	_g_can_hoh_pduid_txtbl..D.3A.5CCANFDGwMcuFirmRH850F1x.5Ccode.5CCANFDGwMcuFirmRH850F1x.5CCANFDGwMcuFirmRH850F1x.5Cprj.5CGHS.20MULTI.5CCAN.20Gateway.5Coutput.5Cobj.5Cpe1.5CCan.
                        1239 _g_can_hoh_pduid_txtbl..D.3A.5CCANFDGwMcuFirmRH850F1x.5Ccode.5CCANFDGwMcuFirmRH850F1x.5CCANFDGwMcuFirmRH850F1x.5Cprj.5CGHS.20MULTI.5CCAN.20Gateway.5Coutput.5Cobj.5Cpe1.5CCan.:
0000000c 000000000000   1240 _g_can_hoh_pduid_txtbl:	.space	240
00000012 000000000000 
00000018 000000000000 
0000001e 000000000000 
00000024 000000000000 
0000002a 000000000000 
00000030 000000000000 
00000036 000000000000 
0000003c 000000000000 
00000042 000000000000 
00000048 000000000000 
0000004e 000000000000 
00000054 000000000000 
0000005a 000000000000 
00000060 000000000000 
00000066 000000000000 
0000006c 000000000000 
00000072 000000000000 
00000078 000000000000 
0000007e 000000000000 
00000084 000000000000 
0000008a 000000000000 
00000090 000000000000 
00000096 000000000000 

                                                                      Page 22
                                                              C:\Users\TIEZHU~1\AppData\Local\Temp\gh_00006hc1.si
0000009c 000000000000 
000000a2 000000000000 
000000a8 000000000000 
000000ae 000000000000 
000000b4 000000000000 
000000ba 000000000000 
000000c0 000000000000 
000000c6 000000000000 
000000cc 000000000000 
000000d2 000000000000 
000000d8 000000000000 
000000de 000000000000 
000000e4 000000000000 
000000ea 000000000000 
000000f0 000000000000 
000000f6 000000000000 
                        1241 	.type	_g_can_hoh_pduid_txtbl..D.3A.5CCANFDGwMcuFirmRH850F1x.5Ccode.5CCANFDGwMcuFirmRH850F1x.5CCANFDGwMcuFirmRH850F1x.5Cprj.5CGHS.20MULTI.5CCAN.20Gateway.5Coutput.5Cobj.5Cpe1.5CCan.,@object
                        1242 	.size	_g_can_hoh_pduid_txtbl..D.3A.5CCANFDGwMcuFirmRH850F1x.5Ccode.5CCANFDGwMcuFirmRH850F1x.5CCANFDGwMcuFirmRH850F1x.5Cprj.5CGHS.20MULTI.5CCAN.20Gateway.5Coutput.5Cobj.5Cpe1.5CCan.,240
                        1243 	.type	_g_can_hoh_pduid_txtbl,@object
                        1244 	.size	_g_can_hoh_pduid_txtbl,240
                        1245 	.data
                        1246 	.ghsnote jtable,2097156,.L123,.L123,.L123,16
                        1247 	.text
                        1248 
                        1249 
                        1250 --511: /***********************************************************************************************************************
                        1251 --512:  * Function Name: can_read_rxfifo
                        1252 --513:  * Description  : This function reads new CAN frame from Rx Fifo.
                        1253 --514:  * Arguments    : CanUnit -
                        1254 --515:  *                    Unit of CAN channel
                        1255 --516:  *                RxFifoIdx -
                        1256 --517:  *                    Index of Rx FIFO
                        1257 --518:  * Return Value : none
                        1258 --519:  ***********************************************************************************************************************/
                        1259 --520: static void can_read_rxfifo(uint8_t CanUnit, uint8_t RxFifoIdx)
                        1260 	.align	2
                        1261 	.align	2
                        1262 	.global	_can_read_rxfifo..D.3A.5CCANFDGwMcuFirmRH850F1x.5Ccode.5CCANFDGwMcuFirmRH850F1x.5CCANFDGwMcuFirmRH850F1x.5Cprj.5CGHS.20MULTI.5CCAN.20Gateway.5Coutput.5Cobj.5Cpe1.5CCan.
                        1263 _can_read_rxfifo..D.3A.5CCANFDGwMcuFirmRH850F1x.5Ccode.5CCANFDGwMcuFirmRH850F1x.5CCANFDGwMcuFirmRH850F1x.5Cprj.5CGHS.20MULTI.5CCAN.20Gateway.5Coutput.5Cobj.5Cpe1.5CCan.:
                        1264 _can_read_rxfifo:
00000cd0 031e54ff       1265 	addi	-172,sp,sp
00000cd4 63ffa900       1266 	st.w	lp,168[sp]
00000cd8 8600           1267 	zxb	r6
00000cda 8700           1268 	zxb	r7
                        1269 --	    .bf
                        1270 .LDW31:
                        1271 --521: {
                        1272 --522: 	uint8_t idx;
                        1273 --523: 	RSCFD_Frame rxframe;
                        1274 --524: 	RSCFD_U16 rx_time_stamp;
                        1275 --525: 	RSCFD_U16 rx_frame_label;
                        1276 --526: 	Can_HwType hw_object;
                        1277 --527: 	PduInfoType pdu_info;
                        1278 --528: 	uint8_t sdu_data[64];
                        1279 --529: 	/* ---- Receive from Rx FIFO ---- */
                        1280 --530: 	/* MISRA C:2012 Violation - Rule 1.3 */
                        1281 --531: 	/* Justification - below taking address of near auto variable is unavoidable */
                        1282 --532: 	if (RSCFD_FALSE != RSCFD_ReadRFIFO(CanUnit, RxFifoIdx, &rxframe, &rx_time_stamp, &rx_frame_label))
00000cdc 230e0600       1283 	movea	6,sp,r1
00000ce0 630f0100       1284 	st.w	r1,0[sp]
00000ce4 23465800       1285 	movea	88,sp,r8

                                                                      Page 23
                                                              C:\Users\TIEZHU~1\AppData\Local\Temp\gh_00006hc1.si
00000ce8 234e0400       1286 	movea	4,sp,r9
                        1287 	jarl	_RSCFD_ReadRFIFO,lp
                        1287 <EXPANSION BEGIN>
                        1287 jarl22 _RSCFD_ReadRFIFO , lp 
00000cec 80ff0000*      1287 <EXPANSION END>
00000cf0 e051           1288 	cmp	zero,r10
00000cf2 d235*          1289 	be	.L149
                        1290 --533: 	{
                        1291 --534: 		pdu_info.SduDataPtr = &sdu_data[0];
                        1292 --line534
                        1293 ..lin.D.3A.5CCANFDGwMcuFirmRH850F1x.5Ccode.5CCANFDGwMcuFirmRH850F1x.5CCANFDGwMcuFirmRH850F1x.5Cprj.5CGHS.20MULTI.5CCAN.20Gateway.5Coutput.5Cobj.5Cpe1.5CCan.20::
                        1294 .LDWlin20:
00000cf4 230e0800       1295 	movea	8,sp,r1
00000cf8 630f4900       1296 	st.w	r1,72[sp]
                        1297 --535: 		hw_object.CanId = rxframe.ID;
00000cfc 230f6100       1298 	ld.w	96[sp],r1
00000d00 630f5500       1299 	st.w	r1,84[sp]
                        1300 --536: 		hw_object.Label = rx_frame_label;
00000d04 e30f0700       1301 	ld.hu	6[sp],r1
00000d08 630f5000       1302 	st.h	r1,80[sp]
                        1303 --537: 		pdu_info.IdType = (uint8_t) can_get_frm_format(rxframe.Format);
00000d0c 23375900       1304 	ld.w	88[sp],r6
                        1305 	jarl	_can_get_frm_format,lp
                        1305 <EXPANSION BEGIN>
                        1305 jarl22 _can_get_frm_format , lp 
00000d10 80ff160c*      1305 <EXPANSION END>
00000d14 8a00           1306 	zxb	r10
00000d16 43574d00       1307 	st.b	r10,77[sp]
                        1308 --538: 		pdu_info.SduLength = can_get_data_length_by_dlc(&rxframe);
                        1309 --line538
                        1310 ..lin.D.3A.5CCANFDGwMcuFirmRH850F1x.5Ccode.5CCANFDGwMcuFirmRH850F1x.5CCANFDGwMcuFirmRH850F1x.5Cprj.5CGHS.20MULTI.5CCAN.20Gateway.5Coutput.5Cobj.5Cpe1.5CCan.21::
                        1311 .LDWlin21:
00000d1a 23365800       1312 	movea	88,sp,r6
                        1313 	jarl	_can_get_data_length_by_dlc,lp
                        1313 <EXPANSION BEGIN>
                        1313 jarl22 _can_get_data_length_by_dlc , lp 
00000d1e 80fffe08*      1313 <EXPANSION END>
00000d22 43574c00       1314 	st.b	r10,76[sp]
                        1315 --539: 		for (idx = (uint8_t) 0U; idx < pdu_info.SduLength; idx++)
                        1316 --line539
                        1317 ..lin.D.3A.5CCANFDGwMcuFirmRH850F1x.5Ccode.5CCANFDGwMcuFirmRH850F1x.5CCANFDGwMcuFirmRH850F1x.5Cprj.5CGHS.20MULTI.5CCAN.20Gateway.5Coutput.5Cobj.5Cpe1.5CCan.22::
                        1318 .LDWlin22:
00000d26 000a           1319 	mov	0,r1
00000d28 8515*          1320 	br	.L156
                        1321 .L155:
                        1322 --540: 		{
                        1323 --541: 			pdu_info.SduDataPtr[idx] = rxframe.Data[idx];
                        1324 --line541
                        1325 ..lin.D.3A.5CCANFDGwMcuFirmRH850F1x.5Ccode.5CCANFDGwMcuFirmRH850F1x.5CCANFDGwMcuFirmRH850F1x.5Cprj.5CGHS.20MULTI.5CCAN.20Gateway.5Coutput.5Cobj.5Cpe1.5CCan.23::
                        1326 .LDWlin23:
00000d2a 23174900       1327 	ld.w	72[sp],r2
00000d2e 01f0           1328 	mov	r1,ep
00000d30 c2f1           1329 	add	r2,ep
00000d32 23165800       1330 	movea	88,sp,r2
00000d36 029e0d00       1331 	addi	13,r2,r19
00000d3a 0110           1332 	mov	r1,r2
00000d3c d311           1333 	add	r19,r2
00000d3e 82170100       1334 	ld.bu	0[r2],r2
00000d42 8013           1335 	sst.b	r2,0[ep]
00000d44 410a           1336 	add	1,r1
00000d46 8100           1337 	zxb	r1

                                                                      Page 24
                                                              C:\Users\TIEZHU~1\AppData\Local\Temp\gh_00006hc1.si
                        1338 .L156:
00000d48 83174d00       1339 	ld.bu	76[sp],r2
00000d4c e209           1340 	cmp	r2,r1
00000d4e e1ed*          1341 	bl	.L155
                        1342 --542: 		}
                        1343 --544: 		/* ---- Send message to upper layer (CANIF) ---- */
                        1344 --545: 		CanIf_RxIndication(&hw_object, &pdu_info);
                        1345 --line545
                        1346 ..lin.D.3A.5CCANFDGwMcuFirmRH850F1x.5Ccode.5CCANFDGwMcuFirmRH850F1x.5CCANFDGwMcuFirmRH850F1x.5Cprj.5CGHS.20MULTI.5CCAN.20Gateway.5Coutput.5Cobj.5Cpe1.5CCan.24::
                        1347 .LDWlin24:
00000d50 23365000       1348 	movea	80,sp,r6
00000d54 233e4800       1349 	movea	72,sp,r7
                        1350 	jarl	_CanIf_RxIndication,lp
                        1350 <EXPANSION BEGIN>
                        1350 jarl22 _CanIf_RxIndication , lp 
00000d58 80ff0000*      1350 <EXPANSION END>
                        1351 .L149:
                        1352 --546: 	}
                        1353 --547: } /* End of function can_read_rxfifo() */
                        1354 --	    .ef
                        1355 .LDW41:
                        1356 --line547
                        1357 ..lin.D.3A.5CCANFDGwMcuFirmRH850F1x.5Ccode.5CCANFDGwMcuFirmRH850F1x.5CCANFDGwMcuFirmRH850F1x.5Cprj.5CGHS.20MULTI.5CCAN.20Gateway.5Coutput.5Cobj.5Cpe1.5CCan.25::
                        1358 .LDWlin25:
00000d5c 23ffa900       1359 	ld.w	168[sp],lp
00000d60 031eac00       1360 	addi	172,sp,sp
00000d64 7f00           1361 	jmp	[lp]
                        1362 	.type	_can_read_rxfifo,@function
                        1363 	.size	_can_read_rxfifo,.-_can_read_rxfifo
                        1364 	.type	_can_read_rxfifo..D.3A.5CCANFDGwMcuFirmRH850F1x.5Ccode.5CCANFDGwMcuFirmRH850F1x.5CCANFDGwMcuFirmRH850F1x.5Cprj.5CGHS.20MULTI.5CCAN.20Gateway.5Coutput.5Cobj.5Cpe1.5CCan.,@function
                        1365 	.size	_can_read_rxfifo..D.3A.5CCANFDGwMcuFirmRH850F1x.5Ccode.5CCANFDGwMcuFirmRH850F1x.5CCANFDGwMcuFirmRH850F1x.5Cprj.5CGHS.20MULTI.5CCAN.20Gateway.5Coutput.5Cobj.5Cpe1.5CCan.,.-_can_read_rxfifo..D.3A.5CCANFDGwMcuFirmRH850F1x.5Ccode.5CCANFDGwMcuFirmRH850F1x.5CCANFDGwMcuFirmRH850F1x.5Cprj.5CGHS.20MULTI.5CCAN.20Gateway.5Coutput.5Cobj.5Cpe1.5CCan.
                        1366 	.align	2
                        1367 .LDW51:
                        1368 --_idx	r1	local
                        1369 --_rxframe	88[sp]	local
                        1370 --_rx_time_stamp	4[sp]	local
                        1371 --_rx_frame_label	6[sp]	local
                        1372 --_hw_object	80[sp]	local
                        1373 --_pdu_info	72[sp]	local
                        1374 --_sdu_data	8[sp]	local
                        1375 
                        1376 --_CanUnit	r6	param
                        1377 --_RxFifoIdx	r7	param
                        1378 
                        1379 	.data
                        1380 	.text
                        1381 
                        1382 
                        1383 --549: /***********************************************************************************************************************
                        1384 --550:  * Function Name: can_is_txlabel_correct
                        1385 --551:  * Description  : This function judges if Tx Label is correct.
                        1386 --552:  * Arguments    : MapTableIndx -
                        1387 --553:  *                    map table index
                        1388 --554:  *                Label -
                        1389 --555:  *                    Tx pointer
                        1390 --556:  * Return Value : TRUE -
                        1391 --557:  *                  if map table index is same as label
                        1392 --558:  *                FALSE -
                        1393 --559:  *                  if map table index is not same as label
                        1394 --560:  ***********************************************************************************************************************/
                        1395 --561: static boolean can_is_txlabel_correct(uint8_t MapTableIdx, uint8_t Label)

                                                                      Page 25
                                                              C:\Users\TIEZHU~1\AppData\Local\Temp\gh_00006hc1.si
                        1396 	.align	2
                        1397 	.align	2
                        1398 	.global	_can_is_txlabel_correct..D.3A.5CCANFDGwMcuFirmRH850F1x.5Ccode.5CCANFDGwMcuFirmRH850F1x.5CCANFDGwMcuFirmRH850F1x.5Cprj.5CGHS.20MULTI.5CCAN.20Gateway.5Coutput.5Cobj.5Cpe1.5CCan.
                        1399 _can_is_txlabel_correct..D.3A.5CCANFDGwMcuFirmRH850F1x.5Ccode.5CCANFDGwMcuFirmRH850F1x.5CCANFDGwMcuFirmRH850F1x.5Cprj.5CGHS.20MULTI.5CCAN.20Gateway.5Coutput.5Cobj.5Cpe1.5CCan.:
                        1400 _can_is_txlabel_correct:
00000d66 8600           1401 	zxb	r6
00000d68 8700           1402 	zxb	r7
                        1403 --	    .bf
                        1404 .LDW61:
                        1405 --562: {
                        1406 --563: 	boolean ret;
                        1407 --565: 	if (MapTableIdx == Label)
00000d6a e731           1408 	cmp	r7,r6
00000d6c ba05*          1409 	bne	.L201
                        1410 --566: 	{
                        1411 --567: 		ret = (boolean) RSCFD_TRUE;
                        1412 --line567
                        1413 ..lin.D.3A.5CCANFDGwMcuFirmRH850F1x.5Ccode.5CCANFDGwMcuFirmRH850F1x.5CCANFDGwMcuFirmRH850F1x.5Cprj.5CGHS.20MULTI.5CCAN.20Gateway.5Coutput.5Cobj.5Cpe1.5CCan.26::
                        1414 .LDWlin26:
00000d6e 010a           1415 	mov	1,r1
00000d70 a505*          1416 	br	.L203
                        1417 .L201:
                        1418 --568: 	}
                        1419 --569: 	else
                        1420 --570: 	{
                        1421 --571: 		ret = (boolean) RSCFD_FALSE;
                        1422 --line571
                        1423 ..lin.D.3A.5CCANFDGwMcuFirmRH850F1x.5Ccode.5CCANFDGwMcuFirmRH850F1x.5CCANFDGwMcuFirmRH850F1x.5Cprj.5CGHS.20MULTI.5CCAN.20Gateway.5Coutput.5Cobj.5Cpe1.5CCan.27::
                        1424 .LDWlin27:
00000d72 000a           1425 	mov	0,r1
                        1426 .L203:
                        1427 --572: 	}
                        1428 --574: 	return ret;
00000d74 0150           1429 	mov	r1,r10
                        1430 --	    .ef
                        1431 .LDW71:
00000d76 7f00           1432 	jmp	[lp]
                        1433 	.type	_can_is_txlabel_correct,@function
                        1434 	.size	_can_is_txlabel_correct,.-_can_is_txlabel_correct
                        1435 	.type	_can_is_txlabel_correct..D.3A.5CCANFDGwMcuFirmRH850F1x.5Ccode.5CCANFDGwMcuFirmRH850F1x.5CCANFDGwMcuFirmRH850F1x.5Cprj.5CGHS.20MULTI.5CCAN.20Gateway.5Coutput.5Cobj.5Cpe1.5CCan.,@function
                        1436 	.size	_can_is_txlabel_correct..D.3A.5CCANFDGwMcuFirmRH850F1x.5Ccode.5CCANFDGwMcuFirmRH850F1x.5CCANFDGwMcuFirmRH850F1x.5Cprj.5CGHS.20MULTI.5CCAN.20Gateway.5Coutput.5Cobj.5Cpe1.5CCan.,.-_can_is_txlabel_correct..D.3A.5CCANFDGwMcuFirmRH850F1x.5Ccode.5CCANFDGwMcuFirmRH850F1x.5CCANFDGwMcuFirmRH850F1x.5Cprj.5CGHS.20MULTI.5CCAN.20Gateway.5Coutput.5Cobj.5Cpe1.5CCan.
                        1437 	.align	2
                        1438 .LDW81:
                        1439 --_ret	r1	local
                        1440 
                        1441 --_MapTableIdx	r6	param
                        1442 --_Label	r7	param
                        1443 
                        1444 	.data
                        1445 	.text
                        1446 
                        1447 --575: } /* End of function can_is_txlabel_correct() */
                        1448 
                        1449 --577: /***********************************************************************************************************************
                        1450 --578:  * Function Name: can_check_tx_completion
                        1451 --579:  * Description  : This function checks all transmission history list that has finished a successful transmission and
                        1452 --580:  *                notify CanIf.
                        1453 --581:  * Arguments    : PhyChn -
                        1454 --582:  *                    Index of physical CAN channel
                        1455 --583:  * Return Value : none
                        1456 --584:  ***********************************************************************************************************************/

                                                                      Page 26
                                                              C:\Users\TIEZHU~1\AppData\Local\Temp\gh_00006hc1.si
                        1457 --585: static void can_check_tx_completion(uint8_t PhyChn)
                        1458 	.align	2
                        1459 	.align	2
                        1460 	.global	_can_check_tx_completion..D.3A.5CCANFDGwMcuFirmRH850F1x.5Ccode.5CCANFDGwMcuFirmRH850F1x.5CCANFDGwMcuFirmRH850F1x.5Cprj.5CGHS.20MULTI.5CCAN.20Gateway.5Coutput.5Cobj.5Cpe1.5CCan.
                        1461 _can_check_tx_completion..D.3A.5CCANFDGwMcuFirmRH850F1x.5Ccode.5CCANFDGwMcuFirmRH850F1x.5CCANFDGwMcuFirmRH850F1x.5Cprj.5CGHS.20MULTI.5CCAN.20Gateway.5Coutput.5Cobj.5Cpe1.5CCan.:
                        1462 _can_check_tx_completion:
00000d78 031edcff       1463 	addi	-36,sp,sp
00000d7c 63ff2100       1464 	st.w	lp,32[sp]
00000d80 63c71d00       1465 	st.w	r24,28[sp]
00000d84 63cf1900       1466 	st.w	r25,24[sp]
00000d88 63d71500       1467 	st.w	r26,20[sp]
00000d8c 63df1100       1468 	st.w	r27,16[sp]
00000d90 63e70d00       1469 	st.w	r28,12[sp]
00000d94 63ef0900       1470 	st.w	r29,8[sp]
00000d98 c6deff00       1471 	andi	255,r6,r27
                        1472 --	    .bf
                        1473 .LDW91:
                        1474 --586: {
                        1475 --587: 	uint8_t txq_buf_idx;
                        1476 --588: 	RSCFD_THLEntry thl_entry;
                        1477 --589: 	uint8_t thl_unread_counter;
                        1478 --590: 	uint8_t thl_idx;
                        1479 --591: 	uint8_t unit_idx;
                        1480 --592: 	uint8_t channel_idx;
                        1481 --594: 	/* ---- Get system unit & channel ---- */
                        1482 --595: 	unit_idx = Can_PbConfig.CanControllerTable[PhyChn].UnitIdx;
00000d9c 1b08           1483 	mov	r27,r1
00000d9e e40f4402       1484 	mul	36,r1,zero
00000da2 2b0600000000*  1485 	mov	_Can_PbConfig+4,r11
00000da8 2b170100       1486 	ld.w	0[r11],r2
00000dac 01f0           1487 	mov	r1,ep
00000dae c2f1           1488 	add	r2,ep
00000db0 64d0           1489 	sld.bu	4[ep],r26
                        1490 --596: 	channel_idx = Can_PbConfig.CanControllerTable[PhyChn].ControllerId;
00000db2 1b08           1491 	mov	r27,r1
00000db4 e40f4402       1492 	mul	36,r1,zero
00000db8 2c0600000000*  1493 	mov	_Can_PbConfig+4,r12
00000dbe 2c170100       1494 	ld.w	0[r12],r2
00000dc2 01f0           1495 	mov	r1,ep
00000dc4 c2f1           1496 	add	r2,ep
00000dc6 65c8           1497 	sld.bu	5[ep],r25
                        1498 --598: 	/* ---- Check map table ---- */
                        1499 --599: 	thl_unread_counter = RSCFD_GetTHLCount(unit_idx, channel_idx);
00000dc8 1a30           1500 	mov	r26,r6
00000dca 1938           1501 	mov	r25,r7
                        1502 	jarl	_RSCFD_GetTHLCount,lp
                        1502 <EXPANSION BEGIN>
                        1502 jarl22 _RSCFD_GetTHLCount , lp 
00000dcc 80ff0000*      1502 <EXPANSION END>
00000dd0 0ac0           1503 	mov	r10,r24
                        1504 --600: 	for (thl_idx = 0U; thl_idx < thl_unread_counter; thl_idx++)
                        1505 --line600
                        1506 ..lin.D.3A.5CCANFDGwMcuFirmRH850F1x.5Ccode.5CCANFDGwMcuFirmRH850F1x.5CCANFDGwMcuFirmRH850F1x.5Cprj.5CGHS.20MULTI.5CCAN.20Gateway.5Coutput.5Cobj.5Cpe1.5CCan.28::
                        1507 .LDWlin28:
00000dd2 00e2           1508 	mov	0,r28
00000dd4 a54d*          1509 	br	.L247
                        1510 .L246:
                        1511 --601: 	{
                        1512 --602: 		/* MISRA C:2012 Violation - Rule 1.3 */
                        1513 --603: 		/* Justification - Taking address of near auto variable is unavoidable */
                        1514 --604: 		if (RSCFD_TRUE == RSCFD_ReadTHL(unit_idx, channel_idx, &thl_entry))

                                                                      Page 27
                                                              C:\Users\TIEZHU~1\AppData\Local\Temp\gh_00006hc1.si
                        1515 --line604
                        1516 ..lin.D.3A.5CCANFDGwMcuFirmRH850F1x.5Ccode.5CCANFDGwMcuFirmRH850F1x.5CCANFDGwMcuFirmRH850F1x.5Cprj.5CGHS.20MULTI.5CCAN.20Gateway.5Coutput.5Cobj.5Cpe1.5CCan.29::
                        1517 .LDWlin29:
00000dd6 1a30           1518 	mov	r26,r6
00000dd8 1938           1519 	mov	r25,r7
00000dda 23460000       1520 	movea	0,sp,r8
                        1521 	jarl	_RSCFD_ReadTHL,lp
                        1521 <EXPANSION BEGIN>
                        1521 jarl22 _RSCFD_ReadTHL , lp 
00000dde 80ff0000*      1521 <EXPANSION END>
00000de2 6152           1522 	cmp	1,r10
00000de4 8a45*          1523 	bne	.L245
                        1524 --605: 		{
                        1525 --606: 			if (RSCFD_THL_BUF_TYPE_TXQ == thl_entry.BufferType)
                        1526 --line606
                        1527 ..lin.D.3A.5CCANFDGwMcuFirmRH850F1x.5Ccode.5CCANFDGwMcuFirmRH850F1x.5CCANFDGwMcuFirmRH850F1x.5Cprj.5CGHS.20MULTI.5CCAN.20Gateway.5Coutput.5Cobj.5Cpe1.5CCan.30::
                        1528 .LDWlin30:
00000de6 230f0100       1529 	ld.w	0[sp],r1
00000dea 640a           1530 	cmp	4,r1
00000dec aa2d*          1531 	bne	.L250
                        1532 --607: 			{
                        1533 --608: 				/* Check TxPointer/Label with map table to get PduId */
                        1534 --609: 				for (txq_buf_idx = (uint8_t) 0U; txq_buf_idx < CAN_DEPTH_OF_TXQ; txq_buf_idx++)
                        1535 --line609
                        1536 ..lin.D.3A.5CCANFDGwMcuFirmRH850F1x.5Ccode.5CCANFDGwMcuFirmRH850F1x.5CCANFDGwMcuFirmRH850F1x.5Cprj.5CGHS.20MULTI.5CCAN.20Gateway.5Coutput.5Cobj.5Cpe1.5CCan.31::
                        1537 .LDWlin31:
00000dee 00ea           1538 	mov	0,r29
                        1539 .L254:
                        1540 --610: 				{
                        1541 --611: 					if (RSCFD_TRUE == can_is_txlabel_correct(txq_buf_idx, thl_entry.Label))
00000df0 1d30           1542 	mov	r29,r6
00000df2 a33f0500       1543 	ld.bu	5[sp],r7
                        1544 	jarl	_can_is_txlabel_correct,lp
                        1544 <EXPANSION BEGIN>
                        1544 jarl22 _can_is_txlabel_correct , lp 
00000df6 bfff70ff*      1544 <EXPANSION END>
00000dfa 6152           1545 	cmp	1,r10
00000dfc da1d*          1546 	bne	.L255
                        1547 --612: 					{
                        1548 --613: 						/* Send Tx confirmation to upper layer (CanIf) */
                        1549 --614: 						CanIf_TxConfirmation(g_can_hoh_pduid_txtbl[PhyChn][txq_buf_idx].PduId);
                        1550 --line614
                        1551 ..lin.D.3A.5CCANFDGwMcuFirmRH850F1x.5Ccode.5CCANFDGwMcuFirmRH850F1x.5CCANFDGwMcuFirmRH850F1x.5Cprj.5CGHS.20MULTI.5CCAN.20Gateway.5Coutput.5Cobj.5Cpe1.5CCan.32::
                        1552 .LDWlin32:
00000dfe 1b08           1553 	mov	r27,r1
00000e00 e1160a00       1554 	mulhi	10,r1,r2
00000e04 1d08           1555 	mov	r29,r1
00000e06 c209           1556 	add	r2,r1
00000e08 c20a           1557 	shl	2,r1
00000e0a 220600000000*  1558 	mov	_g_can_hoh_pduid_txtbl,r2
00000e10 01f0           1559 	mov	r1,ep
00000e12 c2f1           1560 	add	r2,ep
00000e14 7030           1561 	sld.hu	0[ep],r6
                        1562 	jarl	_CanIf_TxConfirmation,lp
                        1562 <EXPANSION BEGIN>
                        1562 jarl22 _CanIf_TxConfirmation , lp 
00000e16 80ff0000*      1562 <EXPANSION END>
                        1563 --615: 						/* Mark TxQ buffer is free. */
                        1564 --616: 						g_can_hoh_pduid_txtbl[PhyChn][txq_buf_idx].IsFree = (uint8_t) RSCFD_TRUE;
                        1565 --line616
                        1566 ..lin.D.3A.5CCANFDGwMcuFirmRH850F1x.5Ccode.5CCANFDGwMcuFirmRH850F1x.5CCANFDGwMcuFirmRH850F1x.5Cprj.5CGHS.20MULTI.5CCAN.20Gateway.5Coutput.5Cobj.5Cpe1.5CCan.33::

                                                                      Page 28
                                                              C:\Users\TIEZHU~1\AppData\Local\Temp\gh_00006hc1.si
                        1567 .LDWlin33:
00000e1a 1b08           1568 	mov	r27,r1
00000e1c e1160a00       1569 	mulhi	10,r1,r2
00000e20 1d08           1570 	mov	r29,r1
00000e22 c209           1571 	add	r2,r1
00000e24 c20a           1572 	shl	2,r1
00000e26 220600000000*  1573 	mov	_g_can_hoh_pduid_txtbl,r2
00000e2c 01f0           1574 	mov	r1,ep
00000e2e c2f1           1575 	add	r2,ep
00000e30 010a           1576 	mov	1,r1
00000e32 820b           1577 	sst.b	r1,2[ep]
                        1578 --617: 						break;
00000e34 851d*          1579 	br	.L245
                        1580 .L255:
                        1581 --line609
                        1582 ..lin.D.3A.5CCANFDGwMcuFirmRH850F1x.5Ccode.5CCANFDGwMcuFirmRH850F1x.5CCANFDGwMcuFirmRH850F1x.5Cprj.5CGHS.20MULTI.5CCAN.20Gateway.5Coutput.5Cobj.5Cpe1.5CCan.34::
                        1583 .LDWlin34:
00000e36 41ea           1584 	add	1,r29
00000e38 9d00           1585 	zxb	r29
00000e3a 6aea           1586 	cmp	10,r29
00000e3c a1dd*          1587 	bl	.L254
00000e3e b515*          1588 	br	.L245
                        1589 .L250:
                        1590 --618: 					}
                        1591 --619: 				}
                        1592 --620: 			}
                        1593 --621: 			else if (RSCFD_THL_BUF_TYPE_TMB == thl_entry.BufferType)
                        1594 --line621
                        1595 ..lin.D.3A.5CCANFDGwMcuFirmRH850F1x.5Ccode.5CCANFDGwMcuFirmRH850F1x.5CCANFDGwMcuFirmRH850F1x.5Cprj.5CGHS.20MULTI.5CCAN.20Gateway.5Coutput.5Cobj.5Cpe1.5CCan.35::
                        1596 .LDWlin35:
00000e40 230f0100       1597 	ld.w	0[sp],r1
00000e44 610a           1598 	cmp	1,r1
00000e46 fa0d*          1599 	bne	.L245
                        1600 --622: 			{
                        1601 --623: 				/* Send Tx confirmation to upper layer (CanIf) */
                        1602 --624: 				if (RSCAN_DEFAULT_TXBUF_MERGED == thl_entry.BufferNumber)
                        1603 --line624
                        1604 ..lin.D.3A.5CCANFDGwMcuFirmRH850F1x.5Ccode.5CCANFDGwMcuFirmRH850F1x.5CCANFDGwMcuFirmRH850F1x.5Cprj.5CGHS.20MULTI.5CCAN.20Gateway.5Coutput.5Cobj.5Cpe1.5CCan.36::
                        1605 .LDWlin36:
00000e48 830f0500       1606 	ld.bu	4[sp],r1
00000e4c 630a           1607 	cmp	3,r1
00000e4e ba0d*          1608 	bne	.L245
                        1609 --625: 				{
                        1610 --626: 					CanIf_TxConfirmation(g_can_hoh_pduid_txbuf_tbl[PhyChn]);
                        1611 --line626
                        1612 ..lin.D.3A.5CCANFDGwMcuFirmRH850F1x.5Ccode.5CCANFDGwMcuFirmRH850F1x.5CCANFDGwMcuFirmRH850F1x.5Cprj.5CGHS.20MULTI.5CCAN.20Gateway.5Coutput.5Cobj.5Cpe1.5CCan.37::
                        1613 .LDWlin37:
00000e50 1b08           1614 	mov	r27,r1
00000e52 c10a           1615 	shl	1,r1
00000e54 220600000000*  1616 	mov	_g_can_hoh_pduid_txbuf_tbl,r2
00000e5a 01f0           1617 	mov	r1,ep
00000e5c c2f1           1618 	add	r2,ep
00000e5e 7030           1619 	sld.hu	0[ep],r6
                        1620 	jarl	_CanIf_TxConfirmation,lp
                        1620 <EXPANSION BEGIN>
                        1620 jarl22 _CanIf_TxConfirmation , lp 
00000e60 80ff0000*      1620 <EXPANSION END>
                        1621 .L245:
                        1622 --627: 				}
                        1623 --628: 			}
                        1624 --629: 			else

                                                                      Page 29
                                                              C:\Users\TIEZHU~1\AppData\Local\Temp\gh_00006hc1.si
                        1625 --630: 			{
                        1626 --line600
                        1627 ..lin.D.3A.5CCANFDGwMcuFirmRH850F1x.5Ccode.5CCANFDGwMcuFirmRH850F1x.5CCANFDGwMcuFirmRH850F1x.5Cprj.5CGHS.20MULTI.5CCAN.20Gateway.5Coutput.5Cobj.5Cpe1.5CCan.38::
                        1628 .LDWlin38:
00000e64 41e2           1629 	add	1,r28
00000e66 9c00           1630 	zxb	r28
                        1631 .L247:
00000e68 f8e1           1632 	cmp	r24,r28
00000e6a e1b5*          1633 	bl	.L246
                        1634 --631: 				/* ignore GW FIFO Tx */
                        1635 --632: 			}
                        1636 --633: 		}
                        1637 --634: 	}
                        1638 --635: } /* End of function can_check_tx_completion() */
                        1639 --	    .ef
                        1640 .LDW02:
                        1641 --line635
                        1642 ..lin.D.3A.5CCANFDGwMcuFirmRH850F1x.5Ccode.5CCANFDGwMcuFirmRH850F1x.5CCANFDGwMcuFirmRH850F1x.5Cprj.5CGHS.20MULTI.5CCAN.20Gateway.5Coutput.5Cobj.5Cpe1.5CCan.39::
                        1643 .LDWlin39:
00000e6c 23ff2100       1644 	ld.w	32[sp],lp
00000e70 23ef0900       1645 	ld.w	8[sp],r29
00000e74 23e70d00       1646 	ld.w	12[sp],r28
00000e78 23df1100       1647 	ld.w	16[sp],r27
00000e7c 23d71500       1648 	ld.w	20[sp],r26
00000e80 23cf1900       1649 	ld.w	24[sp],r25
00000e84 23c71d00       1650 	ld.w	28[sp],r24
00000e88 031e2400       1651 	addi	36,sp,sp
00000e8c 7f00           1652 	jmp	[lp]
                        1653 	.type	_can_check_tx_completion,@function
                        1654 	.size	_can_check_tx_completion,.-_can_check_tx_completion
                        1655 	.type	_can_check_tx_completion..D.3A.5CCANFDGwMcuFirmRH850F1x.5Ccode.5CCANFDGwMcuFirmRH850F1x.5CCANFDGwMcuFirmRH850F1x.5Cprj.5CGHS.20MULTI.5CCAN.20Gateway.5Coutput.5Cobj.5Cpe1.5CCan.,@function
                        1656 	.size	_can_check_tx_completion..D.3A.5CCANFDGwMcuFirmRH850F1x.5Ccode.5CCANFDGwMcuFirmRH850F1x.5CCANFDGwMcuFirmRH850F1x.5Cprj.5CGHS.20MULTI.5CCAN.20Gateway.5Coutput.5Cobj.5Cpe1.5CCan.,.-_can_check_tx_completion..D.3A.5CCANFDGwMcuFirmRH850F1x.5Ccode.5CCANFDGwMcuFirmRH850F1x.5CCANFDGwMcuFirmRH850F1x.5Cprj.5CGHS.20MULTI.5CCAN.20Gateway.5Coutput.5Cobj.5Cpe1.5CCan.
                        1657 	.align	2
                        1658 .LDW12:
                        1659 --_txq_buf_idx	r29	local
                        1660 --_thl_entry	0[sp]	local
                        1661 --_thl_unread_counter	r24	local
                        1662 --_thl_idx	r28	local
                        1663 --_unit_idx	r26	local
                        1664 --_channel_idx	r25	local
                        1665 
                        1666 --_PhyChn	r27	param
                        1667 
                        1668 	.data
                        1669 	.text
                        1670 
                        1671 
                        1672 --637: /***********************************************************************************************************************
                        1673 --638:  * Function Name: can_check_rx_completion
                        1674 --639:  * Description  : This function checks for completed reception.
                        1675 --640:  * Arguments    : none
                        1676 --641:  * Return Value : none
                        1677 --642:  ***********************************************************************************************************************/
                        1678 --643: static void can_check_rx_completion(void)
                        1679 	.align	2
                        1680 	.align	2
                        1681 	.global	_can_check_rx_completion..D.3A.5CCANFDGwMcuFirmRH850F1x.5Ccode.5CCANFDGwMcuFirmRH850F1x.5CCANFDGwMcuFirmRH850F1x.5Cprj.5CGHS.20MULTI.5CCAN.20Gateway.5Coutput.5Cobj.5Cpe1.5CCan.
                        1682 _can_check_rx_completion..D.3A.5CCANFDGwMcuFirmRH850F1x.5Ccode.5CCANFDGwMcuFirmRH850F1x.5CCANFDGwMcuFirmRH850F1x.5Cprj.5CGHS.20MULTI.5CCAN.20Gateway.5Coutput.5Cobj.5Cpe1.5CCan.:
                        1683 _can_check_rx_completion:
00000e8e 031eecff       1684 	addi	-20,sp,sp
00000e92 63ff1100       1685 	st.w	lp,16[sp]

                                                                      Page 30
                                                              C:\Users\TIEZHU~1\AppData\Local\Temp\gh_00006hc1.si
00000e96 63d70d00       1686 	st.w	r26,12[sp]
00000e9a 63df0900       1687 	st.w	r27,8[sp]
00000e9e 63e70500       1688 	st.w	r28,4[sp]
00000ea2 63ef0100       1689 	st.w	r29,0[sp]
                        1690 --	    .bf
                        1691 .LDW22:
                        1692 --644: {
                        1693 --645: 	uint8_t fifo_idx;
                        1694 --646: 	uint8_t rxfifo_idx;
                        1695 --647: 	uint8_t unit_idx;
                        1696 --648: 	const can_rx_fifo_cfg_t* can_rxfifo_cfgtbl;
                        1697 --650: 	can_rxfifo_cfgtbl = Can_PbConfig.CanRxFIFOConfigTable;
00000ea6 2b0600000000*  1698 	mov	_Can_PbConfig+12,r11
00000eac 2bd70100       1699 	ld.w	0[r11],r26
                        1700 --651: 	/* ==== Check RxFifo one by one ==== */
                        1701 --652: 	for (fifo_idx = 0U; fifo_idx < Can_PbConfig.NumberOfRxFifoObject; fifo_idx++)
00000eb0 00ea           1702 	mov	0,r29
00000eb2 e51d*          1703 	br	.L371
                        1704 .L370:
                        1705 --653: 	{
                        1706 --654: 		unit_idx = can_rxfifo_cfgtbl[fifo_idx].UnitIdx;
                        1707 --line654
                        1708 ..lin.D.3A.5CCANFDGwMcuFirmRH850F1x.5Ccode.5CCANFDGwMcuFirmRH850F1x.5CCANFDGwMcuFirmRH850F1x.5Cprj.5CGHS.20MULTI.5CCAN.20Gateway.5Coutput.5Cobj.5Cpe1.5CCan.40::
                        1709 .LDWlin40:
00000eb4 1d08           1710 	mov	r29,r1
00000eb6 c30a           1711 	shl	3,r1
00000eb8 01f0           1712 	mov	r1,ep
00000eba daf1           1713 	add	r26,ep
00000ebc 60d8           1714 	sld.bu	0[ep],r27
                        1715 --655: 		rxfifo_idx = can_rxfifo_cfgtbl[fifo_idx].FifoIdx;
00000ebe 1d08           1716 	mov	r29,r1
00000ec0 c30a           1717 	shl	3,r1
00000ec2 01f0           1718 	mov	r1,ep
00000ec4 daf1           1719 	add	r26,ep
00000ec6 61e0           1720 	sld.bu	1[ep],r28
                        1721 --656: 		/* ---- Check if reception is completed for Rx Fifo ---- */
                        1722 --657: 		User_StartTimeCount();
                        1723 	jarl	_User_StartTimeCount,lp
                        1723 <EXPANSION BEGIN>
                        1723 jarl22 _User_StartTimeCount , lp 
00000ec8 80ff0000*      1723 <EXPANSION END>
                        1724 --658: 		while (0U != RSCFD_GetRFIFOCount(unit_idx, rxfifo_idx))
                        1725 --line658
                        1726 ..lin.D.3A.5CCANFDGwMcuFirmRH850F1x.5Ccode.5CCANFDGwMcuFirmRH850F1x.5CCANFDGwMcuFirmRH850F1x.5Cprj.5CGHS.20MULTI.5CCAN.20Gateway.5Coutput.5Cobj.5Cpe1.5CCan.41::
                        1727 .LDWlin41:
00000ecc 950d*          1728 	br	.L372
                        1729 .L374:
                        1730 --659: 		{
                        1731 --660: 			if (TRUE == User_IsTimeOut())
                        1732 --line660
                        1733 ..lin.D.3A.5CCANFDGwMcuFirmRH850F1x.5Ccode.5CCANFDGwMcuFirmRH850F1x.5CCANFDGwMcuFirmRH850F1x.5Cprj.5CGHS.20MULTI.5CCAN.20Gateway.5Coutput.5Cobj.5Cpe1.5CCan.42::
                        1734 .LDWlin42:
                        1735 	jarl	_User_IsTimeOut,lp
                        1735 <EXPANSION BEGIN>
                        1735 jarl22 _User_IsTimeOut , lp 
00000ece 80ff0000*      1735 <EXPANSION END>
00000ed2 6152           1736 	cmp	1,r10
00000ed4 b20d*          1737 	be	.L369
                        1738 --661: 			{
                        1739 --662: 				/* exit if timeout */
                        1740 --663: 				break;

                                                                      Page 31
                                                              C:\Users\TIEZHU~1\AppData\Local\Temp\gh_00006hc1.si
                        1741 --664: 			}
                        1742 --666: 			can_read_rxfifo(unit_idx, rxfifo_idx);
                        1743 --line666
                        1744 ..lin.D.3A.5CCANFDGwMcuFirmRH850F1x.5Ccode.5CCANFDGwMcuFirmRH850F1x.5CCANFDGwMcuFirmRH850F1x.5Cprj.5CGHS.20MULTI.5CCAN.20Gateway.5Coutput.5Cobj.5Cpe1.5CCan.43::
                        1745 .LDWlin43:
00000ed6 1b30           1746 	mov	r27,r6
00000ed8 1c38           1747 	mov	r28,r7
                        1748 	jarl	_can_read_rxfifo,lp
                        1748 <EXPANSION BEGIN>
                        1748 jarl22 _can_read_rxfifo , lp 
00000eda bffff6fd*      1748 <EXPANSION END>
                        1749 .L372:
                        1750 --line658
                        1751 ..lin.D.3A.5CCANFDGwMcuFirmRH850F1x.5Ccode.5CCANFDGwMcuFirmRH850F1x.5CCANFDGwMcuFirmRH850F1x.5Cprj.5CGHS.20MULTI.5CCAN.20Gateway.5Coutput.5Cobj.5Cpe1.5CCan.44::
                        1752 .LDWlin44:
00000ede 1b30           1753 	mov	r27,r6
00000ee0 1c38           1754 	mov	r28,r7
                        1755 	jarl	_RSCFD_GetRFIFOCount,lp
                        1755 <EXPANSION BEGIN>
                        1755 jarl22 _RSCFD_GetRFIFOCount , lp 
00000ee2 80ff0000*      1755 <EXPANSION END>
00000ee6 e051           1756 	cmp	zero,r10
00000ee8 baf5*          1757 	bne	.L374
                        1758 .L369:
                        1759 --line652
                        1760 ..lin.D.3A.5CCANFDGwMcuFirmRH850F1x.5Ccode.5CCANFDGwMcuFirmRH850F1x.5CCANFDGwMcuFirmRH850F1x.5Cprj.5CGHS.20MULTI.5CCAN.20Gateway.5Coutput.5Cobj.5Cpe1.5CCan.45::
                        1761 .LDWlin45:
00000eea 41ea           1762 	add	1,r29
00000eec 9d00           1763 	zxb	r29
                        1764 .L371:
00000eee 2b0600000000*  1765 	mov	_Can_PbConfig+8,r11
00000ef4 8b0f0100       1766 	ld.bu	0[r11],r1
00000ef8 e1e9           1767 	cmp	r1,r29
00000efa d1dd*          1768 	bl	.L370
                        1769 --667: 		}
                        1770 --668: 	}
                        1771 --669: } /* End of function can_check_rx_completion() */
                        1772 --	    .ef
                        1773 .LDW32:
                        1774 --line669
                        1775 ..lin.D.3A.5CCANFDGwMcuFirmRH850F1x.5Ccode.5CCANFDGwMcuFirmRH850F1x.5CCANFDGwMcuFirmRH850F1x.5Cprj.5CGHS.20MULTI.5CCAN.20Gateway.5Coutput.5Cobj.5Cpe1.5CCan.46::
                        1776 .LDWlin46:
00000efc 23ff1100       1777 	ld.w	16[sp],lp
00000f00 23ef0100       1778 	ld.w	0[sp],r29
00000f04 23e70500       1779 	ld.w	4[sp],r28
00000f08 23df0900       1780 	ld.w	8[sp],r27
00000f0c 23d70d00       1781 	ld.w	12[sp],r26
00000f10 031e1400       1782 	addi	20,sp,sp
00000f14 7f00           1783 	jmp	[lp]
                        1784 	.type	_can_check_rx_completion,@function
                        1785 	.size	_can_check_rx_completion,.-_can_check_rx_completion
                        1786 	.type	_can_check_rx_completion..D.3A.5CCANFDGwMcuFirmRH850F1x.5Ccode.5CCANFDGwMcuFirmRH850F1x.5CCANFDGwMcuFirmRH850F1x.5Cprj.5CGHS.20MULTI.5CCAN.20Gateway.5Coutput.5Cobj.5Cpe1.5CCan.,@function
                        1787 	.size	_can_check_rx_completion..D.3A.5CCANFDGwMcuFirmRH850F1x.5Ccode.5CCANFDGwMcuFirmRH850F1x.5CCANFDGwMcuFirmRH850F1x.5Cprj.5CGHS.20MULTI.5CCAN.20Gateway.5Coutput.5Cobj.5Cpe1.5CCan.,.-_can_check_rx_completion..D.3A.5CCANFDGwMcuFirmRH850F1x.5Ccode.5CCANFDGwMcuFirmRH850F1x.5CCANFDGwMcuFirmRH850F1x.5Cprj.5CGHS.20MULTI.5CCAN.20Gateway.5Coutput.5Cobj.5Cpe1.5CCan.
                        1788 	.align	2
                        1789 .LDW42:
                        1790 --_fifo_idx	r29	local
                        1791 --_rxfifo_idx	r28	local
                        1792 --_unit_idx	r27	local
                        1793 --_can_rxfifo_cfgtbl	r26	local
                        1794 
                        1795 	.data

                                                                      Page 32
                                                              C:\Users\TIEZHU~1\AppData\Local\Temp\gh_00006hc1.si
                        1796 	.text
                        1797 
                        1798 
                        1799 --671: /***********************************************************************************************************************
                        1800 --672:  * Function Name: can_init_global
                        1801 --673:  * Description  : This function initializes global mode & RX Fifo.
                        1802 --674:  * Arguments    : ConfigPtr -
                        1803 --675:  *                    CAN configure settings
                        1804 --676:  * Return Value : none
                        1805 --677:  ***********************************************************************************************************************/
                        1806 --678: static void can_init_global(const Can_UnitCfgType* ConfigPtr)
                        1807 	.align	2
                        1808 	.align	2
                        1809 	.global	_can_init_global..D.3A.5CCANFDGwMcuFirmRH850F1x.5Ccode.5CCANFDGwMcuFirmRH850F1x.5CCANFDGwMcuFirmRH850F1x.5Cprj.5CGHS.20MULTI.5CCAN.20Gateway.5Coutput.5Cobj.5Cpe1.5CCan.
                        1810 _can_init_global..D.3A.5CCANFDGwMcuFirmRH850F1x.5Ccode.5CCANFDGwMcuFirmRH850F1x.5CCANFDGwMcuFirmRH850F1x.5Cprj.5CGHS.20MULTI.5CCAN.20Gateway.5Coutput.5Cobj.5Cpe1.5CCan.:
                        1811 _can_init_global:
00000f16 031eecff       1812 	addi	-20,sp,sp
00000f1a 63ff1100       1813 	st.w	lp,16[sp]
00000f1e 63df0d00       1814 	st.w	r27,12[sp]
00000f22 63e70900       1815 	st.w	r28,8[sp]
00000f26 63ef0500       1816 	st.w	r29,4[sp]
00000f2a 06e0           1817 	mov	r6,r28
                        1818 --	    .bf
                        1819 .LDW52:
                        1820 --679: {
                        1821 --680: 	uint32_t global_settings;
                        1822 --681: 	uint8_t idx;
                        1823 --682: 	const can_rx_fifo_cfg_t* can_rxfifo_cfgtbl;
                        1824 --683: 	uint8_t phy_chn_idx;
                        1825 --684: 	uint8_t cur_chn_cfgtbl_index;
                        1826 --686: 	/* ---- 1 Configure global configuration ---- */
                        1827 --687: 	RSCFD_WaitIPInitialized();
                        1828 	jarl	_RSCFD_WaitIPInitialized,lp
                        1828 <EXPANSION BEGIN>
                        1828 jarl22 _RSCFD_WaitIPInitialized , lp 
00000f2c 80ff0000*      1828 <EXPANSION END>
                        1829 --688: 	RSCFD_SwitchGlobalMode(RSCFD_MODE_RESET);
                        1830 --line688
                        1831 ..lin.D.3A.5CCANFDGwMcuFirmRH850F1x.5Ccode.5CCANFDGwMcuFirmRH850F1x.5CCANFDGwMcuFirmRH850F1x.5Cprj.5CGHS.20MULTI.5CCAN.20Gateway.5Coutput.5Cobj.5Cpe1.5CCan.47::
                        1832 .LDWlin47:
00000f30 0132           1833 	mov	1,r6
                        1834 	jarl	_RSCFD_SwitchGlobalMode,lp
                        1834 <EXPANSION BEGIN>
                        1834 jarl22 _RSCFD_SwitchGlobalMode , lp 
00000f32 80ff0000*      1834 <EXPANSION END>
                        1835 --689: 	global_settings = CAN_GLOBAL_CONFIG;
                        1836 --line689
                        1837 ..lin.D.3A.5CCANFDGwMcuFirmRH850F1x.5Ccode.5CCANFDGwMcuFirmRH850F1x.5CCANFDGwMcuFirmRH850F1x.5Cprj.5CGHS.20MULTI.5CCAN.20Gateway.5Coutput.5Cobj.5Cpe1.5CCan.48::
                        1838 .LDWlin48:
00000f36 200e1200       1839 	movea	18,zero,r1
                        1840 --690: 	RSCFD_ConfigGlobal(global_settings);
00000f3a 0130           1841 	mov	r1,r6
                        1842 	jarl	_RSCFD_ConfigGlobal,lp
                        1842 <EXPANSION BEGIN>
                        1842 jarl22 _RSCFD_ConfigGlobal , lp 
00000f3c 80ff0000*      1842 <EXPANSION END>
                        1843 --692: 	/* ---- 2 Configure Register map. */
                        1844 --693: 	for (phy_chn_idx = (uint8_t) 0U; phy_chn_idx < CAN_NUM_OF_CHN; phy_chn_idx++)
                        1845 --line693
                        1846 ..lin.D.3A.5CCANFDGwMcuFirmRH850F1x.5Ccode.5CCANFDGwMcuFirmRH850F1x.5CCANFDGwMcuFirmRH850F1x.5Cprj.5CGHS.20MULTI.5CCAN.20Gateway.5Coutput.5Cobj.5Cpe1.5CCan.49::
                        1847 .LDWlin49:

                                                                      Page 33
                                                              C:\Users\TIEZHU~1\AppData\Local\Temp\gh_00006hc1.si
00000f40 00ea           1848 	mov	0,r29
                        1849 .L437:
                        1850 --694: 	{
                        1851 --695: 		if (CAN_PHYCH_NOT_USED_FLAG != ConfigPtr->CanPhysicalIdToSystemIdTable[phy_chn_idx])
00000f42 1c0e1800       1852 	addi	24,r28,r1
00000f46 1df0           1853 	mov	r29,ep
00000f48 c1f1           1854 	add	r1,ep
00000f4a 6008           1855 	sld.bu	0[ep],r1
00000f4c 010601ff       1856 	addi	-255,r1,zero
00000f50 f20d*          1857 	be	.L438
                        1858 --696: 		{
                        1859 --697: 			cur_chn_cfgtbl_index = ConfigPtr->CanPhysicalIdToSystemIdTable[phy_chn_idx];
                        1860 --line697
                        1861 ..lin.D.3A.5CCANFDGwMcuFirmRH850F1x.5Ccode.5CCANFDGwMcuFirmRH850F1x.5CCANFDGwMcuFirmRH850F1x.5Cprj.5CGHS.20MULTI.5CCAN.20Gateway.5Coutput.5Cobj.5Cpe1.5CCan.50::
                        1862 .LDWlin50:
00000f52 1c0e1800       1863 	addi	24,r28,r1
00000f56 1df0           1864 	mov	r29,ep
00000f58 c1f1           1865 	add	r1,ep
00000f5a 6008           1866 	sld.bu	0[ep],r1
                        1867 --698: 			Can_SetRegisterMapping(ConfigPtr->CanControllerTable[cur_chn_cfgtbl_index].CanNetworkType);
00000f5c e40f4402       1868 	mul	36,r1,zero
00000f60 3c170500       1869 	ld.w	4[r28],r2
00000f64 01f0           1870 	mov	r1,ep
00000f66 c2f1           1871 	add	r2,ep
00000f68 0035           1872 	sld.w	0[ep],r6
                        1873 	jarl	_Can_SetRegisterMapping,lp
                        1873 <EXPANSION BEGIN>
                        1873 jarl22 _Can_SetRegisterMapping , lp 
00000f6a 80ff0000*      1873 <EXPANSION END>
                        1874 .L438:
                        1875 --line693
                        1876 ..lin.D.3A.5CCANFDGwMcuFirmRH850F1x.5Ccode.5CCANFDGwMcuFirmRH850F1x.5CCANFDGwMcuFirmRH850F1x.5Cprj.5CGHS.20MULTI.5CCAN.20Gateway.5Coutput.5Cobj.5Cpe1.5CCan.51::
                        1877 .LDWlin51:
00000f6e 41ea           1878 	add	1,r29
00000f70 9d00           1879 	zxb	r29
00000f72 66ea           1880 	cmp	6,r29
00000f74 f1e5*          1881 	bl	.L437
                        1882 --699: 		}
                        1883 --700: 	}
                        1884 --701: 	/* ---- 3 Configure Rx FIFO. */
                        1885 --702: 	can_rxfifo_cfgtbl = ConfigPtr->CanRxFIFOConfigTable;
                        1886 --line702
                        1887 ..lin.D.3A.5CCANFDGwMcuFirmRH850F1x.5Ccode.5CCANFDGwMcuFirmRH850F1x.5CCANFDGwMcuFirmRH850F1x.5Cprj.5CGHS.20MULTI.5CCAN.20Gateway.5Coutput.5Cobj.5Cpe1.5CCan.52::
                        1888 .LDWlin52:
00000f76 3cdf0d00       1889 	ld.w	12[r28],r27
                        1890 --703: 	for (idx = 0; idx < ConfigPtr->NumberOfRxFifoObject; idx++)
00000f7a 00ea           1891 	mov	0,r29
00000f7c e525*          1892 	br	.L443
                        1893 .L442:
                        1894 --704: 	{
                        1895 --705: 		RSCFD_SetRFIFO(can_rxfifo_cfgtbl[idx].UnitIdx, can_rxfifo_cfgtbl[idx].FifoIdx, can_rxfifo_cfgtbl[idx].FifoDepth,
                        1896 --line705
                        1897 ..lin.D.3A.5CCANFDGwMcuFirmRH850F1x.5Ccode.5CCANFDGwMcuFirmRH850F1x.5CCANFDGwMcuFirmRH850F1x.5Cprj.5CGHS.20MULTI.5CCAN.20Gateway.5Coutput.5Cobj.5Cpe1.5CCan.53::
                        1898 .LDWlin53:
00000f7e 1d08           1899 	mov	r29,r1
00000f80 c30a           1900 	shl	3,r1
00000f82 01f0           1901 	mov	r1,ep
00000f84 dbf1           1902 	add	r27,ep
00000f86 6030           1903 	sld.bu	0[ep],r6
00000f88 1d08           1904 	mov	r29,r1
00000f8a c30a           1905 	shl	3,r1

                                                                      Page 34
                                                              C:\Users\TIEZHU~1\AppData\Local\Temp\gh_00006hc1.si
00000f8c 01f0           1906 	mov	r1,ep
00000f8e dbf1           1907 	add	r27,ep
00000f90 6138           1908 	sld.bu	1[ep],r7
00000f92 1d08           1909 	mov	r29,r1
00000f94 c30a           1910 	shl	3,r1
00000f96 01f0           1911 	mov	r1,ep
00000f98 dbf1           1912 	add	r27,ep
00000f9a 0245           1913 	sld.w	4[ep],r8
00000f9c 074a           1914 	mov	7,r9
                        1915 	jarl	_RSCFD_SetRFIFO,lp
                        1915 <EXPANSION BEGIN>
                        1915 jarl22 _RSCFD_SetRFIFO , lp 
00000f9e 80ff0000*      1915 <EXPANSION END>
                        1916 --706: 		               RSCFD_FIFO_PAYLOAD_64_BYTE);
                        1917 --707: 		RSCFD_SetRFIFOInterrupt(can_rxfifo_cfgtbl[idx].UnitIdx, can_rxfifo_cfgtbl[idx].FifoIdx,
                        1918 --line707
                        1919 ..lin.D.3A.5CCANFDGwMcuFirmRH850F1x.5Ccode.5CCANFDGwMcuFirmRH850F1x.5CCANFDGwMcuFirmRH850F1x.5Cprj.5CGHS.20MULTI.5CCAN.20Gateway.5Coutput.5Cobj.5Cpe1.5CCan.54::
                        1920 .LDWlin54:
00000fa2 1d08           1921 	mov	r29,r1
00000fa4 c30a           1922 	shl	3,r1
00000fa6 01f0           1923 	mov	r1,ep
00000fa8 dbf1           1924 	add	r27,ep
00000faa 6030           1925 	sld.bu	0[ep],r6
00000fac 1d08           1926 	mov	r29,r1
00000fae c30a           1927 	shl	3,r1
00000fb0 01f0           1928 	mov	r1,ep
00000fb2 dbf1           1929 	add	r27,ep
00000fb4 6138           1930 	sld.bu	1[ep],r7
00000fb6 070a           1931 	mov	7,r1
00000fb8 630f0100       1932 	st.w	r1,0[sp]
00000fbc 0142           1933 	mov	1,r8
00000fbe 014a           1934 	mov	1,r9
                        1935 	jarl	_RSCFD_SetRFIFOInterrupt,lp
                        1935 <EXPANSION BEGIN>
                        1935 jarl22 _RSCFD_SetRFIFOInterrupt , lp 
00000fc0 80ff0000*      1935 <EXPANSION END>
                        1936 --line703
                        1937 ..lin.D.3A.5CCANFDGwMcuFirmRH850F1x.5Ccode.5CCANFDGwMcuFirmRH850F1x.5CCANFDGwMcuFirmRH850F1x.5Cprj.5CGHS.20MULTI.5CCAN.20Gateway.5Coutput.5Cobj.5Cpe1.5CCan.55::
                        1938 .LDWlin55:
00000fc4 41ea           1939 	add	1,r29
00000fc6 9d00           1940 	zxb	r29
                        1941 .L443:
00000fc8 9c0f0900       1942 	ld.bu	8[r28],r1
00000fcc e1e9           1943 	cmp	r1,r29
00000fce 81dd*          1944 	bl	.L442
                        1945 --708: 		RSCFD_TRUE,
                        1946 --709: 		                        RSCFD_FIFO_INT_MODE_ONE_MESSAGE, RSCFD_FIFO_INT_COUNTER_FULL);
                        1947 --710: 	}
                        1948 --711: } /* End of function can_init_global() */
                        1949 --	    .ef
                        1950 .LDW62:
                        1951 --line711
                        1952 ..lin.D.3A.5CCANFDGwMcuFirmRH850F1x.5Ccode.5CCANFDGwMcuFirmRH850F1x.5CCANFDGwMcuFirmRH850F1x.5Cprj.5CGHS.20MULTI.5CCAN.20Gateway.5Coutput.5Cobj.5Cpe1.5CCan.56::
                        1953 .LDWlin56:
00000fd0 23ff1100       1954 	ld.w	16[sp],lp
00000fd4 23ef0500       1955 	ld.w	4[sp],r29
00000fd8 23e70900       1956 	ld.w	8[sp],r28
00000fdc 23df0d00       1957 	ld.w	12[sp],r27
00000fe0 031e1400       1958 	addi	20,sp,sp
00000fe4 7f00           1959 	jmp	[lp]
                        1960 	.type	_can_init_global,@function

                                                                      Page 35
                                                              C:\Users\TIEZHU~1\AppData\Local\Temp\gh_00006hc1.si
                        1961 	.size	_can_init_global,.-_can_init_global
                        1962 	.type	_can_init_global..D.3A.5CCANFDGwMcuFirmRH850F1x.5Ccode.5CCANFDGwMcuFirmRH850F1x.5CCANFDGwMcuFirmRH850F1x.5Cprj.5CGHS.20MULTI.5CCAN.20Gateway.5Coutput.5Cobj.5Cpe1.5CCan.,@function
                        1963 	.size	_can_init_global..D.3A.5CCANFDGwMcuFirmRH850F1x.5Ccode.5CCANFDGwMcuFirmRH850F1x.5CCANFDGwMcuFirmRH850F1x.5Cprj.5CGHS.20MULTI.5CCAN.20Gateway.5Coutput.5Cobj.5Cpe1.5CCan.,.-_can_init_global..D.3A.5CCANFDGwMcuFirmRH850F1x.5Ccode.5CCANFDGwMcuFirmRH850F1x.5CCANFDGwMcuFirmRH850F1x.5Cprj.5CGHS.20MULTI.5CCAN.20Gateway.5Coutput.5Cobj.5Cpe1.5CCan.
                        1964 	.align	2
                        1965 .LDW72:
                        1966 --_global_settings	r1	local
                        1967 --_idx	r29	local
                        1968 --_can_rxfifo_cfgtbl	r27	local
                        1969 --_phy_chn_idx	r29	local
                        1970 --_cur_chn_cfgtbl_index	r1	local
                        1971 
                        1972 --_ConfigPtr	r28	param
                        1973 
                        1974 	.data
                        1975 	.text
                        1976 
                        1977 
                        1978 --713: /***********************************************************************************************************************
                        1979 --714:  * Function Name: can_get_current_afl_idx
                        1980 --715:  * Description  : This function gets current channel AFL start index for writing.
                        1981 --716:  * Arguments    : PhyChnIdx -
                        1982 --717:  *                    CAN physical channel index
                        1983 --718:  * Return Value : current AFL index
                        1984 --719:  ***********************************************************************************************************************/
                        1985 --720: static uint16_t can_get_current_afl_idx(uint8_t PhyChnIdx)
                        1986 	.align	2
                        1987 	.align	2
                        1988 	.global	_can_get_current_afl_idx..D.3A.5CCANFDGwMcuFirmRH850F1x.5Ccode.5CCANFDGwMcuFirmRH850F1x.5CCANFDGwMcuFirmRH850F1x.5Cprj.5CGHS.20MULTI.5CCAN.20Gateway.5Coutput.5Cobj.5Cpe1.5CCan.
                        1989 _can_get_current_afl_idx..D.3A.5CCANFDGwMcuFirmRH850F1x.5Ccode.5CCANFDGwMcuFirmRH850F1x.5CCANFDGwMcuFirmRH850F1x.5Cprj.5CGHS.20MULTI.5CCAN.20Gateway.5Coutput.5Cobj.5Cpe1.5CCan.:
                        1990 _can_get_current_afl_idx:
00000fe6 8600           1991 	zxb	r6
                        1992 --	    .bf
                        1993 .LDW82:
                        1994 --721: {
                        1995 --722: 	uint8_t idx;
                        1996 --723: 	uint8_t can_controller_tbl_index;
                        1997 --724: 	uint8_t target_unit_id;
                        1998 --725: 	uint8_t current_unit_id;
                        1999 --726: 	uint16_t afl_num;
                        2000 --728: 	afl_num = 0U;
00000fe8 0012           2001 	mov	0,r2
                        2002 --729: 	/* Get current physical channel configure table address */
                        2003 --730: 	can_controller_tbl_index = Can_PbConfig.CanPhysicalIdToSystemIdTable[PhyChnIdx];
00000fea 210600000000*  2004 	mov	_Can_PbConfig,r1
00000ff0 010e1800       2005 	addi	24,r1,r1
00000ff4 06f0           2006 	mov	r6,ep
00000ff6 c1f1           2007 	add	r1,ep
00000ff8 6098           2008 	sld.bu	0[ep],r19
                        2009 --731: 	target_unit_id = Can_PbConfig.CanControllerTable[can_controller_tbl_index].UnitIdx;
00000ffa 1308           2010 	mov	r19,r1
00000ffc e40f4402       2011 	mul	36,r1,zero
00001000 2b0600000000*  2012 	mov	_Can_PbConfig+4,r11
00001006 2b9f0100       2013 	ld.w	0[r11],r19
0000100a 01f0           2014 	mov	r1,ep
0000100c d3f1           2015 	add	r19,ep
0000100e 6488           2016 	sld.bu	4[ep],r17
                        2017 --732: 	for (idx = 0U; idx < PhyChnIdx; idx++)
00001010 000a           2018 	mov	0,r1
00001012 c525*          2019 	br	.L502
                        2020 .L501:
                        2021 --733: 	{

                                                                      Page 36
                                                              C:\Users\TIEZHU~1\AppData\Local\Temp\gh_00006hc1.si
                        2022 --734: 		can_controller_tbl_index = Can_PbConfig.CanPhysicalIdToSystemIdTable[idx];
                        2023 --line734
                        2024 ..lin.D.3A.5CCANFDGwMcuFirmRH850F1x.5Ccode.5CCANFDGwMcuFirmRH850F1x.5CCANFDGwMcuFirmRH850F1x.5Cprj.5CGHS.20MULTI.5CCAN.20Gateway.5Coutput.5Cobj.5Cpe1.5CCan.57::
                        2025 .LDWlin57:
00001014 330600000000*  2026 	mov	_Can_PbConfig,r19
0000101a 139e1800       2027 	addi	24,r19,r19
0000101e 01f0           2028 	mov	r1,ep
00001020 d3f1           2029 	add	r19,ep
00001022 6098           2030 	sld.bu	0[ep],r19
                        2031 --735: 		current_unit_id = Can_PbConfig.CanControllerTable[can_controller_tbl_index].UnitIdx;
00001024 1390           2032 	mov	r19,r18
00001026 e4974402       2033 	mul	36,r18,zero
0000102a 2b0600000000*  2034 	mov	_Can_PbConfig+4,r11
00001030 2b870100       2035 	ld.w	0[r11],r16
00001034 12f0           2036 	mov	r18,ep
00001036 d0f1           2037 	add	r16,ep
00001038 6490           2038 	sld.bu	4[ep],r18
                        2039 --736: 		if (target_unit_id == current_unit_id)
0000103a f289           2040 	cmp	r18,r17
0000103c da0d*          2041 	bne	.L500
                        2042 --737: 		{
                        2043 --738: 			/* Calculate AFL number of same unit */
                        2044 --739: 			afl_num += Can_PbConfig.CanControllerTable[can_controller_tbl_index].NumOfAFL;
                        2045 --line739
                        2046 ..lin.D.3A.5CCANFDGwMcuFirmRH850F1x.5Ccode.5CCANFDGwMcuFirmRH850F1x.5CCANFDGwMcuFirmRH850F1x.5Cprj.5CGHS.20MULTI.5CCAN.20Gateway.5Coutput.5Cobj.5Cpe1.5CCan.58::
                        2047 .LDWlin58:
0000103e e49f4402       2048 	mul	36,r19,zero
00001042 2b0600000000*  2049 	mov	_Can_PbConfig+4,r11
00001048 2b970100       2050 	ld.w	0[r11],r18
0000104c d299           2051 	add	r18,r19
0000104e 939f1900       2052 	ld.bu	24[r19],r19
00001052 d311           2053 	add	r19,r2
00001054 c200           2054 	zxh	r2
                        2055 .L500:
00001056 410a           2056 	add	1,r1
00001058 8100           2057 	zxb	r1
                        2058 .L502:
0000105a e609           2059 	cmp	r6,r1
0000105c c1dd*          2060 	bl	.L501
                        2061 --740: 		}
                        2062 --741: 	}
                        2063 --743: 	return afl_num;
                        2064 --line743
                        2065 ..lin.D.3A.5CCANFDGwMcuFirmRH850F1x.5Ccode.5CCANFDGwMcuFirmRH850F1x.5CCANFDGwMcuFirmRH850F1x.5Cprj.5CGHS.20MULTI.5CCAN.20Gateway.5Coutput.5Cobj.5Cpe1.5CCan.59::
                        2066 .LDWlin59:
0000105e 0250           2067 	mov	r2,r10
                        2068 --	    .ef
                        2069 .LDW92:
00001060 7f00           2070 	jmp	[lp]
                        2071 	.type	_can_get_current_afl_idx,@function
                        2072 	.size	_can_get_current_afl_idx,.-_can_get_current_afl_idx
                        2073 	.type	_can_get_current_afl_idx..D.3A.5CCANFDGwMcuFirmRH850F1x.5Ccode.5CCANFDGwMcuFirmRH850F1x.5CCANFDGwMcuFirmRH850F1x.5Cprj.5CGHS.20MULTI.5CCAN.20Gateway.5Coutput.5Cobj.5Cpe1.5CCan.,@function
                        2074 	.size	_can_get_current_afl_idx..D.3A.5CCANFDGwMcuFirmRH850F1x.5Ccode.5CCANFDGwMcuFirmRH850F1x.5CCANFDGwMcuFirmRH850F1x.5Cprj.5CGHS.20MULTI.5CCAN.20Gateway.5Coutput.5Cobj.5Cpe1.5CCan.,.-_can_get_current_afl_idx..D.3A.5CCANFDGwMcuFirmRH850F1x.5Ccode.5CCANFDGwMcuFirmRH850F1x.5CCANFDGwMcuFirmRH850F1x.5Cprj.5CGHS.20MULTI.5CCAN.20Gateway.5Coutput.5Cobj.5Cpe1.5CCan.
                        2075 	.align	2
                        2076 .LDW03:
                        2077 --_idx	r1	local
                        2078 --_can_controller_tbl_index	r19	local
                        2079 --_target_unit_id	r17	local
                        2080 --_current_unit_id	r18	local
                        2081 --_afl_num	r2	local
                        2082 

                                                                      Page 37
                                                              C:\Users\TIEZHU~1\AppData\Local\Temp\gh_00006hc1.si
                        2083 --_PhyChnIdx	r6	param
                        2084 
                        2085 	.data
                        2086 	.text
                        2087 
                        2088 --744: } /* End of function can_get_current_afl_idx() */
                        2089 
                        2090 --746: /***********************************************************************************************************************
                        2091 --747:  * Function Name: can_set_tdc
                        2092 --748:  * Description  : This function sets TDC if in CANFD mode.
                        2093 --749:  * Arguments    : UnitId -
                        2094 --750:  *                    unit index for CAN physical channel
                        2095 --751:  *                ChannelId -
                        2096 --752:  *                    CAN physical channel index
                        2097 --753:  *               pCanCfg -
                        2098 --754:  *                   pointer to can controller configuration
                        2099 --755:  * Return Value : none
                        2100 --756:  ***********************************************************************************************************************/
                        2101 --757: static void can_set_tdc(uint8_t UnitId, uint8_t ChannelId, const can_controller_cfg_t* pCanCfg)
                        2102 	.align	2
                        2103 	.align	2
                        2104 	.global	_can_set_tdc..D.3A.5CCANFDGwMcuFirmRH850F1x.5Ccode.5CCANFDGwMcuFirmRH850F1x.5CCANFDGwMcuFirmRH850F1x.5Cprj.5CGHS.20MULTI.5CCAN.20Gateway.5Coutput.5Cobj.5Cpe1.5CCan.
                        2105 _can_set_tdc..D.3A.5CCANFDGwMcuFirmRH850F1x.5Ccode.5CCANFDGwMcuFirmRH850F1x.5CCANFDGwMcuFirmRH850F1x.5Cprj.5CGHS.20MULTI.5CCAN.20Gateway.5Coutput.5Cobj.5Cpe1.5CCan.:
                        2106 _can_set_tdc:
00001062 581a           2107 	add	-8,sp
00001064 63ff0500       2108 	st.w	lp,4[sp]
00001068 8600           2109 	zxb	r6
0000106a 8700           2110 	zxb	r7
0000106c 08f0           2111 	mov	r8,ep
                        2112 --	    .bf
                        2113 .LDW13:
                        2114 --758: {
                        2115 --759: 	if (RSCFD_CAN_VER_CLASSICAL_B != pCanCfg->CanNetworkType)
0000106e 000d           2116 	sld.w	0[ep],r1
00001070 e009           2117 	cmp	zero,r1
00001072 920d*          2118 	be	.L556
                        2119 --760: 	{
                        2120 --761: 		RSCFD_SetChannelTDC(UnitId, ChannelId, TRUE, RSCFD_TDC_OFFSET_ONLY, pCanCfg->Baudrate.can_fd_brp_cfg.TdcOffset);
                        2121 --line761
                        2122 ..lin.D.3A.5CCANFDGwMcuFirmRH850F1x.5Ccode.5CCANFDGwMcuFirmRH850F1x.5CCANFDGwMcuFirmRH850F1x.5Cprj.5CGHS.20MULTI.5CCAN.20Gateway.5Coutput.5Cobj.5Cpe1.5CCan.60::
                        2123 .LDWlin60:
00001074 9e0f1700       2124 	ld.bu	22[ep],r1
00001078 630f0100       2125 	st.w	r1,0[sp]
0000107c 0142           2126 	mov	1,r8
0000107e 014a           2127 	mov	1,r9
                        2128 	jarl	_RSCFD_SetChannelTDC,lp
                        2128 <EXPANSION BEGIN>
                        2128 jarl22 _RSCFD_SetChannelTDC , lp 
00001080 80ff0000*      2128 <EXPANSION END>
                        2129 .L556:
                        2130 --762: 	}
                        2131 --763: } /* End of function can_set_tdc() */
                        2132 --	    .ef
                        2133 .LDW23:
                        2134 --line763
                        2135 ..lin.D.3A.5CCANFDGwMcuFirmRH850F1x.5Ccode.5CCANFDGwMcuFirmRH850F1x.5CCANFDGwMcuFirmRH850F1x.5Cprj.5CGHS.20MULTI.5CCAN.20Gateway.5Coutput.5Cobj.5Cpe1.5CCan.61::
                        2136 .LDWlin61:
00001084 23ff0500       2137 	ld.w	4[sp],lp
00001088 481a           2138 	add	8,sp
0000108a 7f00           2139 	jmp	[lp]
                        2140 	.type	_can_set_tdc,@function

                                                                      Page 38
                                                              C:\Users\TIEZHU~1\AppData\Local\Temp\gh_00006hc1.si
                        2141 	.size	_can_set_tdc,.-_can_set_tdc
                        2142 	.type	_can_set_tdc..D.3A.5CCANFDGwMcuFirmRH850F1x.5Ccode.5CCANFDGwMcuFirmRH850F1x.5CCANFDGwMcuFirmRH850F1x.5Cprj.5CGHS.20MULTI.5CCAN.20Gateway.5Coutput.5Cobj.5Cpe1.5CCan.,@function
                        2143 	.size	_can_set_tdc..D.3A.5CCANFDGwMcuFirmRH850F1x.5Ccode.5CCANFDGwMcuFirmRH850F1x.5CCANFDGwMcuFirmRH850F1x.5Cprj.5CGHS.20MULTI.5CCAN.20Gateway.5Coutput.5Cobj.5Cpe1.5CCan.,.-_can_set_tdc..D.3A.5CCANFDGwMcuFirmRH850F1x.5Ccode.5CCANFDGwMcuFirmRH850F1x.5CCANFDGwMcuFirmRH850F1x.5Cprj.5CGHS.20MULTI.5CCAN.20Gateway.5Coutput.5Cobj.5Cpe1.5CCan.
                        2144 	.align	2
                        2145 .LDW33:
                        2146 
                        2147 --_UnitId	r6	param
                        2148 --_ChannelId	r7	param
                        2149 --_pCanCfg	ep	param
                        2150 
                        2151 	.data
                        2152 	.text
                        2153 
                        2154 
                        2155 --765: /***********************************************************************************************************************
                        2156 --766:  * Function Name: can_set_afl
                        2157 --767:  * Description  : This function sets AFL to specified CAN channel.
                        2158 --768:  * Arguments    : PhyChnIdx -
                        2159 --769:  *                    specified physical channel index
                        2160 --770:  *               UnitId -
                        2161 --771:  *                   unit index for CAN physical channel
                        2162 --772:  *               ChannelId -
                        2163 --773:  *                   CAN physical channel index
                        2164 --774:  *               pCanCfg -
                        2165 --775:  *                   pointer to can controller configuration
                        2166 --776:  * Return Value : none
                        2167 --777:  ***********************************************************************************************************************/
                        2168 --778: static void can_set_afl(uint8_t PhyChnIdx, uint8_t UnitId, uint8_t ChannelId, const can_controller_cfg_t* pCanCfg)
                        2169 	.align	2
                        2170 	.align	2
                        2171 	.global	_can_set_afl..D.3A.5CCANFDGwMcuFirmRH850F1x.5Ccode.5CCANFDGwMcuFirmRH850F1x.5CCANFDGwMcuFirmRH850F1x.5Cprj.5CGHS.20MULTI.5CCAN.20Gateway.5Coutput.5Cobj.5Cpe1.5CCan.
                        2172 _can_set_afl..D.3A.5CCANFDGwMcuFirmRH850F1x.5Ccode.5CCANFDGwMcuFirmRH850F1x.5CCANFDGwMcuFirmRH850F1x.5Cprj.5CGHS.20MULTI.5CCAN.20Gateway.5Coutput.5Cobj.5Cpe1.5CCan.:
                        2173 _can_set_afl:
0000108c 031ed8ff       2174 	addi	-40,sp,sp
00001090 63ff2500       2175 	st.w	lp,36[sp]
00001094 63cf2100       2176 	st.w	r25,32[sp]
00001098 63d71d00       2177 	st.w	r26,28[sp]
0000109c 63df1900       2178 	st.w	r27,24[sp]
000010a0 63e71500       2179 	st.w	r28,20[sp]
000010a4 63ef1100       2180 	st.w	r29,16[sp]
000010a8 c6eeff00       2181 	andi	255,r6,r29
000010ac c7ceff00       2182 	andi	255,r7,r25
000010b0 8800           2183 	zxb	r8
000010b2 09d0           2184 	mov	r9,r26
                        2185 --	    .bf
                        2186 .LDW43:
                        2187 --779: {
                        2188 --780: 	const can_afl_t* const * p_afl_table;
                        2189 --781: 	uint16_t current_afl_idx;
                        2190 --782: 	uint8_t afl_idx;
                        2191 --783: 	/* MISRA C:2012 Violation - Rule 1.3 */
                        2192 --784: 	/* Justification - typedef is defined but not checked by lint */
                        2193 --785: 	T_GAFL rx_rule;
                        2194 --787: 	RSCFD_SetAFLNumber(UnitId, ChannelId, pCanCfg->NumOfAFL);
000010b4 1930           2195 	mov	r25,r6
000010b6 0838           2196 	mov	r8,r7
000010b8 9a471900       2197 	ld.bu	24[r26],r8
                        2198 	jarl	_RSCFD_SetAFLNumber,lp
                        2198 <EXPANSION BEGIN>
                        2198 jarl22 _RSCFD_SetAFLNumber , lp 
000010bc 80ff0000*      2198 <EXPANSION END>

                                                                      Page 39
                                                              C:\Users\TIEZHU~1\AppData\Local\Temp\gh_00006hc1.si
                        2199 --788: 	p_afl_table = pCanCfg->AFLTable;
                        2200 --line788
                        2201 ..lin.D.3A.5CCANFDGwMcuFirmRH850F1x.5Ccode.5CCANFDGwMcuFirmRH850F1x.5CCANFDGwMcuFirmRH850F1x.5Cprj.5CGHS.20MULTI.5CCAN.20Gateway.5Coutput.5Cobj.5Cpe1.5CCan.62::
                        2202 .LDWlin62:
000010c0 3adf1d00       2203 	ld.w	28[r26],r27
                        2204 --789: 	current_afl_idx = can_get_current_afl_idx(PhyChnIdx);
000010c4 1d30           2205 	mov	r29,r6
                        2206 	jarl	_can_get_current_afl_idx,lp
                        2206 <EXPANSION BEGIN>
                        2206 jarl22 _can_get_current_afl_idx , lp 
000010c6 bfff20ff*      2206 <EXPANSION END>
000010ca 0ae0           2207 	mov	r10,r28
                        2208 --790: 	for (afl_idx = (uint8_t) 0U; afl_idx < pCanCfg->NumOfAFL; afl_idx++)
                        2209 --line790
                        2210 ..lin.D.3A.5CCANFDGwMcuFirmRH850F1x.5Ccode.5CCANFDGwMcuFirmRH850F1x.5CCANFDGwMcuFirmRH850F1x.5Cprj.5CGHS.20MULTI.5CCAN.20Gateway.5Coutput.5Cobj.5Cpe1.5CCan.63::
                        2211 .LDWlin63:
000010cc 00ea           2212 	mov	0,r29
000010ce b52d*          2213 	br	.L589
                        2214 .L588:
                        2215 --791: 	{
                        2216 --792: 		rx_rule.GAFLID.LONG = p_afl_table[afl_idx]->AFLIDSettings;
                        2217 --line792
                        2218 ..lin.D.3A.5CCANFDGwMcuFirmRH850F1x.5Ccode.5CCANFDGwMcuFirmRH850F1x.5CCANFDGwMcuFirmRH850F1x.5Cprj.5CGHS.20MULTI.5CCAN.20Gateway.5Coutput.5Cobj.5Cpe1.5CCan.64::
                        2219 .LDWlin64:
000010d0 1d08           2220 	mov	r29,r1
000010d2 c20a           2221 	shl	2,r1
000010d4 01f0           2222 	mov	r1,ep
000010d6 dbf1           2223 	add	r27,ep
000010d8 00f5           2224 	sld.w	0[ep],ep
000010da 000d           2225 	sld.w	0[ep],r1
000010dc 630f0100       2226 	st.w	r1,0[sp]
                        2227 --793: 		rx_rule.GAFLM.LONG = p_afl_table[afl_idx]->AFLMSettings;
000010e0 1d08           2228 	mov	r29,r1
000010e2 c20a           2229 	shl	2,r1
000010e4 01f0           2230 	mov	r1,ep
000010e6 dbf1           2231 	add	r27,ep
000010e8 00f5           2232 	sld.w	0[ep],ep
000010ea 020d           2233 	sld.w	4[ep],r1
000010ec 630f0500       2234 	st.w	r1,4[sp]
                        2235 --794: 		rx_rule.GAFLP0.LONG = p_afl_table[afl_idx]->AFLP0Settings;
000010f0 1d08           2236 	mov	r29,r1
000010f2 c20a           2237 	shl	2,r1
000010f4 01f0           2238 	mov	r1,ep
000010f6 dbf1           2239 	add	r27,ep
000010f8 00f5           2240 	sld.w	0[ep],ep
000010fa 040d           2241 	sld.w	8[ep],r1
000010fc 630f0900       2242 	st.w	r1,8[sp]
                        2243 --795: 		rx_rule.GAFLP1.LONG = p_afl_table[afl_idx]->AFLP1Settings;
00001100 1d08           2244 	mov	r29,r1
00001102 c20a           2245 	shl	2,r1
00001104 01f0           2246 	mov	r1,ep
00001106 dbf1           2247 	add	r27,ep
00001108 00f5           2248 	sld.w	0[ep],ep
0000110a 060d           2249 	sld.w	12[ep],r1
0000110c 630f0d00       2250 	st.w	r1,12[sp]
                        2251 --796: 		/* MISRA C:2012 Violation - Rule 1.3 */
                        2252 --797: 		/* Justification - Taking address of near auto variable is unavoidable */
                        2253 --798: 		RSCFD_WriteAFL(UnitId, current_afl_idx, &rx_rule);
00001110 1930           2254 	mov	r25,r6
00001112 1c38           2255 	mov	r28,r7
00001114 23460000       2256 	movea	0,sp,r8

                                                                      Page 40
                                                              C:\Users\TIEZHU~1\AppData\Local\Temp\gh_00006hc1.si
                        2257 	jarl	_RSCFD_WriteAFL,lp
                        2257 <EXPANSION BEGIN>
                        2257 jarl22 _RSCFD_WriteAFL , lp 
00001118 80ff0000*      2257 <EXPANSION END>
                        2258 --799: 		current_afl_idx++;
                        2259 --line799
                        2260 ..lin.D.3A.5CCANFDGwMcuFirmRH850F1x.5Ccode.5CCANFDGwMcuFirmRH850F1x.5CCANFDGwMcuFirmRH850F1x.5Cprj.5CGHS.20MULTI.5CCAN.20Gateway.5Coutput.5Cobj.5Cpe1.5CCan.65::
                        2261 .LDWlin65:
0000111c 41e2           2262 	add	1,r28
0000111e dc00           2263 	zxh	r28
00001120 41ea           2264 	add	1,r29
00001122 9d00           2265 	zxb	r29
                        2266 .L589:
00001124 9a0f1900       2267 	ld.bu	24[r26],r1
00001128 e1e9           2268 	cmp	r1,r29
0000112a b1d5*          2269 	bl	.L588
                        2270 --800: 	}
                        2271 --801: 	/* MISRA C:2012 Violation - Rule 2.2 */
                        2272 --802: 	/* Justification - table is used in above loop */
                        2273 --803: } /* End of function can_set_afl() */
                        2274 --	    .ef
                        2275 .LDW53:
                        2276 --line803
                        2277 ..lin.D.3A.5CCANFDGwMcuFirmRH850F1x.5Ccode.5CCANFDGwMcuFirmRH850F1x.5CCANFDGwMcuFirmRH850F1x.5Cprj.5CGHS.20MULTI.5CCAN.20Gateway.5Coutput.5Cobj.5Cpe1.5CCan.66::
                        2278 .LDWlin66:
0000112c 23ff2500       2279 	ld.w	36[sp],lp
00001130 23ef1100       2280 	ld.w	16[sp],r29
00001134 23e71500       2281 	ld.w	20[sp],r28
00001138 23df1900       2282 	ld.w	24[sp],r27
0000113c 23d71d00       2283 	ld.w	28[sp],r26
00001140 23cf2100       2284 	ld.w	32[sp],r25
00001144 031e2800       2285 	addi	40,sp,sp
00001148 7f00           2286 	jmp	[lp]
                        2287 	.type	_can_set_afl,@function
                        2288 	.size	_can_set_afl,.-_can_set_afl
                        2289 	.type	_can_set_afl..D.3A.5CCANFDGwMcuFirmRH850F1x.5Ccode.5CCANFDGwMcuFirmRH850F1x.5CCANFDGwMcuFirmRH850F1x.5Cprj.5CGHS.20MULTI.5CCAN.20Gateway.5Coutput.5Cobj.5Cpe1.5CCan.,@function
                        2290 	.size	_can_set_afl..D.3A.5CCANFDGwMcuFirmRH850F1x.5Ccode.5CCANFDGwMcuFirmRH850F1x.5CCANFDGwMcuFirmRH850F1x.5Cprj.5CGHS.20MULTI.5CCAN.20Gateway.5Coutput.5Cobj.5Cpe1.5CCan.,.-_can_set_afl..D.3A.5CCANFDGwMcuFirmRH850F1x.5Ccode.5CCANFDGwMcuFirmRH850F1x.5CCANFDGwMcuFirmRH850F1x.5Cprj.5CGHS.20MULTI.5CCAN.20Gateway.5Coutput.5Cobj.5Cpe1.5CCan.
                        2291 	.align	2
                        2292 .LDW63:
                        2293 --_p_afl_table	r27	local
                        2294 --_current_afl_idx	r28	local
                        2295 --_afl_idx	r29	local
                        2296 --_rx_rule	0[sp]	local
                        2297 
                        2298 --_PhyChnIdx	r29	param
                        2299 --_UnitId	r25	param
                        2300 --_ChannelId	r8	param
                        2301 --_pCanCfg	r26	param
                        2302 
                        2303 	.data
                        2304 	.text
                        2305 
                        2306 
                        2307 --805: /***********************************************************************************************************************
                        2308 --806:  * Function Name: can_set_txbuffer
                        2309 --807:  * Description  : This function sets Tx buffer.
                        2310 --808:  * Arguments    : UnitId -
                        2311 --809:  *                   unit index for CAN physical channel
                        2312 --810:  *               ChannelId -
                        2313 --811:  *                   CAN physical channel index
                        2314 --812:  *               pCanCfg -

                                                                      Page 41
                                                              C:\Users\TIEZHU~1\AppData\Local\Temp\gh_00006hc1.si
                        2315 --813:  *                   pointer to can controller configuration
                        2316 --814:  * Return Value : none
                        2317 --815:  ***********************************************************************************************************************/
                        2318 --816: static void can_set_txbuffer(uint8_t UnitId, uint8_t ChannelId, const can_controller_cfg_t* pCanCfg)
                        2319 	.align	2
                        2320 	.align	2
                        2321 	.global	_can_set_txbuffer..D.3A.5CCANFDGwMcuFirmRH850F1x.5Ccode.5CCANFDGwMcuFirmRH850F1x.5CCANFDGwMcuFirmRH850F1x.5Cprj.5CGHS.20MULTI.5CCAN.20Gateway.5Coutput.5Cobj.5Cpe1.5CCan.
                        2322 _can_set_txbuffer..D.3A.5CCANFDGwMcuFirmRH850F1x.5Ccode.5CCANFDGwMcuFirmRH850F1x.5CCANFDGwMcuFirmRH850F1x.5Cprj.5CGHS.20MULTI.5CCAN.20Gateway.5Coutput.5Cobj.5Cpe1.5CCan.:
                        2323 _can_set_txbuffer:
0000114a 5c1a           2324 	add	-4,sp
0000114c 63ff0100       2325 	st.w	lp,0[sp]
00001150 8600           2326 	zxb	r6
00001152 8700           2327 	zxb	r7
00001154 08f0           2328 	mov	r8,ep
                        2329 --	    .bf
                        2330 .LDW73:
                        2331 --817: {
                        2332 --818: 	if (RSCFD_CAN_VER_CLASSICAL_B != pCanCfg->CanNetworkType)
00001156 000d           2333 	sld.w	0[ep],r1
00001158 e009           2334 	cmp	zero,r1
0000115a c205*          2335 	be	.L621
                        2336 --819: 	{
                        2337 --820: 		RSCFD_SetTMBMergeMode(UnitId, ChannelId, RSCFD_ENABLE);
                        2338 --line820
                        2339 ..lin.D.3A.5CCANFDGwMcuFirmRH850F1x.5Ccode.5CCANFDGwMcuFirmRH850F1x.5CCANFDGwMcuFirmRH850F1x.5Cprj.5CGHS.20MULTI.5CCAN.20Gateway.5Coutput.5Cobj.5Cpe1.5CCan.67::
                        2340 .LDWlin67:
0000115c 0142           2341 	mov	1,r8
                        2342 	jarl	_RSCFD_SetTMBMergeMode,lp
                        2342 <EXPANSION BEGIN>
                        2342 jarl22 _RSCFD_SetTMBMergeMode , lp 
0000115e 80ff0000*      2342 <EXPANSION END>
                        2343 .L621:
                        2344 --821: 	}
                        2345 --822: } /* End of function can_set_txbuffer() */
                        2346 --	    .ef
                        2347 .LDW83:
                        2348 --line822
                        2349 ..lin.D.3A.5CCANFDGwMcuFirmRH850F1x.5Ccode.5CCANFDGwMcuFirmRH850F1x.5CCANFDGwMcuFirmRH850F1x.5Cprj.5CGHS.20MULTI.5CCAN.20Gateway.5Coutput.5Cobj.5Cpe1.5CCan.68::
                        2350 .LDWlin68:
00001162 23ff0100       2351 	ld.w	0[sp],lp
00001166 441a           2352 	add	4,sp
00001168 7f00           2353 	jmp	[lp]
                        2354 	.type	_can_set_txbuffer,@function
                        2355 	.size	_can_set_txbuffer,.-_can_set_txbuffer
                        2356 	.type	_can_set_txbuffer..D.3A.5CCANFDGwMcuFirmRH850F1x.5Ccode.5CCANFDGwMcuFirmRH850F1x.5CCANFDGwMcuFirmRH850F1x.5Cprj.5CGHS.20MULTI.5CCAN.20Gateway.5Coutput.5Cobj.5Cpe1.5CCan.,@function
                        2357 	.size	_can_set_txbuffer..D.3A.5CCANFDGwMcuFirmRH850F1x.5Ccode.5CCANFDGwMcuFirmRH850F1x.5CCANFDGwMcuFirmRH850F1x.5Cprj.5CGHS.20MULTI.5CCAN.20Gateway.5Coutput.5Cobj.5Cpe1.5CCan.,.-_can_set_txbuffer..D.3A.5CCANFDGwMcuFirmRH850F1x.5Ccode.5CCANFDGwMcuFirmRH850F1x.5CCANFDGwMcuFirmRH850F1x.5Cprj.5CGHS.20MULTI.5CCAN.20Gateway.5Coutput.5Cobj.5Cpe1.5CCan.
                        2358 	.align	2
                        2359 .LDW93:
                        2360 
                        2361 --_UnitId	r6	param
                        2362 --_ChannelId	r7	param
                        2363 --_pCanCfg	ep	param
                        2364 
                        2365 	.data
                        2366 	.text
                        2367 
                        2368 
                        2369 --824: /***********************************************************************************************************************
                        2370 --825:  * Function Name: can_set_txq
                        2371 --826:  * Description  : This function sets Tx Queue depth and interrupt.
                        2372 --827:  * Arguments    : UnitId -

                                                                      Page 42
                                                              C:\Users\TIEZHU~1\AppData\Local\Temp\gh_00006hc1.si
                        2373 --828:  *                   unit index for CAN physical channel
                        2374 --829:  *               ChannelId -
                        2375 --830:  *                   CAN physical channel index
                        2376 --831:  * Return Value : none
                        2377 --832:  ***********************************************************************************************************************/
                        2378 --833: static void can_set_txq(uint8_t UnitId, uint8_t ChannelId)
                        2379 	.align	2
                        2380 	.align	2
                        2381 	.global	_can_set_txq..D.3A.5CCANFDGwMcuFirmRH850F1x.5Ccode.5CCANFDGwMcuFirmRH850F1x.5CCANFDGwMcuFirmRH850F1x.5Cprj.5CGHS.20MULTI.5CCAN.20Gateway.5Coutput.5Cobj.5Cpe1.5CCan.
                        2382 _can_set_txq..D.3A.5CCANFDGwMcuFirmRH850F1x.5Ccode.5CCANFDGwMcuFirmRH850F1x.5CCANFDGwMcuFirmRH850F1x.5Cprj.5CGHS.20MULTI.5CCAN.20Gateway.5Coutput.5Cobj.5Cpe1.5CCan.:
                        2383 _can_set_txq:
0000116a 541a           2384 	add	-12,sp
0000116c 63ff0900       2385 	st.w	lp,8[sp]
00001170 63e70500       2386 	st.w	r28,4[sp]
00001174 63ef0100       2387 	st.w	r29,0[sp]
00001178 c6eeff00       2388 	andi	255,r6,r29
0000117c c7e6ff00       2389 	andi	255,r7,r28
                        2390 --	    .bf
                        2391 .LDW04:
                        2392 --834: {
                        2393 --835: 	RSCFD_SetTxQ(UnitId, ChannelId, RSCFD_TXQ_DEPTH_10);
00001180 1d30           2394 	mov	r29,r6
00001182 1c38           2395 	mov	r28,r7
00001184 0942           2396 	mov	9,r8
                        2397 	jarl	_RSCFD_SetTxQ,lp
                        2397 <EXPANSION BEGIN>
                        2397 jarl22 _RSCFD_SetTxQ , lp 
00001186 80ff0000*      2397 <EXPANSION END>
                        2398 --836: 	RSCFD_SetTxQInterrupt(UnitId, ChannelId,
                        2399 --line836
                        2400 ..lin.D.3A.5CCANFDGwMcuFirmRH850F1x.5Ccode.5CCANFDGwMcuFirmRH850F1x.5CCANFDGwMcuFirmRH850F1x.5Cprj.5CGHS.20MULTI.5CCAN.20Gateway.5Coutput.5Cobj.5Cpe1.5CCan.69::
                        2401 .LDWlin69:
0000118a 1d30           2402 	mov	r29,r6
0000118c 1c38           2403 	mov	r28,r7
0000118e 0042           2404 	mov	0,r8
00001190 014a           2405 	mov	1,r9
                        2406 	jarl	_RSCFD_SetTxQInterrupt,lp
                        2406 <EXPANSION BEGIN>
                        2406 jarl22 _RSCFD_SetTxQInterrupt , lp 
00001192 80ff0000*      2406 <EXPANSION END>
                        2407 --837: 	RSCFD_FALSE,
                        2408 --838: 	                      RSCFD_TXQ_INT_MODE);
                        2409 --839: } /* End of function can_set_txq() */
                        2410 --	    .ef
                        2411 .LDW14:
                        2412 --line839
                        2413 ..lin.D.3A.5CCANFDGwMcuFirmRH850F1x.5Ccode.5CCANFDGwMcuFirmRH850F1x.5CCANFDGwMcuFirmRH850F1x.5Cprj.5CGHS.20MULTI.5CCAN.20Gateway.5Coutput.5Cobj.5Cpe1.5CCan.70::
                        2414 .LDWlin70:
00001196 23ff0900       2415 	ld.w	8[sp],lp
0000119a 23ef0100       2416 	ld.w	0[sp],r29
0000119e 23e70500       2417 	ld.w	4[sp],r28
000011a2 4c1a           2418 	add	12,sp
000011a4 7f00           2419 	jmp	[lp]
                        2420 	.type	_can_set_txq,@function
                        2421 	.size	_can_set_txq,.-_can_set_txq
                        2422 	.type	_can_set_txq..D.3A.5CCANFDGwMcuFirmRH850F1x.5Ccode.5CCANFDGwMcuFirmRH850F1x.5CCANFDGwMcuFirmRH850F1x.5Cprj.5CGHS.20MULTI.5CCAN.20Gateway.5Coutput.5Cobj.5Cpe1.5CCan.,@function
                        2423 	.size	_can_set_txq..D.3A.5CCANFDGwMcuFirmRH850F1x.5Ccode.5CCANFDGwMcuFirmRH850F1x.5CCANFDGwMcuFirmRH850F1x.5Cprj.5CGHS.20MULTI.5CCAN.20Gateway.5Coutput.5Cobj.5Cpe1.5CCan.,.-_can_set_txq..D.3A.5CCANFDGwMcuFirmRH850F1x.5Ccode.5CCANFDGwMcuFirmRH850F1x.5CCANFDGwMcuFirmRH850F1x.5Cprj.5CGHS.20MULTI.5CCAN.20Gateway.5Coutput.5Cobj.5Cpe1.5CCan.
                        2424 	.align	2
                        2425 .LDW24:
                        2426 
                        2427 --_UnitId	r29	param

                                                                      Page 43
                                                              C:\Users\TIEZHU~1\AppData\Local\Temp\gh_00006hc1.si
                        2428 --_ChannelId	r28	param
                        2429 
                        2430 	.data
                        2431 	.text
                        2432 
                        2433 
                        2434 --841: /***********************************************************************************************************************
                        2435 --842:  * Function Name: can_set_trfifo
                        2436 --843:  * Description  : This function sets Tx/Rx Fifo(mode, depth, interrupt etc).
                        2437 --844:  * Arguments    : UnitId -
                        2438 --845:  *                   unit index for CAN physical channel
                        2439 --846:  *               ChannelId -
                        2440 --847:  *                   CAN physical channel index
                        2441 --848:  *               pCanCfg -
                        2442 --849:  *                   pointer to can controller configuration
                        2443 --850:  * Return Value : none
                        2444 --851:  ***********************************************************************************************************************/
                        2445 --852: static void can_set_trfifo(uint8_t UnitId, uint8_t ChannelId, const can_controller_cfg_t* pCanCfg)
                        2446 	.align	2
                        2447 	.align	2
                        2448 	.global	_can_set_trfifo..D.3A.5CCANFDGwMcuFirmRH850F1x.5Ccode.5CCANFDGwMcuFirmRH850F1x.5CCANFDGwMcuFirmRH850F1x.5Cprj.5CGHS.20MULTI.5CCAN.20Gateway.5Coutput.5Cobj.5Cpe1.5CCan.
                        2449 _can_set_trfifo..D.3A.5CCANFDGwMcuFirmRH850F1x.5Ccode.5CCANFDGwMcuFirmRH850F1x.5CCANFDGwMcuFirmRH850F1x.5Cprj.5CGHS.20MULTI.5CCAN.20Gateway.5Coutput.5Cobj.5Cpe1.5CCan.:
                        2450 _can_set_trfifo:
000011a6 031ee0ff       2451 	addi	-32,sp,sp
000011aa 63ff1d00       2452 	st.w	lp,28[sp]
000011ae 63d71900       2453 	st.w	r26,24[sp]
000011b2 63df1500       2454 	st.w	r27,20[sp]
000011b6 63e71100       2455 	st.w	r28,16[sp]
000011ba 63ef0d00       2456 	st.w	r29,12[sp]
000011be c6e6ff00       2457 	andi	255,r6,r28
000011c2 c7deff00       2458 	andi	255,r7,r27
000011c6 08d0           2459 	mov	r8,r26
                        2460 --	    .bf
                        2461 .LDW34:
                        2462 --853: {
                        2463 --854: 	uint8_t idx;
                        2464 --856: 	for (idx = (uint8_t) 0U; idx < RSCAN_FIXED_TOTAL_CFIFONUM_USED; idx++)
000011c8 00ea           2465 	mov	0,r29
                        2466 .L679:
                        2467 --857: 	{
                        2468 --858: 		RSCFD_SetCFIFO(UnitId, ChannelId,
000011ca 1c30           2469 	mov	r28,r6
000011cc 1b38           2470 	mov	r27,r7
000011ce 3a0f2100       2471 	ld.w	32[r26],r1
000011d2 630f0100       2472 	st.w	r1,0[sp]
000011d6 070a           2473 	mov	7,r1
000011d8 630f0500       2474 	st.w	r1,4[sp]
000011dc 0042           2475 	mov	0,r8
000011de 024a           2476 	mov	2,r9
                        2477 	jarl	_RSCFD_SetCFIFO,lp
                        2477 <EXPANSION BEGIN>
                        2477 jarl22 _RSCFD_SetCFIFO , lp 
000011e0 80ff0000*      2477 <EXPANSION END>
                        2478 --859: 		RSCAN_FIXED_GWFIFO_INDEX,
                        2479 --860: 		               RSCFD_FIFO_MODE_GATEWAY, pCanCfg->CanTxRxFifoCfg.Depth, RSCFD_FIFO_PAYLOAD_64_BYTE);
                        2480 --861: 		RSCFD_SetCFIFOInterrupt(UnitId, ChannelId,
                        2481 --line861
                        2482 ..lin.D.3A.5CCANFDGwMcuFirmRH850F1x.5Ccode.5CCANFDGwMcuFirmRH850F1x.5CCANFDGwMcuFirmRH850F1x.5Cprj.5CGHS.20MULTI.5CCAN.20Gateway.5Coutput.5Cobj.5Cpe1.5CCan.71::
                        2483 .LDWlin71:
000011e4 1c30           2484 	mov	r28,r6
000011e6 1b38           2485 	mov	r27,r7

                                                                      Page 44
                                                              C:\Users\TIEZHU~1\AppData\Local\Temp\gh_00006hc1.si
000011e8 63070100       2486 	st.w	zero,0[sp]
000011ec 010a           2487 	mov	1,r1
000011ee 630f0500       2488 	st.w	r1,4[sp]
000011f2 070a           2489 	mov	7,r1
000011f4 630f0900       2490 	st.w	r1,8[sp]
000011f8 0042           2491 	mov	0,r8
000011fa 004a           2492 	mov	0,r9
                        2493 	jarl	_RSCFD_SetCFIFOInterrupt,lp
                        2493 <EXPANSION BEGIN>
                        2493 jarl22 _RSCFD_SetCFIFOInterrupt , lp 
000011fc 80ff0000*      2493 <EXPANSION END>
                        2494 --862: 		RSCAN_FIXED_GWFIFO_INDEX,
                        2495 --863: 		                        RSCFD_FALSE,
                        2496 --864: 		                        RSCFD_FALSE,
                        2497 --865: 		                        RSCFD_FIFO_INT_MODE_ONE_MESSAGE, RSCFD_FIFO_INT_COUNTER_FULL);
                        2498 --866: 		RSCFD_SetCFIFOTx(UnitId, ChannelId,
                        2499 --line866
                        2500 ..lin.D.3A.5CCANFDGwMcuFirmRH850F1x.5Ccode.5CCANFDGwMcuFirmRH850F1x.5CCANFDGwMcuFirmRH850F1x.5Cprj.5CGHS.20MULTI.5CCAN.20Gateway.5Coutput.5Cobj.5Cpe1.5CCan.72::
                        2501 .LDWlin72:
00001200 1c30           2502 	mov	r28,r6
00001202 1b38           2503 	mov	r27,r7
00001204 0042           2504 	mov	0,r8
00001206 004a           2505 	mov	0,r9
                        2506 	jarl	_RSCFD_SetCFIFOTx,lp
                        2506 <EXPANSION BEGIN>
                        2506 jarl22 _RSCFD_SetCFIFOTx , lp 
00001208 80ff0000*      2506 <EXPANSION END>
                        2507 --867: 		RSCAN_FIXED_GWFIFO_INDEX,
                        2508 --868: 		                 RSCAN_FIXED_TXBUF_LINKED);
                        2509 --869: 		RSCFD_SetCFIFOTxInterval(UnitId, ChannelId,
                        2510 --line869
                        2511 ..lin.D.3A.5CCANFDGwMcuFirmRH850F1x.5Ccode.5CCANFDGwMcuFirmRH850F1x.5CCANFDGwMcuFirmRH850F1x.5Cprj.5CGHS.20MULTI.5CCAN.20Gateway.5Coutput.5Cobj.5Cpe1.5CCan.73::
                        2512 .LDWlin73:
0000120c 1c30           2513 	mov	r28,r6
0000120e 1b38           2514 	mov	r27,r7
00001210 63070100       2515 	st.w	zero,0[sp]
00001214 0042           2516 	mov	0,r8
00001216 024a           2517 	mov	2,r9
                        2518 	jarl	_RSCFD_SetCFIFOTxInterval,lp
                        2518 <EXPANSION BEGIN>
                        2518 jarl22 _RSCFD_SetCFIFOTxInterval , lp 
00001218 80ff0000*      2518 <EXPANSION END>
                        2519 --line856
                        2520 ..lin.D.3A.5CCANFDGwMcuFirmRH850F1x.5Ccode.5CCANFDGwMcuFirmRH850F1x.5CCANFDGwMcuFirmRH850F1x.5Cprj.5CGHS.20MULTI.5CCAN.20Gateway.5Coutput.5Cobj.5Cpe1.5CCan.74::
                        2521 .LDWlin74:
0000121c 41ea           2522 	add	1,r29
0000121e 9d00           2523 	zxb	r29
00001220 61ea           2524 	cmp	1,r29
00001222 c1d5*          2525 	bl	.L679
                        2526 --870: 		RSCAN_FIXED_GWFIFO_INDEX,
                        2527 --871: 		                         RSCFD_FIFO_IT_UNIT_BIT_TIME,
                        2528 --872: 		                         RSCAN_FIXED_INTERVAL);
                        2529 --873: 	}
                        2530 --874: } /* End of function can_set_trfifo() */
                        2531 --	    .ef
                        2532 .LDW44:
                        2533 --line874
                        2534 ..lin.D.3A.5CCANFDGwMcuFirmRH850F1x.5Ccode.5CCANFDGwMcuFirmRH850F1x.5CCANFDGwMcuFirmRH850F1x.5Cprj.5CGHS.20MULTI.5CCAN.20Gateway.5Coutput.5Cobj.5Cpe1.5CCan.75::
                        2535 .LDWlin75:
00001224 23ff1d00       2536 	ld.w	28[sp],lp
00001228 23ef0d00       2537 	ld.w	12[sp],r29

                                                                      Page 45
                                                              C:\Users\TIEZHU~1\AppData\Local\Temp\gh_00006hc1.si
0000122c 23e71100       2538 	ld.w	16[sp],r28
00001230 23df1500       2539 	ld.w	20[sp],r27
00001234 23d71900       2540 	ld.w	24[sp],r26
00001238 031e2000       2541 	addi	32,sp,sp
0000123c 7f00           2542 	jmp	[lp]
                        2543 	.type	_can_set_trfifo,@function
                        2544 	.size	_can_set_trfifo,.-_can_set_trfifo
                        2545 	.type	_can_set_trfifo..D.3A.5CCANFDGwMcuFirmRH850F1x.5Ccode.5CCANFDGwMcuFirmRH850F1x.5CCANFDGwMcuFirmRH850F1x.5Cprj.5CGHS.20MULTI.5CCAN.20Gateway.5Coutput.5Cobj.5Cpe1.5CCan.,@function
                        2546 	.size	_can_set_trfifo..D.3A.5CCANFDGwMcuFirmRH850F1x.5Ccode.5CCANFDGwMcuFirmRH850F1x.5CCANFDGwMcuFirmRH850F1x.5Cprj.5CGHS.20MULTI.5CCAN.20Gateway.5Coutput.5Cobj.5Cpe1.5CCan.,.-_can_set_trfifo..D.3A.5CCANFDGwMcuFirmRH850F1x.5Ccode.5CCANFDGwMcuFirmRH850F1x.5CCANFDGwMcuFirmRH850F1x.5Cprj.5CGHS.20MULTI.5CCAN.20Gateway.5Coutput.5Cobj.5Cpe1.5CCan.
                        2547 	.align	2
                        2548 .LDW54:
                        2549 --_idx	r29	local
                        2550 
                        2551 --_UnitId	r28	param
                        2552 --_ChannelId	r27	param
                        2553 --_pCanCfg	r26	param
                        2554 
                        2555 	.data
                        2556 	.text
                        2557 
                        2558 
                        2559 --876: /***********************************************************************************************************************
                        2560 --877:  * Function Name: can_set_thl
                        2561 --878:  * Description  : This function sets Tx history list.
                        2562 --879:  * Arguments    : UnitId -
                        2563 --880:  *                   unit index for CAN physical channel
                        2564 --881:  *               ChannelId -
                        2565 --882:  *                   CAN physical channel index
                        2566 --883:  * Return Value : none
                        2567 --884:  ***********************************************************************************************************************/
                        2568 --885: static void can_set_thl(uint8_t UnitId, uint8_t ChannelId)
                        2569 	.align	2
                        2570 	.align	2
                        2571 	.global	_can_set_thl..D.3A.5CCANFDGwMcuFirmRH850F1x.5Ccode.5CCANFDGwMcuFirmRH850F1x.5CCANFDGwMcuFirmRH850F1x.5Cprj.5CGHS.20MULTI.5CCAN.20Gateway.5Coutput.5Cobj.5Cpe1.5CCan.
                        2572 _can_set_thl..D.3A.5CCANFDGwMcuFirmRH850F1x.5Ccode.5CCANFDGwMcuFirmRH850F1x.5CCANFDGwMcuFirmRH850F1x.5Cprj.5CGHS.20MULTI.5CCAN.20Gateway.5Coutput.5Cobj.5Cpe1.5CCan.:
                        2573 _can_set_thl:
0000123e 541a           2574 	add	-12,sp
00001240 63ff0900       2575 	st.w	lp,8[sp]
00001244 63e70500       2576 	st.w	r28,4[sp]
00001248 63ef0100       2577 	st.w	r29,0[sp]
0000124c c6eeff00       2578 	andi	255,r6,r29
00001250 c7e6ff00       2579 	andi	255,r7,r28
                        2580 --	    .bf
                        2581 .LDW64:
                        2582 --886: {
                        2583 --887: 	RSCFD_SetTHL(UnitId, ChannelId, RSCFD_THL_MODE_TMB_TFIFO_TXQ);
00001254 1d30           2584 	mov	r29,r6
00001256 1c38           2585 	mov	r28,r7
00001258 0142           2586 	mov	1,r8
                        2587 	jarl	_RSCFD_SetTHL,lp
                        2587 <EXPANSION BEGIN>
                        2587 jarl22 _RSCFD_SetTHL , lp 
0000125a 80ff0000*      2587 <EXPANSION END>
                        2588 --888: 	RSCFD_SetTHLInterrupt(UnitId, ChannelId, RSCFD_TRUE, RSCFD_THL_INT_MODE_EACH_ENTRY);
                        2589 --line888
                        2590 ..lin.D.3A.5CCANFDGwMcuFirmRH850F1x.5Ccode.5CCANFDGwMcuFirmRH850F1x.5CCANFDGwMcuFirmRH850F1x.5Cprj.5CGHS.20MULTI.5CCAN.20Gateway.5Coutput.5Cobj.5Cpe1.5CCan.76::
                        2591 .LDWlin76:
0000125e 1d30           2592 	mov	r29,r6
00001260 1c38           2593 	mov	r28,r7
00001262 0142           2594 	mov	1,r8
00001264 014a           2595 	mov	1,r9

                                                                      Page 46
                                                              C:\Users\TIEZHU~1\AppData\Local\Temp\gh_00006hc1.si
                        2596 	jarl	_RSCFD_SetTHLInterrupt,lp
                        2596 <EXPANSION BEGIN>
                        2596 jarl22 _RSCFD_SetTHLInterrupt , lp 
00001266 80ff0000*      2596 <EXPANSION END>
                        2597 --889: } /* End of function can_set_thl() */
                        2598 --	    .ef
                        2599 .LDW74:
                        2600 --line889
                        2601 ..lin.D.3A.5CCANFDGwMcuFirmRH850F1x.5Ccode.5CCANFDGwMcuFirmRH850F1x.5CCANFDGwMcuFirmRH850F1x.5Cprj.5CGHS.20MULTI.5CCAN.20Gateway.5Coutput.5Cobj.5Cpe1.5CCan.77::
                        2602 .LDWlin77:
0000126a 23ff0900       2603 	ld.w	8[sp],lp
0000126e 23ef0100       2604 	ld.w	0[sp],r29
00001272 23e70500       2605 	ld.w	4[sp],r28
00001276 4c1a           2606 	add	12,sp
00001278 7f00           2607 	jmp	[lp]
                        2608 	.type	_can_set_thl,@function
                        2609 	.size	_can_set_thl,.-_can_set_thl
                        2610 	.type	_can_set_thl..D.3A.5CCANFDGwMcuFirmRH850F1x.5Ccode.5CCANFDGwMcuFirmRH850F1x.5CCANFDGwMcuFirmRH850F1x.5Cprj.5CGHS.20MULTI.5CCAN.20Gateway.5Coutput.5Cobj.5Cpe1.5CCan.,@function
                        2611 	.size	_can_set_thl..D.3A.5CCANFDGwMcuFirmRH850F1x.5Ccode.5CCANFDGwMcuFirmRH850F1x.5CCANFDGwMcuFirmRH850F1x.5Cprj.5CGHS.20MULTI.5CCAN.20Gateway.5Coutput.5Cobj.5Cpe1.5CCan.,.-_can_set_thl..D.3A.5CCANFDGwMcuFirmRH850F1x.5Ccode.5CCANFDGwMcuFirmRH850F1x.5CCANFDGwMcuFirmRH850F1x.5Cprj.5CGHS.20MULTI.5CCAN.20Gateway.5Coutput.5Cobj.5Cpe1.5CCan.
                        2612 	.align	2
                        2613 .LDW84:
                        2614 
                        2615 --_UnitId	r29	param
                        2616 --_ChannelId	r28	param
                        2617 
                        2618 	.data
                        2619 	.text
                        2620 
                        2621 
                        2622 --891: /***********************************************************************************************************************
                        2623 --892:  * Function Name: can_init_channel
                        2624 --893:  * Description  : This function initializes the RSCAN channel.
                        2625 --894:  * Arguments    : PhyChnIdx -
                        2626 --895:  *                   physical channel index
                        2627 --896:  *               pCanControllerTbl -
                        2628 --897:  *                   Pointer to CAN controller configuration table
                        2629 --898:  * Return Value : none
                        2630 --899:  ***********************************************************************************************************************/
                        2631 --900: static void can_init_channel(uint8_t PhyChnIdx, const can_controller_cfg_t* pCanControllerTbl)
                        2632 	.align	2
                        2633 	.align	2
                        2634 	.global	_can_init_channel..D.3A.5CCANFDGwMcuFirmRH850F1x.5Ccode.5CCANFDGwMcuFirmRH850F1x.5CCANFDGwMcuFirmRH850F1x.5Cprj.5CGHS.20MULTI.5CCAN.20Gateway.5Coutput.5Cobj.5Cpe1.5CCan.
                        2635 _can_init_channel..D.3A.5CCANFDGwMcuFirmRH850F1x.5Ccode.5CCANFDGwMcuFirmRH850F1x.5CCANFDGwMcuFirmRH850F1x.5Cprj.5CGHS.20MULTI.5CCAN.20Gateway.5Coutput.5Cobj.5Cpe1.5CCan.:
                        2636 _can_init_channel:
0000127a 031ee0ff       2637 	addi	-32,sp,sp
0000127e 63ff1d00       2638 	st.w	lp,28[sp]
00001282 63d71900       2639 	st.w	r26,24[sp]
00001286 63df1500       2640 	st.w	r27,20[sp]
0000128a 63e71100       2641 	st.w	r28,16[sp]
0000128e 63ef0d00       2642 	st.w	r29,12[sp]
00001292 c6d6ff00       2643 	andi	255,r6,r26
                        2644 --	    .bf
                        2645 .LDW94:
                        2646 --901: {
                        2647 --902: 	const can_controller_cfg_t* p_can_cfg;
                        2648 --903: 	uint8_t unit_id;
                        2649 --904: 	uint8_t channel_id;
                        2650 --906: 	/* ---- 1.1 Initialize used CAN controller one by one. ---- */
                        2651 --907: 	p_can_cfg = pCanControllerTbl;
00001296 07e8           2652 	mov	r7,r29
                        2653 --908: 	unit_id = p_can_cfg->UnitIdx;

                                                                      Page 47
                                                              C:\Users\TIEZHU~1\AppData\Local\Temp\gh_00006hc1.si
00001298 9de70500       2654 	ld.bu	4[r29],r28
                        2655 --909: 	channel_id = p_can_cfg->ControllerId;
0000129c bddf0500       2656 	ld.bu	5[r29],r27
                        2657 --910: 	/* CAN network type---CAN classical,CANFD,CANFD with tolerance */
                        2658 --911: 	RSCFD_SwitchChannelMode(unit_id, channel_id, RSCFD_MODE_RESET);
000012a0 1c30           2659 	mov	r28,r6
000012a2 1b38           2660 	mov	r27,r7
000012a4 0142           2661 	mov	1,r8
                        2662 	jarl	_RSCFD_SwitchChannelMode,lp
                        2662 <EXPANSION BEGIN>
                        2662 jarl22 _RSCFD_SwitchChannelMode , lp 
000012a6 80ff0000*      2662 <EXPANSION END>
                        2663 --913: 	/* Configure CAN port setting */
                        2664 --914: 	can_set_port(p_can_cfg->PortSetting);
                        2665 --line914
                        2666 ..lin.D.3A.5CCANFDGwMcuFirmRH850F1x.5Ccode.5CCANFDGwMcuFirmRH850F1x.5CCANFDGwMcuFirmRH850F1x.5Cprj.5CGHS.20MULTI.5CCAN.20Gateway.5Coutput.5Cobj.5Cpe1.5CCan.78::
                        2667 .LDWlin78:
000012aa 3d370900       2668 	ld.w	8[r29],r6
                        2669 	jarl	_can_set_port,lp
                        2669 <EXPANSION BEGIN>
                        2669 jarl22 _can_set_port , lp 
000012ae bfff52ed*      2669 <EXPANSION END>
                        2670 --916: 	/* Configure CAN baud rate setting */
                        2671 --917: 	RSCFD_SetChannelBitrate(unit_id, channel_id, RSCFD_BITRATE_NOMINAL, p_can_cfg->Baudrate.Brp,
                        2672 --line917
                        2673 ..lin.D.3A.5CCANFDGwMcuFirmRH850F1x.5Ccode.5CCANFDGwMcuFirmRH850F1x.5CCANFDGwMcuFirmRH850F1x.5Cprj.5CGHS.20MULTI.5CCAN.20Gateway.5Coutput.5Cobj.5Cpe1.5CCan.79::
                        2674 .LDWlin79:
000012b2 1c30           2675 	mov	r28,r6
000012b4 1b38           2676 	mov	r27,r7
000012b6 fd4f0d00       2677 	ld.hu	12[r29],r9
000012ba 9d0f0f00       2678 	ld.bu	14[r29],r1
000012be 630f0100       2679 	st.w	r1,0[sp]
000012c2 bd0f0f00       2680 	ld.bu	15[r29],r1
000012c6 630f0500       2681 	st.w	r1,4[sp]
000012ca 9d0f1100       2682 	ld.bu	16[r29],r1
000012ce 630f0900       2683 	st.w	r1,8[sp]
000012d2 0042           2684 	mov	0,r8
                        2685 	jarl	_RSCFD_SetChannelBitrate,lp
                        2685 <EXPANSION BEGIN>
                        2685 jarl22 _RSCFD_SetChannelBitrate , lp 
000012d4 80ff0000*      2685 <EXPANSION END>
                        2686 --918: 	                        p_can_cfg->Baudrate.Tseg1, p_can_cfg->Baudrate.Tseg2, p_can_cfg->Baudrate.Sjw);
                        2687 --919: 	RSCFD_SetChannelBitrate(unit_id, channel_id, RSCFD_BITRATE_DATA, p_can_cfg->Baudrate.can_fd_brp_cfg.FdBrp,
                        2688 --line919
                        2689 ..lin.D.3A.5CCANFDGwMcuFirmRH850F1x.5Ccode.5CCANFDGwMcuFirmRH850F1x.5CCANFDGwMcuFirmRH850F1x.5Cprj.5CGHS.20MULTI.5CCAN.20Gateway.5Coutput.5Cobj.5Cpe1.5CCan.80::
                        2690 .LDWlin80:
000012d8 1c30           2691 	mov	r28,r6
000012da 1b38           2692 	mov	r27,r7
000012dc bd4f1100       2693 	ld.bu	17[r29],r9
000012e0 bd0f1300       2694 	ld.bu	19[r29],r1
000012e4 630f0100       2695 	st.w	r1,0[sp]
000012e8 9d0f1500       2696 	ld.bu	20[r29],r1
000012ec 630f0500       2697 	st.w	r1,4[sp]
000012f0 bd0f1500       2698 	ld.bu	21[r29],r1
000012f4 630f0900       2699 	st.w	r1,8[sp]
000012f8 0142           2700 	mov	1,r8
                        2701 	jarl	_RSCFD_SetChannelBitrate,lp
                        2701 <EXPANSION BEGIN>
                        2701 jarl22 _RSCFD_SetChannelBitrate , lp 
000012fa 80ff0000*      2701 <EXPANSION END>
                        2702 --920: 	                        p_can_cfg->Baudrate.can_fd_brp_cfg.FdTseg1, p_can_cfg->Baudrate.can_fd_brp_cfg.FdTseg2,

                                                                      Page 48
                                                              C:\Users\TIEZHU~1\AppData\Local\Temp\gh_00006hc1.si
                        2703 --921: 	                        p_can_cfg->Baudrate.can_fd_brp_cfg.FdSjw);
                        2704 --922: 	can_set_tdc(unit_id, channel_id, p_can_cfg);
                        2705 --line922
                        2706 ..lin.D.3A.5CCANFDGwMcuFirmRH850F1x.5Ccode.5CCANFDGwMcuFirmRH850F1x.5CCANFDGwMcuFirmRH850F1x.5Cprj.5CGHS.20MULTI.5CCAN.20Gateway.5Coutput.5Cobj.5Cpe1.5CCan.81::
                        2707 .LDWlin81:
000012fe 1c30           2708 	mov	r28,r6
00001300 1b38           2709 	mov	r27,r7
00001302 1d40           2710 	mov	r29,r8
                        2711 	jarl	_can_set_tdc,lp
                        2711 <EXPANSION BEGIN>
                        2711 jarl22 _can_set_tdc , lp 
00001304 bfff5efd*      2711 <EXPANSION END>
                        2712 --923: 	RSCFD_SetChannelMultiGateway(unit_id, channel_id, RSCFD_ENABLE, RSCFD_ENABLE,
                        2713 --line923
                        2714 ..lin.D.3A.5CCANFDGwMcuFirmRH850F1x.5Ccode.5CCANFDGwMcuFirmRH850F1x.5CCANFDGwMcuFirmRH850F1x.5Cprj.5CGHS.20MULTI.5CCAN.20Gateway.5Coutput.5Cobj.5Cpe1.5CCan.82::
                        2715 .LDWlin82:
00001308 1c30           2716 	mov	r28,r6
0000130a 1b38           2717 	mov	r27,r7
0000130c 9d0f1300       2718 	ld.bu	18[r29],r1
00001310 630f0100       2719 	st.w	r1,0[sp]
00001314 0142           2720 	mov	1,r8
00001316 014a           2721 	mov	1,r9
                        2722 	jarl	_RSCFD_SetChannelMultiGateway,lp
                        2722 <EXPANSION BEGIN>
                        2722 jarl22 _RSCFD_SetChannelMultiGateway , lp 
00001318 80ff0000*      2722 <EXPANSION END>
                        2723 --924: 	                             p_can_cfg->Baudrate.can_fd_brp_cfg.TxBitRateSwitch);
                        2724 --926: 	/* ---- 1.2 Configure Rx Rule table (AFL)---- */
                        2725 --927: 	can_set_afl(PhyChnIdx, unit_id, channel_id, p_can_cfg);
                        2726 --line927
                        2727 ..lin.D.3A.5CCANFDGwMcuFirmRH850F1x.5Ccode.5CCANFDGwMcuFirmRH850F1x.5CCANFDGwMcuFirmRH850F1x.5Cprj.5CGHS.20MULTI.5CCAN.20Gateway.5Coutput.5Cobj.5Cpe1.5CCan.83::
                        2728 .LDWlin83:
0000131c 1a30           2729 	mov	r26,r6
0000131e 1c38           2730 	mov	r28,r7
00001320 1b40           2731 	mov	r27,r8
00001322 1d48           2732 	mov	r29,r9
                        2733 	jarl	_can_set_afl,lp
                        2733 <EXPANSION BEGIN>
                        2733 jarl22 _can_set_afl , lp 
00001324 bfff68fd*      2733 <EXPANSION END>
                        2734 --929: 	/* ---- 1.3 Configure buffer (Tx Buffer, Tx Queue, TxRX Fifo, THL)---- */
                        2735 --930: 	can_set_txbuffer(unit_id, channel_id, p_can_cfg);
                        2736 --line930
                        2737 ..lin.D.3A.5CCANFDGwMcuFirmRH850F1x.5Ccode.5CCANFDGwMcuFirmRH850F1x.5CCANFDGwMcuFirmRH850F1x.5Cprj.5CGHS.20MULTI.5CCAN.20Gateway.5Coutput.5Cobj.5Cpe1.5CCan.84::
                        2738 .LDWlin84:
00001328 1c30           2739 	mov	r28,r6
0000132a 1b38           2740 	mov	r27,r7
0000132c 1d40           2741 	mov	r29,r8
                        2742 	jarl	_can_set_txbuffer,lp
                        2742 <EXPANSION BEGIN>
                        2742 jarl22 _can_set_txbuffer , lp 
0000132e bfff1cfe*      2742 <EXPANSION END>
                        2743 --931: 	can_set_txq(unit_id, channel_id);
                        2744 --line931
                        2745 ..lin.D.3A.5CCANFDGwMcuFirmRH850F1x.5Ccode.5CCANFDGwMcuFirmRH850F1x.5CCANFDGwMcuFirmRH850F1x.5Cprj.5CGHS.20MULTI.5CCAN.20Gateway.5Coutput.5Cobj.5Cpe1.5CCan.85::
                        2746 .LDWlin85:
00001332 1c30           2747 	mov	r28,r6
00001334 1b38           2748 	mov	r27,r7
                        2749 	jarl	_can_set_txq,lp
                        2749 <EXPANSION BEGIN>
                        2749 jarl22 _can_set_txq , lp 

                                                                      Page 49
                                                              C:\Users\TIEZHU~1\AppData\Local\Temp\gh_00006hc1.si
00001336 bfff34fe*      2749 <EXPANSION END>
                        2750 --932: 	can_set_trfifo(unit_id, channel_id, p_can_cfg);
                        2751 --line932
                        2752 ..lin.D.3A.5CCANFDGwMcuFirmRH850F1x.5Ccode.5CCANFDGwMcuFirmRH850F1x.5CCANFDGwMcuFirmRH850F1x.5Cprj.5CGHS.20MULTI.5CCAN.20Gateway.5Coutput.5Cobj.5Cpe1.5CCan.86::
                        2753 .LDWlin86:
0000133a 1c30           2754 	mov	r28,r6
0000133c 1b38           2755 	mov	r27,r7
0000133e 1d40           2756 	mov	r29,r8
                        2757 	jarl	_can_set_trfifo,lp
                        2757 <EXPANSION BEGIN>
                        2757 jarl22 _can_set_trfifo , lp 
00001340 bfff66fe*      2757 <EXPANSION END>
                        2758 --933: 	can_set_thl(unit_id, channel_id);
                        2759 --line933
                        2760 ..lin.D.3A.5CCANFDGwMcuFirmRH850F1x.5Ccode.5CCANFDGwMcuFirmRH850F1x.5CCANFDGwMcuFirmRH850F1x.5Cprj.5CGHS.20MULTI.5CCAN.20Gateway.5Coutput.5Cobj.5Cpe1.5CCan.87::
                        2761 .LDWlin87:
00001344 1c30           2762 	mov	r28,r6
00001346 1b38           2763 	mov	r27,r7
                        2764 	jarl	_can_set_thl,lp
                        2764 <EXPANSION BEGIN>
                        2764 jarl22 _can_set_thl , lp 
00001348 bffff6fe*      2764 <EXPANSION END>
                        2765 --934: } /* End of function can_init_channel() */
                        2766 --	    .ef
                        2767 .LDW05:
                        2768 --line934
                        2769 ..lin.D.3A.5CCANFDGwMcuFirmRH850F1x.5Ccode.5CCANFDGwMcuFirmRH850F1x.5CCANFDGwMcuFirmRH850F1x.5Cprj.5CGHS.20MULTI.5CCAN.20Gateway.5Coutput.5Cobj.5Cpe1.5CCan.88::
                        2770 .LDWlin88:
0000134c 23ff1d00       2771 	ld.w	28[sp],lp
00001350 23ef0d00       2772 	ld.w	12[sp],r29
00001354 23e71100       2773 	ld.w	16[sp],r28
00001358 23df1500       2774 	ld.w	20[sp],r27
0000135c 23d71900       2775 	ld.w	24[sp],r26
00001360 031e2000       2776 	addi	32,sp,sp
00001364 7f00           2777 	jmp	[lp]
                        2778 	.type	_can_init_channel,@function
                        2779 	.size	_can_init_channel,.-_can_init_channel
                        2780 	.type	_can_init_channel..D.3A.5CCANFDGwMcuFirmRH850F1x.5Ccode.5CCANFDGwMcuFirmRH850F1x.5CCANFDGwMcuFirmRH850F1x.5Cprj.5CGHS.20MULTI.5CCAN.20Gateway.5Coutput.5Cobj.5Cpe1.5CCan.,@function
                        2781 	.size	_can_init_channel..D.3A.5CCANFDGwMcuFirmRH850F1x.5Ccode.5CCANFDGwMcuFirmRH850F1x.5CCANFDGwMcuFirmRH850F1x.5Cprj.5CGHS.20MULTI.5CCAN.20Gateway.5Coutput.5Cobj.5Cpe1.5CCan.,.-_can_init_channel..D.3A.5CCANFDGwMcuFirmRH850F1x.5Ccode.5CCANFDGwMcuFirmRH850F1x.5CCANFDGwMcuFirmRH850F1x.5Cprj.5CGHS.20MULTI.5CCAN.20Gateway.5Coutput.5Cobj.5Cpe1.5CCan.
                        2782 	.align	2
                        2783 .LDW15:
                        2784 --_p_can_cfg	r29	local
                        2785 --_unit_id	r28	local
                        2786 --_channel_id	r27	local
                        2787 
                        2788 --_PhyChnIdx	r26	param
                        2789 --_pCanControllerTbl	r7	param
                        2790 
                        2791 	.data
                        2792 	.text
                        2793 
                        2794 
                        2795 --936: /***********************************************************************************************************************
                        2796 --937:  * Function Name: can_set_interrupt
                        2797 --938:  * Description  : This function enables CAN interrupt.
                        2798 --939:  * Arguments    : none
                        2799 --940:  * Return Value : none
                        2800 --941:  ***********************************************************************************************************************/
                        2801 --942: static void can_set_interrupt(void)
                        2802 	.align	2
                        2803 	.align	2

                                                                      Page 50
                                                              C:\Users\TIEZHU~1\AppData\Local\Temp\gh_00006hc1.si
                        2804 	.global	_can_set_interrupt..D.3A.5CCANFDGwMcuFirmRH850F1x.5Ccode.5CCANFDGwMcuFirmRH850F1x.5CCANFDGwMcuFirmRH850F1x.5Cprj.5CGHS.20MULTI.5CCAN.20Gateway.5Coutput.5Cobj.5Cpe1.5CCan.
                        2805 _can_set_interrupt..D.3A.5CCANFDGwMcuFirmRH850F1x.5Ccode.5CCANFDGwMcuFirmRH850F1x.5CCANFDGwMcuFirmRH850F1x.5Cprj.5CGHS.20MULTI.5CCAN.20Gateway.5Coutput.5Cobj.5Cpe1.5CCan.:
                        2806 _can_set_interrupt:
                        2807 --	    .bf
                        2808 .LDW25:
                        2809 --943: {
                        2810 --944: 	/* MISRA C:2012 Violation - Rule 4.6 */
                        2811 --945: 	/* Justification - register definition is used here, unavoidable */
                        2812 --946: 	/* MISRA C:2012 Violation - Rule 11.4, 11.6 */
                        2813 --947: 	/* Justification - conversion on pointer is used unavoidable here */
                        2814 --948: 	/*** assign interrupt to PE1 ***/
                        2815 --949: 	EIBD22 = 0x00000001; /* CAN global error interrupt */
00001366 010a           2816 	mov	1,r1
00001368 80078f0dd6fd   2817 	st.w	r1,4294896472[zero]
                        2818 --950: 	EIBD23 = 0x00000001; /* CAN receive FIFO interrupt */
0000136e 010a           2819 	mov	1,r1
00001370 8007cf0dd6fd   2820 	st.w	r1,4294896476[zero]
                        2821 --951: 	EIBD24 = 0x00000001; /* CAN0 error interrupt */
00001376 010a           2822 	mov	1,r1
00001378 80070f0ed6fd   2823 	st.w	r1,4294896480[zero]
                        2824 --952: 	EIBD25 = 0x00000001; /* CAN0 transmit/receive FIFO receive complete interrupt */
0000137e 010a           2825 	mov	1,r1
00001380 80074f0ed6fd   2826 	st.w	r1,4294896484[zero]
                        2827 --953: 	EIBD26 = 0x00000001; /* CAN0 transmit interrupt */
00001386 010a           2828 	mov	1,r1
00001388 80078f0ed6fd   2829 	st.w	r1,4294896488[zero]
                        2830 --954: 	EIBD113 = 0x00000001; /* CAN1 error interrupt */
0000138e 010a           2831 	mov	1,r1
00001390 600fc5b9       2832 	st.w	r1,lo(4294949316)[zero]
                        2833 --955: 	EIBD114 = 0x00000001; /* CAN1 transmit/receive FIFO receive complete interrupt */
00001394 010a           2834 	mov	1,r1
00001396 600fc9b9       2835 	st.w	r1,lo(4294949320)[zero]
                        2836 --956: 	EIBD115 = 0x00000001; /* CAN1 transmit interrupt */
0000139a 010a           2837 	mov	1,r1
0000139c 600fcdb9       2838 	st.w	r1,lo(4294949324)[zero]
                        2839 --957: 	EIBD217 = 0x00000001; /* CAN2 error interrupt */
000013a0 010a           2840 	mov	1,r1
000013a2 600f65bb       2841 	st.w	r1,lo(4294949732)[zero]
                        2842 --958: 	EIBD218 = 0x00000001; /* CAN2 transmit/receive FIFO receive complete interrupt */
000013a6 010a           2843 	mov	1,r1
000013a8 600f69bb       2844 	st.w	r1,lo(4294949736)[zero]
                        2845 --959: 	EIBD219 = 0x00000001; /* CAN2 transmit interrupt */
000013ac 010a           2846 	mov	1,r1
000013ae 600f6dbb       2847 	st.w	r1,lo(4294949740)[zero]
                        2848 --960: 	EIBD220 = 0x00000001; /* CAN3 error interrupt */
000013b2 010a           2849 	mov	1,r1
000013b4 600f71bb       2850 	st.w	r1,lo(4294949744)[zero]
                        2851 --961: 	EIBD221 = 0x00000001; /* CAN3 transmit/receive FIFO receive complete interrupt */
000013b8 010a           2852 	mov	1,r1
000013ba 600f75bb       2853 	st.w	r1,lo(4294949748)[zero]
                        2854 --962: 	EIBD222 = 0x00000001; /* CAN3 transmit interrupt */
000013be 010a           2855 	mov	1,r1
000013c0 600f79bb       2856 	st.w	r1,lo(4294949752)[zero]
                        2857 --963: 	EIBD272 = 0x00000001; /* CAN4 error interrupt */
000013c4 010a           2858 	mov	1,r1
000013c6 600f41bc       2859 	st.w	r1,lo(4294949952)[zero]
                        2860 --964: 	EIBD273 = 0x00000001; /* CAN4 transmit/receive FIFO receive complete interrupt */
000013ca 010a           2861 	mov	1,r1
000013cc 600f45bc       2862 	st.w	r1,lo(4294949956)[zero]
                        2863 --965: 	EIBD274 = 0x00000001; /* CAN4 transmit interrupt */
000013d0 010a           2864 	mov	1,r1

                                                                      Page 51
                                                              C:\Users\TIEZHU~1\AppData\Local\Temp\gh_00006hc1.si
000013d2 600f49bc       2865 	st.w	r1,lo(4294949960)[zero]
                        2866 --966: 	EIBD287 = 0x00000001; /* CAN5 error interrupt */
000013d6 010a           2867 	mov	1,r1
000013d8 600f7dbc       2868 	st.w	r1,lo(4294950012)[zero]
                        2869 --967: 	EIBD288 = 0x00000001; /* CAN5 transmit/receive FIFO receive complete interrupt */
000013dc 010a           2870 	mov	1,r1
000013de 600f81bc       2871 	st.w	r1,lo(4294950016)[zero]
                        2872 --968: 	EIBD289 = 0x00000001; /* CAN5 transmit interrupt */
000013e2 010a           2873 	mov	1,r1
000013e4 600f85bc       2874 	st.w	r1,lo(4294950020)[zero]
                        2875 --969: 	EIBD319 = 0x00000001; /* CAN global error interrupt */
000013e8 010a           2876 	mov	1,r1
000013ea 600ffdbc       2877 	st.w	r1,lo(4294950140)[zero]
                        2878 --970: 	EIBD320 = 0x00000001; /* CAN receive FIFO interrupt */
000013ee 010a           2879 	mov	1,r1
000013f0 600f01bd       2880 	st.w	r1,lo(4294950144)[zero]
                        2881 --971: 	EIBD321 = 0x00000001; /* CAN6 error interrupt */
000013f4 010a           2882 	mov	1,r1
000013f6 600f05bd       2883 	st.w	r1,lo(4294950148)[zero]
                        2884 --972: 	EIBD322 = 0x00000001; /* CAN6 transmit/receive FIFO receive complete interrupt */
000013fa 010a           2885 	mov	1,r1
000013fc 600f09bd       2886 	st.w	r1,lo(4294950152)[zero]
                        2887 --973: 	EIBD323 = 0x00000001; /* CAN6 transmit interrupt */
00001400 010a           2888 	mov	1,r1
00001402 600f0dbd       2889 	st.w	r1,lo(4294950156)[zero]
                        2890 --975: 	/*** set interrupt priority ***/
                        2891 --976: 	PFSSIMR0 &= ~(0x07C00000);
00001406 8007090fd5fd   2892 	ld.w	4294896368[zero],r1
0000140c 2206ffff3ff8   2893 	mov	-130023425,r2
00001412 4209           2894 	and	r2,r1
00001414 80070f0fd5fd   2895 	st.w	r1,4294896368[zero]
                        2896 --977: 	REG_ICRCANGERR0 = 0x43U;
0000141a 200e4300       2897 	movea	67,zero,r1
0000141e a007cd0ad4fd   2898 	st.h	r1,4294896172[zero]
                        2899 --978: 	REG_ICRCANGRECC0 = 0x44U;
00001424 200e4400       2900 	movea	68,zero,r1
00001428 a007ed0ad4fd   2901 	st.h	r1,4294896174[zero]
                        2902 --979: 	REG_ICRCAN0ERR = 0x43U;
0000142e 200e4300       2903 	movea	67,zero,r1
00001432 a0070d0bd4fd   2904 	st.h	r1,4294896176[zero]
                        2905 --980: 	REG_ICRCAN0REC = 0x00U;
00001438 a0072d03d4fd   2906 	st.h	zero,4294896178[zero]
                        2907 --981: 	REG_ICRCAN0TRX = 0x44U;
0000143e 200e4400       2908 	movea	68,zero,r1
00001442 a0074d0bd4fd   2909 	st.h	r1,4294896180[zero]
                        2910 --982: 	REG_ICRCAN1ERR = 0x43U;
00001448 200e4300       2911 	movea	67,zero,r1
0000144c 600fe2b0       2912 	st.h	r1,lo(4294947042)[zero]
                        2913 --983: 	REG_ICRCAN1REC = 0x44U;
00001450 200e4400       2914 	movea	68,zero,r1
00001454 600fe4b0       2915 	st.h	r1,lo(4294947044)[zero]
                        2916 --984: 	REG_ICRCAN1TRX = 0x44U;
00001458 200e4400       2917 	movea	68,zero,r1
0000145c 600fe6b0       2918 	st.h	r1,lo(4294947046)[zero]
                        2919 --985: 	REG_ICRCAN2ERR = 0x43U;
00001460 200e4300       2920 	movea	67,zero,r1
00001464 600fb2b1       2921 	st.h	r1,lo(4294947250)[zero]
                        2922 --986: 	REG_ICRCAN2REC = 0x00U;
00001468 6007b4b1       2923 	st.h	zero,lo(4294947252)[zero]
                        2924 --987: 	REG_ICRCAN2TRX = 0x44U;
0000146c 200e4400       2925 	movea	68,zero,r1

                                                                      Page 52
                                                              C:\Users\TIEZHU~1\AppData\Local\Temp\gh_00006hc1.si
00001470 600fb6b1       2926 	st.h	r1,lo(4294947254)[zero]
                        2927 --988: 	REG_ICRCAN3ERR = 0x43U;
00001474 200e4300       2928 	movea	67,zero,r1
00001478 600fb8b1       2929 	st.h	r1,lo(4294947256)[zero]
                        2930 --989: 	REG_ICRCAN3REC = 0x00U;
0000147c 6007bab1       2931 	st.h	zero,lo(4294947258)[zero]
                        2932 --990: 	REG_ICRCAN3TRX = 0x44U;
00001480 200e4400       2933 	movea	68,zero,r1
00001484 600fbcb1       2934 	st.h	r1,lo(4294947260)[zero]
                        2935 --991: 	REG_ICRCAN4ERR = 0x43U;
00001488 200e4300       2936 	movea	67,zero,r1
0000148c 600f20b2       2937 	st.h	r1,lo(4294947360)[zero]
                        2938 --992: 	REG_ICRCAN4REC = 0x00U;
00001490 600722b2       2939 	st.h	zero,lo(4294947362)[zero]
                        2940 --993: 	REG_ICRCAN4TRX = 0x44U;
00001494 200e4400       2941 	movea	68,zero,r1
00001498 600f24b2       2942 	st.h	r1,lo(4294947364)[zero]
                        2943 --994: 	REG_ICRCAN5ERR = 0x43U;
0000149c 200e4300       2944 	movea	67,zero,r1
000014a0 600f3eb2       2945 	st.h	r1,lo(4294947390)[zero]
                        2946 --995: 	REG_ICRCAN5REC = 0x00U;
000014a4 600740b2       2947 	st.h	zero,lo(4294947392)[zero]
                        2948 --996: 	REG_ICRCAN5TRX = 0x44U;
000014a8 200e4400       2949 	movea	68,zero,r1
000014ac 600f42b2       2950 	st.h	r1,lo(4294947394)[zero]
                        2951 --997: 	REG_ICRCANGERR1 = 0x43U;
000014b0 200e4300       2952 	movea	67,zero,r1
000014b4 600f7eb2       2953 	st.h	r1,lo(4294947454)[zero]
                        2954 --998: 	REG_ICRCANGRECC1 = 0x44U;
000014b8 200e4400       2955 	movea	68,zero,r1
000014bc 600f80b2       2956 	st.h	r1,lo(4294947456)[zero]
                        2957 --999: 	REG_ICRCAN6ERR = 0x43U;
000014c0 200e4300       2958 	movea	67,zero,r1
000014c4 600f82b2       2959 	st.h	r1,lo(4294947458)[zero]
                        2960 --1000: 	REG_ICRCAN6REC = 0x00U;
000014c8 600784b2       2961 	st.h	zero,lo(4294947460)[zero]
                        2962 --1001: 	REG_ICRCAN6TRX = 0x44U;
000014cc 200e4400       2963 	movea	68,zero,r1
000014d0 600f86b2       2964 	st.h	r1,lo(4294947462)[zero]
                        2965 --1002: } /* End of function can_set_interrupt() */
                        2966 --	    .ef
                        2967 .LDW35:
000014d4 7f00           2968 	jmp	[lp]
                        2969 	.type	_can_set_interrupt,@function
                        2970 	.size	_can_set_interrupt,.-_can_set_interrupt
                        2971 	.type	_can_set_interrupt..D.3A.5CCANFDGwMcuFirmRH850F1x.5Ccode.5CCANFDGwMcuFirmRH850F1x.5CCANFDGwMcuFirmRH850F1x.5Cprj.5CGHS.20MULTI.5CCAN.20Gateway.5Coutput.5Cobj.5Cpe1.5CCan.,@function
                        2972 	.size	_can_set_interrupt..D.3A.5CCANFDGwMcuFirmRH850F1x.5Ccode.5CCANFDGwMcuFirmRH850F1x.5CCANFDGwMcuFirmRH850F1x.5Cprj.5CGHS.20MULTI.5CCAN.20Gateway.5Coutput.5Cobj.5Cpe1.5CCan.,.-_can_set_interrupt..D.3A.5CCANFDGwMcuFirmRH850F1x.5Ccode.5CCANFDGwMcuFirmRH850F1x.5CCANFDGwMcuFirmRH850F1x.5Cprj.5CGHS.20MULTI.5CCAN.20Gateway.5Coutput.5Cobj.5Cpe1.5CCan.
                        2973 	.align	2
                        2974 .LDW45:
                        2975 
                        2976 	.data
                        2977 	.text
                        2978 
                        2979 
                        2980 --1004: /***********************************************************************************************************************
                        2981 --1005:  * Function Name: can_disable_chn_interrupt
                        2982 --1006:  * Description  : This function disables CAN interrupt(Abort, Arbitration lost, Bus lock, Over load, Bus-off Recovery,
                        2983 --1007:  *                Error passive, Error warning, Bus error).
                        2984 --1008:  * Arguments    : UnitId -
                        2985 --1009:  *                    unit index for CAN physical channel
                        2986 --1010:  *                ChannelId -

                                                                      Page 53
                                                              C:\Users\TIEZHU~1\AppData\Local\Temp\gh_00006hc1.si
                        2987 --1011:  *                    CAN physical channel index
                        2988 --1012:  * Return Value : none
                        2989 --1013:  ***********************************************************************************************************************/
                        2990 --1014: static void can_disable_chn_interrupt(uint8_t UnitId, uint8_t ChannelId)
                        2991 --1015: {
                        2992 --1016: 	RSCFD_CanChanelIntEnable cfg_chanel_int_enable;
                        2993 --1018: 	cfg_chanel_int_enable.TxAbortIntEnable = RSCFD_FALSE;
                        2994 --1019: 	cfg_chanel_int_enable.ArbLostIntEnable = RSCFD_FALSE;
                        2995 --1020: 	cfg_chanel_int_enable.BusLockIntEnable = RSCFD_FALSE;
                        2996 --1021: 	cfg_chanel_int_enable.OvrLoadFrmTxIntEnable = RSCFD_FALSE;
                        2997 --1022: 	cfg_chanel_int_enable.BusOffRecoveryIntEnable = RSCFD_FALSE;
                        2998 --1023: 	cfg_chanel_int_enable.BusOffEntryIntEnable = RSCFD_FALSE;
                        2999 --1024: 	cfg_chanel_int_enable.ErrPassiveIntEnable = RSCFD_FALSE;
                        3000 --1025: 	cfg_chanel_int_enable.ErrWarningIntEnable = RSCFD_FALSE;
                        3001 --1026: 	cfg_chanel_int_enable.BusErrIntEnable = RSCFD_FALSE;
                        3002 --1027: 	/* MISRA C:2012 Violation - Rule 1.3 */
                        3003 --1028: 	/* Justification - Taking address of near auto variable is unavoidable */
                        3004 --1029: 	if (RSCFD_TRUE == RSCFD_SetChannelInterrupt(UnitId, ChannelId, &cfg_chanel_int_enable))
                        3005 --1030: 	{
                        3006 --1031: 		/* set successfully */
                        3007 --1032: 	}
                        3008 --1033: } /* End of function can_disable_chn_interrupt() */
                        3009 --1035: /***********************************************************************************************************************
                        3010 --1036:  * Function Name: can_enable_chn_interrupt
                        3011 --1037:  * Description  : This function enables CAN interrupt(Abort, Arbitration lost, Bus lock, Over load, Bus-off Recovery,
                        3012 --1038:  *                Error passive, Error warning, Bus error).
                        3013 --1039:  * Arguments    : UnitId -
                        3014 --1040:  *                    unit index for CAN physical channel
                        3015 --1041:  *                ChannelId -
                        3016 --1042:  *                    CAN physical channel index
                        3017 --1043:  * Return Value : none
                        3018 --1044:  ***********************************************************************************************************************/
                        3019 --1045: static void can_enable_chn_interrupt(uint8_t UnitId, uint8_t ChannelId)
                        3020 	.align	2
                        3021 	.align	2
                        3022 	.global	_can_enable_chn_interrupt..D.3A.5CCANFDGwMcuFirmRH850F1x.5Ccode.5CCANFDGwMcuFirmRH850F1x.5CCANFDGwMcuFirmRH850F1x.5Cprj.5CGHS.20MULTI.5CCAN.20Gateway.5Coutput.5Cobj.5Cpe1.5CCan.
                        3023 _can_enable_chn_interrupt..D.3A.5CCANFDGwMcuFirmRH850F1x.5Ccode.5CCANFDGwMcuFirmRH850F1x.5CCANFDGwMcuFirmRH850F1x.5Cprj.5CGHS.20MULTI.5CCAN.20Gateway.5Coutput.5Cobj.5Cpe1.5CCan.:
                        3024 _can_enable_chn_interrupt:
000014d6 501a           3025 	add	-16,sp
000014d8 63ff0d00       3026 	st.w	lp,12[sp]
000014dc 8600           3027 	zxb	r6
000014de 8700           3028 	zxb	r7
                        3029 --	    .bf
                        3030 .LDW55:
                        3031 --1046: {
                        3032 --1047: 	RSCFD_CanChanelIntEnable cfg_chanel_int_enable;
                        3033 --1049: 	cfg_chanel_int_enable.TxAbortIntEnable = RSCFD_TRUE;
000014e0 010a           3034 	mov	1,r1
000014e2 430f0300       3035 	st.b	r1,3[sp]
                        3036 --1050: 	cfg_chanel_int_enable.ArbLostIntEnable = RSCFD_TRUE;
000014e6 010a           3037 	mov	1,r1
000014e8 430f0400       3038 	st.b	r1,4[sp]
                        3039 --1051: 	cfg_chanel_int_enable.BusLockIntEnable = RSCFD_TRUE;
000014ec 010a           3040 	mov	1,r1
000014ee 430f0500       3041 	st.b	r1,5[sp]
                        3042 --1052: 	cfg_chanel_int_enable.OvrLoadFrmTxIntEnable = RSCFD_TRUE;
000014f2 010a           3043 	mov	1,r1
000014f4 430f0600       3044 	st.b	r1,6[sp]
                        3045 --1053: 	cfg_chanel_int_enable.BusOffRecoveryIntEnable = RSCFD_TRUE;
000014f8 010a           3046 	mov	1,r1
000014fa 430f0700       3047 	st.b	r1,7[sp]

                                                                      Page 54
                                                              C:\Users\TIEZHU~1\AppData\Local\Temp\gh_00006hc1.si
                        3048 --1054: 	cfg_chanel_int_enable.BusOffEntryIntEnable = RSCFD_TRUE;
000014fe 010a           3049 	mov	1,r1
00001500 430f0800       3050 	st.b	r1,8[sp]
                        3051 --1055: 	cfg_chanel_int_enable.ErrPassiveIntEnable = RSCFD_TRUE;
00001504 010a           3052 	mov	1,r1
00001506 430f0900       3053 	st.b	r1,9[sp]
                        3054 --1056: 	cfg_chanel_int_enable.ErrWarningIntEnable = RSCFD_TRUE;
0000150a 010a           3055 	mov	1,r1
0000150c 430f0a00       3056 	st.b	r1,10[sp]
                        3057 --1057: 	cfg_chanel_int_enable.BusErrIntEnable = RSCFD_TRUE;
00001510 010a           3058 	mov	1,r1
00001512 430f0b00       3059 	st.b	r1,11[sp]
                        3060 --1058: 	/* MISRA C:2012 Violation - Rule 1.3 */
                        3061 --1059: 	/* Justification - Taking address of near auto variable is unavoidable */
                        3062 --1060: 	if (RSCFD_TRUE == RSCFD_SetChannelInterrupt(UnitId, ChannelId, &cfg_chanel_int_enable))
00001516 23460300       3063 	movea	3,sp,r8
                        3064 	jarl	_RSCFD_SetChannelInterrupt,lp
                        3064 <EXPANSION BEGIN>
                        3064 jarl22 _RSCFD_SetChannelInterrupt , lp 
0000151a 80ff0000*      3064 <EXPANSION END>
0000151e 6152           3065 	cmp	1,r10
                        3066 .L803:
                        3067 --1061: 	{
                        3068 --1062: 		/* set successfully */
                        3069 --1063: 	}
                        3070 --1064: } /* End of function can_enable_chn_interrupt() */
                        3071 --	    .ef
                        3072 .LDW65:
                        3073 --line1064
                        3074 ..lin.D.3A.5CCANFDGwMcuFirmRH850F1x.5Ccode.5CCANFDGwMcuFirmRH850F1x.5CCANFDGwMcuFirmRH850F1x.5Cprj.5CGHS.20MULTI.5CCAN.20Gateway.5Coutput.5Cobj.5Cpe1.5CCan.89::
                        3075 .LDWlin89:
00001520 23ff0d00       3076 	ld.w	12[sp],lp
00001524 031e1000       3077 	addi	16,sp,sp
00001528 7f00           3078 	jmp	[lp]
                        3079 	.type	_can_enable_chn_interrupt,@function
                        3080 	.size	_can_enable_chn_interrupt,.-_can_enable_chn_interrupt
                        3081 	.type	_can_enable_chn_interrupt..D.3A.5CCANFDGwMcuFirmRH850F1x.5Ccode.5CCANFDGwMcuFirmRH850F1x.5CCANFDGwMcuFirmRH850F1x.5Cprj.5CGHS.20MULTI.5CCAN.20Gateway.5Coutput.5Cobj.5Cpe1.5CCan.,@function
                        3082 	.size	_can_enable_chn_interrupt..D.3A.5CCANFDGwMcuFirmRH850F1x.5Ccode.5CCANFDGwMcuFirmRH850F1x.5CCANFDGwMcuFirmRH850F1x.5Cprj.5CGHS.20MULTI.5CCAN.20Gateway.5Coutput.5Cobj.5Cpe1.5CCan.,.-_can_enable_chn_interrupt..D.3A.5CCANFDGwMcuFirmRH850F1x.5Ccode.5CCANFDGwMcuFirmRH850F1x.5CCANFDGwMcuFirmRH850F1x.5Cprj.5CGHS.20MULTI.5CCAN.20Gateway.5Coutput.5Cobj.5Cpe1.5CCan.
                        3083 	.align	2
                        3084 .LDW75:
                        3085 --_cfg_chanel_int_enable	3[sp]	local
                        3086 
                        3087 --_UnitId	r6	param
                        3088 --_ChannelId	r7	param
                        3089 
                        3090 	.data
                        3091 	.text
                        3092 
                        3093 
                        3094 --1066: /***********************************************************************************************************************
                        3095 --1067:  * Function Name: can_disable_rxfifo_interrupt
                        3096 --1068:  * Description  : This function disables specified unit Rx Fifo interrupt.
                        3097 --1069:  * Arguments    : UnitId -
                        3098 --1070:  *                    unit index for CAN physical channel
                        3099 --1071:  * Return Value : none
                        3100 --1072:  ***********************************************************************************************************************/
                        3101 --1073: static void can_disable_rxfifo_interrupt(uint8_t UnitId)
                        3102 --1074: {
                        3103 --1075: 	RSCFD_U8 fifo_idx;
                        3104 --1077: 	for (fifo_idx = (RSCFD_U8) 0U; fifo_idx < Can_PbConfig.NumberOfRxFifoObject; fifo_idx++)
                        3105 --1078: 	{

                                                                      Page 55
                                                              C:\Users\TIEZHU~1\AppData\Local\Temp\gh_00006hc1.si
                        3106 --1079: 		RSCFD_DisableRFIFOInterrupt(UnitId, fifo_idx);
                        3107 --1080: 	}
                        3108 --1081: } /* End of function can_disable_rxfifo_interrupt() */
                        3109 --1083: /***********************************************************************************************************************
                        3110 --1084:  * Function Name: can_enable_rxfifo_interrupt
                        3111 --1085:  * Description  : This function enables specified unit Rx Fifo interrupt.
                        3112 --1086:  * Arguments    : UnitId -
                        3113 --1087:  *                    unit index for CAN physical channel
                        3114 --1088:  * Return Value : none
                        3115 --1089:  ***********************************************************************************************************************/
                        3116 --1090: static void can_enable_rxfifo_interrupt(uint8_t UnitId)
                        3117 	.align	2
                        3118 	.align	2
                        3119 	.global	_can_enable_rxfifo_interrupt..D.3A.5CCANFDGwMcuFirmRH850F1x.5Ccode.5CCANFDGwMcuFirmRH850F1x.5CCANFDGwMcuFirmRH850F1x.5Cprj.5CGHS.20MULTI.5CCAN.20Gateway.5Coutput.5Cobj.5Cpe1.5CCan.
                        3120 _can_enable_rxfifo_interrupt..D.3A.5CCANFDGwMcuFirmRH850F1x.5Ccode.5CCANFDGwMcuFirmRH850F1x.5CCANFDGwMcuFirmRH850F1x.5Cprj.5CGHS.20MULTI.5CCAN.20Gateway.5Coutput.5Cobj.5Cpe1.5CCan.:
                        3121 _can_enable_rxfifo_interrupt:
0000152a 541a           3122 	add	-12,sp
0000152c 63ff0900       3123 	st.w	lp,8[sp]
00001530 63e70500       3124 	st.w	r28,4[sp]
00001534 63ef0100       3125 	st.w	r29,0[sp]
00001538 c6e6ff00       3126 	andi	255,r6,r28
                        3127 --	    .bf
                        3128 .LDW85:
                        3129 --1091: {
                        3130 --1092: 	RSCFD_U8 fifo_idx;
                        3131 --1094: 	for (fifo_idx = 0U; fifo_idx < Can_PbConfig.NumberOfRxFifoObject; fifo_idx++)
0000153c 00ea           3132 	mov	0,r29
0000153e f505*          3133 	br	.L840
                        3134 .L839:
                        3135 --1095: 	{
                        3136 --1096: 		RSCFD_EnableRFIFOInterrupt(UnitId, fifo_idx);
                        3137 --line1096
                        3138 ..lin.D.3A.5CCANFDGwMcuFirmRH850F1x.5Ccode.5CCANFDGwMcuFirmRH850F1x.5CCANFDGwMcuFirmRH850F1x.5Cprj.5CGHS.20MULTI.5CCAN.20Gateway.5Coutput.5Cobj.5Cpe1.5CCan.90::
                        3139 .LDWlin90:
00001540 1c30           3140 	mov	r28,r6
00001542 1d38           3141 	mov	r29,r7
                        3142 	jarl	_RSCFD_EnableRFIFOInterrupt,lp
                        3142 <EXPANSION BEGIN>
                        3142 jarl22 _RSCFD_EnableRFIFOInterrupt , lp 
00001544 80ff0000*      3142 <EXPANSION END>
                        3143 --line1094
                        3144 ..lin.D.3A.5CCANFDGwMcuFirmRH850F1x.5Ccode.5CCANFDGwMcuFirmRH850F1x.5CCANFDGwMcuFirmRH850F1x.5Cprj.5CGHS.20MULTI.5CCAN.20Gateway.5Coutput.5Cobj.5Cpe1.5CCan.91::
                        3145 .LDWlin91:
00001548 41ea           3146 	add	1,r29
0000154a 9d00           3147 	zxb	r29
                        3148 .L840:
0000154c 2b0600000000*  3149 	mov	_Can_PbConfig+8,r11
00001552 8b0f0100       3150 	ld.bu	0[r11],r1
00001556 e1e9           3151 	cmp	r1,r29
00001558 c1f5*          3152 	bl	.L839
                        3153 --1097: 	}
                        3154 --1098: } /* End of function can_enable_rxfifo_interrupt() */
                        3155 --	    .ef
                        3156 .LDW95:
                        3157 --line1098
                        3158 ..lin.D.3A.5CCANFDGwMcuFirmRH850F1x.5Ccode.5CCANFDGwMcuFirmRH850F1x.5CCANFDGwMcuFirmRH850F1x.5Cprj.5CGHS.20MULTI.5CCAN.20Gateway.5Coutput.5Cobj.5Cpe1.5CCan.92::
                        3159 .LDWlin92:
0000155a 23ff0900       3160 	ld.w	8[sp],lp
0000155e 23ef0100       3161 	ld.w	0[sp],r29
00001562 23e70500       3162 	ld.w	4[sp],r28
00001566 4c1a           3163 	add	12,sp

                                                                      Page 56
                                                              C:\Users\TIEZHU~1\AppData\Local\Temp\gh_00006hc1.si
00001568 7f00           3164 	jmp	[lp]
                        3165 	.type	_can_enable_rxfifo_interrupt,@function
                        3166 	.size	_can_enable_rxfifo_interrupt,.-_can_enable_rxfifo_interrupt
                        3167 	.type	_can_enable_rxfifo_interrupt..D.3A.5CCANFDGwMcuFirmRH850F1x.5Ccode.5CCANFDGwMcuFirmRH850F1x.5CCANFDGwMcuFirmRH850F1x.5Cprj.5CGHS.20MULTI.5CCAN.20Gateway.5Coutput.5Cobj.5Cpe1.5CCan.,@function
                        3168 	.size	_can_enable_rxfifo_interrupt..D.3A.5CCANFDGwMcuFirmRH850F1x.5Ccode.5CCANFDGwMcuFirmRH850F1x.5CCANFDGwMcuFirmRH850F1x.5Cprj.5CGHS.20MULTI.5CCAN.20Gateway.5Coutput.5Cobj.5Cpe1.5CCan.,.-_can_enable_rxfifo_interrupt..D.3A.5CCANFDGwMcuFirmRH850F1x.5Ccode.5CCANFDGwMcuFirmRH850F1x.5CCANFDGwMcuFirmRH850F1x.5Cprj.5CGHS.20MULTI.5CCAN.20Gateway.5Coutput.5Cobj.5Cpe1.5CCan.
                        3169 	.align	2
                        3170 .LDW06:
                        3171 --_fifo_idx	r29	local
                        3172 
                        3173 --_UnitId	r28	param
                        3174 
                        3175 	.data
                        3176 	.text
                        3177 
                        3178 
                        3179 --1100: /***********************************************************************************************************************
                        3180 --1101:  * Function Name: can_get_id_type
                        3181 --1102:  * Description  : This function return ID type by PDU-ID.
                        3182 --1103:  * Arguments    : pdu_id -
                        3183 --1104:  *                    Pdu Id.
                        3184 --1105:  * Return Value : Id type
                        3185 --1106:  ***********************************************************************************************************************/
                        3186 --1107: static RSCFD_FrameFormat can_get_id_type(uint32_t pdu_id)
                        3187 	.align	2
                        3188 	.align	2
                        3189 	.global	_can_get_id_type..D.3A.5CCANFDGwMcuFirmRH850F1x.5Ccode.5CCANFDGwMcuFirmRH850F1x.5CCANFDGwMcuFirmRH850F1x.5Cprj.5CGHS.20MULTI.5CCAN.20Gateway.5Coutput.5Cobj.5Cpe1.5CCan.
                        3190 _can_get_id_type..D.3A.5CCANFDGwMcuFirmRH850F1x.5Ccode.5CCANFDGwMcuFirmRH850F1x.5CCANFDGwMcuFirmRH850F1x.5Cprj.5CGHS.20MULTI.5CCAN.20Gateway.5Coutput.5Cobj.5Cpe1.5CCan.:
                        3191 _can_get_id_type:
                        3192 --	    .bf
                        3193 .LDW16:
                        3194 --1108: {
                        3195 --1109: 	RSCFD_FrameFormat rtn_value;
                        3196 --1110: 	if (0xC0000000UL == ((pdu_id) & 0xC0000000UL))
0000156a 401600c0       3197 	movhi	hi(-1073741824),zero,r2
0000156e 0608           3198 	mov	r6,r1
00001570 4209           3199 	and	r2,r1
00001572 401600c0       3200 	movhi	hi(-1073741824),zero,r2
00001576 e209           3201 	cmp	r2,r1
00001578 ba05*          3202 	bne	.L879
                        3203 --1111: 	{
                        3204 --1112: 		rtn_value = RSCFD_FRAME_FORMAT_FD_EXTENDED;
                        3205 --line1112
                        3206 ..lin.D.3A.5CCANFDGwMcuFirmRH850F1x.5Ccode.5CCANFDGwMcuFirmRH850F1x.5CCANFDGwMcuFirmRH850F1x.5Cprj.5CGHS.20MULTI.5CCAN.20Gateway.5Coutput.5Cobj.5Cpe1.5CCan.93::
                        3207 .LDWlin93:
0000157a 030a           3208 	mov	3,r1
0000157c e515*          3209 	br	.L881
                        3210 .L879:
                        3211 --1113: 	}
                        3212 --1114: 	else if (0x80000000UL == ((pdu_id) & 0x80000000UL))
                        3213 --line1114
                        3214 ..lin.D.3A.5CCANFDGwMcuFirmRH850F1x.5Ccode.5CCANFDGwMcuFirmRH850F1x.5CCANFDGwMcuFirmRH850F1x.5Cprj.5CGHS.20MULTI.5CCAN.20Gateway.5Coutput.5Cobj.5Cpe1.5CCan.94::
                        3215 .LDWlin94:
0000157e 40160080       3216 	movhi	hi(-2147483648),zero,r2
00001582 0608           3217 	mov	r6,r1
00001584 4209           3218 	and	r2,r1
00001586 40160080       3219 	movhi	hi(-2147483648),zero,r2
0000158a e209           3220 	cmp	r2,r1
0000158c ba05*          3221 	bne	.L882
                        3222 --1115: 	{
                        3223 --1116: 		rtn_value = RSCFD_FRAME_FORMAT_CLASSICAL_EXTENDED;
                        3224 --line1116

                                                                      Page 57
                                                              C:\Users\TIEZHU~1\AppData\Local\Temp\gh_00006hc1.si
                        3225 ..lin.D.3A.5CCANFDGwMcuFirmRH850F1x.5Ccode.5CCANFDGwMcuFirmRH850F1x.5CCANFDGwMcuFirmRH850F1x.5Cprj.5CGHS.20MULTI.5CCAN.20Gateway.5Coutput.5Cobj.5Cpe1.5CCan.95::
                        3226 .LDWlin95:
0000158e 010a           3227 	mov	1,r1
00001590 c50d*          3228 	br	.L881
                        3229 .L882:
                        3230 --1117: 	}
                        3231 --1118: 	else if (0x40000000UL == ((pdu_id) & 0x40000000UL))
                        3232 --line1118
                        3233 ..lin.D.3A.5CCANFDGwMcuFirmRH850F1x.5Ccode.5CCANFDGwMcuFirmRH850F1x.5CCANFDGwMcuFirmRH850F1x.5Cprj.5CGHS.20MULTI.5CCAN.20Gateway.5Coutput.5Cobj.5Cpe1.5CCan.96::
                        3234 .LDWlin96:
00001592 40160040       3235 	movhi	hi(1073741824),zero,r2
00001596 0608           3236 	mov	r6,r1
00001598 4209           3237 	and	r2,r1
0000159a 40160040       3238 	movhi	hi(1073741824),zero,r2
0000159e e209           3239 	cmp	r2,r1
000015a0 ba05*          3240 	bne	.L885
                        3241 --1119: 	{
                        3242 --1120: 		rtn_value = RSCFD_FRAME_FORMAT_FD_BASE;
                        3243 --line1120
                        3244 ..lin.D.3A.5CCANFDGwMcuFirmRH850F1x.5Ccode.5CCANFDGwMcuFirmRH850F1x.5CCANFDGwMcuFirmRH850F1x.5Cprj.5CGHS.20MULTI.5CCAN.20Gateway.5Coutput.5Cobj.5Cpe1.5CCan.97::
                        3245 .LDWlin97:
000015a2 020a           3246 	mov	2,r1
000015a4 a505*          3247 	br	.L881
                        3248 .L885:
                        3249 --1121: 	}
                        3250 --1122: 	else
                        3251 --1123: 	{
                        3252 --1124: 		rtn_value = RSCFD_FRAME_FORMAT_CLASSICAL_BASE;
                        3253 --line1124
                        3254 ..lin.D.3A.5CCANFDGwMcuFirmRH850F1x.5Ccode.5CCANFDGwMcuFirmRH850F1x.5CCANFDGwMcuFirmRH850F1x.5Cprj.5CGHS.20MULTI.5CCAN.20Gateway.5Coutput.5Cobj.5Cpe1.5CCan.98::
                        3255 .LDWlin98:
000015a6 000a           3256 	mov	0,r1
                        3257 .L881:
                        3258 --1125: 	}
                        3259 --1127: 	return rtn_value;
000015a8 0150           3260 	mov	r1,r10
                        3261 --	    .ef
                        3262 .LDW26:
000015aa 7f00           3263 	jmp	[lp]
                        3264 	.type	_can_get_id_type,@function
                        3265 	.size	_can_get_id_type,.-_can_get_id_type
                        3266 	.type	_can_get_id_type..D.3A.5CCANFDGwMcuFirmRH850F1x.5Ccode.5CCANFDGwMcuFirmRH850F1x.5CCANFDGwMcuFirmRH850F1x.5Cprj.5CGHS.20MULTI.5CCAN.20Gateway.5Coutput.5Cobj.5Cpe1.5CCan.,@function
                        3267 	.size	_can_get_id_type..D.3A.5CCANFDGwMcuFirmRH850F1x.5Ccode.5CCANFDGwMcuFirmRH850F1x.5CCANFDGwMcuFirmRH850F1x.5Cprj.5CGHS.20MULTI.5CCAN.20Gateway.5Coutput.5Cobj.5Cpe1.5CCan.,.-_can_get_id_type..D.3A.5CCANFDGwMcuFirmRH850F1x.5Ccode.5CCANFDGwMcuFirmRH850F1x.5CCANFDGwMcuFirmRH850F1x.5Cprj.5CGHS.20MULTI.5CCAN.20Gateway.5Coutput.5Cobj.5Cpe1.5CCan.
                        3268 	.align	2
                        3269 .LDW36:
                        3270 --_rtn_value	r1	local
                        3271 
                        3272 --_pdu_id	r6	param
                        3273 
                        3274 	.data
                        3275 	.text
                        3276 
                        3277 --1128: }
                        3278 
                        3279 --1130: /***********************************************************************************************************************
                        3280 --1131:  * Function Name: can_get_dlc
                        3281 --1132:  * Description  : This function return ID type by PDU-ID.
                        3282 --1133:  * Arguments    : pdu_id -
                        3283 --1134:  *                    Pdu Id.
                        3284 --1135:  * Return Value : Id type
                        3285 --1136:  ***********************************************************************************************************************/

                                                                      Page 58
                                                              C:\Users\TIEZHU~1\AppData\Local\Temp\gh_00006hc1.si
                        3286 --1137: static uint8_t can_get_dlc_by_data_length(uint8_t dataLength, RSCFD_FrameFormat frmFormat)
                        3287 	.align	2
                        3288 	.align	2
                        3289 	.global	_can_get_dlc_by_data_length..D.3A.5CCANFDGwMcuFirmRH850F1x.5Ccode.5CCANFDGwMcuFirmRH850F1x.5CCANFDGwMcuFirmRH850F1x.5Cprj.5CGHS.20MULTI.5CCAN.20Gateway.5Coutput.5Cobj.5Cpe1.5CCan.
                        3290 _can_get_dlc_by_data_length..D.3A.5CCANFDGwMcuFirmRH850F1x.5Ccode.5CCANFDGwMcuFirmRH850F1x.5CCANFDGwMcuFirmRH850F1x.5Cprj.5CGHS.20MULTI.5CCAN.20Gateway.5Coutput.5Cobj.5Cpe1.5CCan.:
                        3291 _can_get_dlc_by_data_length:
000015ac 8600           3292 	zxb	r6
                        3293 --	    .bf
                        3294 .LDW46:
                        3295 --1138: {
                        3296 --1139: 	uint8_t rtn_value = 255U;
000015ae 200eff00       3297 	movea	255,zero,r1
                        3298 --1141: 	if ((RSCFD_FRAME_FORMAT_CLASSICAL_BASE == frmFormat) || (RSCFD_FRAME_FORMAT_CLASSICAL_EXTENDED == frmFormat))
000015b2 e039           3299 	cmp	zero,r7
000015b4 b205*          3300 	be	.L953
000015b6 613a           3301 	cmp	1,r7
000015b8 fa05*          3302 	bne	.L952
                        3303 .L953:
                        3304 --1142: 	{
                        3305 --1143: 		/* Classical frame */
                        3306 --1144: 		if (dataLength <= CLASSIC_FRM_DLC_MAX)
                        3307 --line1144
                        3308 ..lin.D.3A.5CCANFDGwMcuFirmRH850F1x.5Ccode.5CCANFDGwMcuFirmRH850F1x.5CCANFDGwMcuFirmRH850F1x.5Cprj.5CGHS.20MULTI.5CCAN.20Gateway.5Coutput.5Cobj.5Cpe1.5CCan.99::
                        3309 .LDWlin99:
000015ba 6832           3310 	cmp	8,r6
000015bc bb05*          3311 	bh	.L955
                        3312 --1145: 		{
                        3313 --1146: 			rtn_value = dataLength;
                        3314 --line1146
                        3315 ..lin.D.3A.5CCANFDGwMcuFirmRH850F1x.5Ccode.5CCANFDGwMcuFirmRH850F1x.5CCANFDGwMcuFirmRH850F1x.5Cprj.5CGHS.20MULTI.5CCAN.20Gateway.5Coutput.5Cobj.5Cpe1.5CCan.100::
                        3316 .LDWlin100:
000015be 0608           3317 	mov	r6,r1
000015c0 c52d*          3318 	br	.L958
                        3319 .L955:
                        3320 --1147: 		}
                        3321 --1148: 		else
                        3322 --1149: 		{
                        3323 --1150: 			rtn_value = CLASSIC_FRM_DLC_MAX;
                        3324 --line1150
                        3325 ..lin.D.3A.5CCANFDGwMcuFirmRH850F1x.5Ccode.5CCANFDGwMcuFirmRH850F1x.5CCANFDGwMcuFirmRH850F1x.5Cprj.5CGHS.20MULTI.5CCAN.20Gateway.5Coutput.5Cobj.5Cpe1.5CCan.101::
                        3326 .LDWlin101:
000015c2 080a           3327 	mov	8,r1
000015c4 a52d*          3328 	br	.L958
                        3329 .L952:
                        3330 --1151: 		}
                        3331 --1152: 	}
                        3332 --1153: 	else if ((RSCFD_FRAME_FORMAT_FD_BASE == frmFormat) || (RSCFD_FRAME_FORMAT_FD_EXTENDED == frmFormat))
                        3333 --line1153
                        3334 ..lin.D.3A.5CCANFDGwMcuFirmRH850F1x.5Ccode.5CCANFDGwMcuFirmRH850F1x.5CCANFDGwMcuFirmRH850F1x.5Cprj.5CGHS.20MULTI.5CCAN.20Gateway.5Coutput.5Cobj.5Cpe1.5CCan.102::
                        3335 .LDWlin102:
000015c6 623a           3336 	cmp	2,r7
000015c8 b205*          3337 	be	.L960
000015ca 633a           3338 	cmp	3,r7
000015cc ea25*          3339 	bne	.L958
                        3340 .L960:
                        3341 --1154: 	{
                        3342 --1155: 		/* FD frame */
                        3343 --1156: 		if (dataLength <= CLASSIC_FRM_DLC_MAX)
                        3344 --line1156
                        3345 ..lin.D.3A.5CCANFDGwMcuFirmRH850F1x.5Ccode.5CCANFDGwMcuFirmRH850F1x.5CCANFDGwMcuFirmRH850F1x.5Cprj.5CGHS.20MULTI.5CCAN.20Gateway.5Coutput.5Cobj.5Cpe1.5CCan.103::
                        3346 .LDWlin103:

                                                                      Page 59
                                                              C:\Users\TIEZHU~1\AppData\Local\Temp\gh_00006hc1.si
000015ce 6832           3347 	cmp	8,r6
000015d0 bb05*          3348 	bh	.L962
                        3349 --1157: 		{
                        3350 --1158: 			rtn_value = dataLength;
                        3351 --line1158
                        3352 ..lin.D.3A.5CCANFDGwMcuFirmRH850F1x.5Ccode.5CCANFDGwMcuFirmRH850F1x.5CCANFDGwMcuFirmRH850F1x.5Cprj.5CGHS.20MULTI.5CCAN.20Gateway.5Coutput.5Cobj.5Cpe1.5CCan.104::
                        3353 .LDWlin104:
000015d2 0608           3354 	mov	r6,r1
000015d4 a525*          3355 	br	.L958
                        3356 .L962:
                        3357 --1159: 		}
                        3358 --1160: 		else if (FD_PAYLOAD_DLC_9 == dataLength)
                        3359 --line1160
                        3360 ..lin.D.3A.5CCANFDGwMcuFirmRH850F1x.5Ccode.5CCANFDGwMcuFirmRH850F1x.5CCANFDGwMcuFirmRH850F1x.5Cprj.5CGHS.20MULTI.5CCAN.20Gateway.5Coutput.5Cobj.5Cpe1.5CCan.105::
                        3361 .LDWlin105:
000015d6 6c32           3362 	cmp	12,r6
000015d8 ba05*          3363 	bne	.L965
                        3364 --1161: 		{
                        3365 --1162: 			rtn_value = FD_FRM_DLC_9;
                        3366 --line1162
                        3367 ..lin.D.3A.5CCANFDGwMcuFirmRH850F1x.5Ccode.5CCANFDGwMcuFirmRH850F1x.5CCANFDGwMcuFirmRH850F1x.5Cprj.5CGHS.20MULTI.5CCAN.20Gateway.5Coutput.5Cobj.5Cpe1.5CCan.106::
                        3368 .LDWlin106:
000015da 090a           3369 	mov	9,r1
000015dc e51d*          3370 	br	.L958
                        3371 .L965:
                        3372 --1163: 		}
                        3373 --1164: 		else if (FD_PAYLOAD_DLC_A == dataLength)
                        3374 --line1164
                        3375 ..lin.D.3A.5CCANFDGwMcuFirmRH850F1x.5Ccode.5CCANFDGwMcuFirmRH850F1x.5CCANFDGwMcuFirmRH850F1x.5Cprj.5CGHS.20MULTI.5CCAN.20Gateway.5Coutput.5Cobj.5Cpe1.5CCan.107::
                        3376 .LDWlin107:
000015de 0606f0ff       3377 	addi	-16,r6,zero
000015e2 ba05*          3378 	bne	.L968
                        3379 --1165: 		{
                        3380 --1166: 			rtn_value = FD_FRM_DLC_A;
                        3381 --line1166
                        3382 ..lin.D.3A.5CCANFDGwMcuFirmRH850F1x.5Ccode.5CCANFDGwMcuFirmRH850F1x.5CCANFDGwMcuFirmRH850F1x.5Cprj.5CGHS.20MULTI.5CCAN.20Gateway.5Coutput.5Cobj.5Cpe1.5CCan.108::
                        3383 .LDWlin108:
000015e4 0a0a           3384 	mov	10,r1
000015e6 951d*          3385 	br	.L958
                        3386 .L968:
                        3387 --1167: 		}
                        3388 --1168: 		else if (FD_PAYLOAD_DLC_B == dataLength)
                        3389 --line1168
                        3390 ..lin.D.3A.5CCANFDGwMcuFirmRH850F1x.5Ccode.5CCANFDGwMcuFirmRH850F1x.5CCANFDGwMcuFirmRH850F1x.5Cprj.5CGHS.20MULTI.5CCAN.20Gateway.5Coutput.5Cobj.5Cpe1.5CCan.109::
                        3391 .LDWlin109:
000015e8 0606ecff       3392 	addi	-20,r6,zero
000015ec ba05*          3393 	bne	.L971
                        3394 --1169: 		{
                        3395 --1170: 			rtn_value = FD_FRM_DLC_B;
                        3396 --line1170
                        3397 ..lin.D.3A.5CCANFDGwMcuFirmRH850F1x.5Ccode.5CCANFDGwMcuFirmRH850F1x.5CCANFDGwMcuFirmRH850F1x.5Cprj.5CGHS.20MULTI.5CCAN.20Gateway.5Coutput.5Cobj.5Cpe1.5CCan.110::
                        3398 .LDWlin110:
000015ee 0b0a           3399 	mov	11,r1
000015f0 c515*          3400 	br	.L958
                        3401 .L971:
                        3402 --1171: 		}
                        3403 --1172: 		else if (FD_PAYLOAD_DLC_C == dataLength)
                        3404 --line1172
                        3405 ..lin.D.3A.5CCANFDGwMcuFirmRH850F1x.5Ccode.5CCANFDGwMcuFirmRH850F1x.5CCANFDGwMcuFirmRH850F1x.5Cprj.5CGHS.20MULTI.5CCAN.20Gateway.5Coutput.5Cobj.5Cpe1.5CCan.111::
                        3406 .LDWlin111:
000015f2 0606e8ff       3407 	addi	-24,r6,zero

                                                                      Page 60
                                                              C:\Users\TIEZHU~1\AppData\Local\Temp\gh_00006hc1.si
000015f6 ba05*          3408 	bne	.L974
                        3409 --1173: 		{
                        3410 --1174: 			rtn_value = FD_FRM_DLC_C;
                        3411 --line1174
                        3412 ..lin.D.3A.5CCANFDGwMcuFirmRH850F1x.5Ccode.5CCANFDGwMcuFirmRH850F1x.5CCANFDGwMcuFirmRH850F1x.5Cprj.5CGHS.20MULTI.5CCAN.20Gateway.5Coutput.5Cobj.5Cpe1.5CCan.112::
                        3413 .LDWlin112:
000015f8 0c0a           3414 	mov	12,r1
000015fa f50d*          3415 	br	.L958
                        3416 .L974:
                        3417 --1175: 		}
                        3418 --1176: 		else if (FD_PAYLOAD_DLC_D == dataLength)
                        3419 --line1176
                        3420 ..lin.D.3A.5CCANFDGwMcuFirmRH850F1x.5Ccode.5CCANFDGwMcuFirmRH850F1x.5CCANFDGwMcuFirmRH850F1x.5Cprj.5CGHS.20MULTI.5CCAN.20Gateway.5Coutput.5Cobj.5Cpe1.5CCan.113::
                        3421 .LDWlin113:
000015fc 0606e0ff       3422 	addi	-32,r6,zero
00001600 ba05*          3423 	bne	.L977
                        3424 --1177: 		{
                        3425 --1178: 			rtn_value = FD_FRM_DLC_D;
                        3426 --line1178
                        3427 ..lin.D.3A.5CCANFDGwMcuFirmRH850F1x.5Ccode.5CCANFDGwMcuFirmRH850F1x.5CCANFDGwMcuFirmRH850F1x.5Cprj.5CGHS.20MULTI.5CCAN.20Gateway.5Coutput.5Cobj.5Cpe1.5CCan.114::
                        3428 .LDWlin114:
00001602 0d0a           3429 	mov	13,r1
00001604 a50d*          3430 	br	.L958
                        3431 .L977:
                        3432 --1179: 		}
                        3433 --1180: 		else if (FD_PAYLOAD_DLC_E == dataLength)
                        3434 --line1180
                        3435 ..lin.D.3A.5CCANFDGwMcuFirmRH850F1x.5Ccode.5CCANFDGwMcuFirmRH850F1x.5CCANFDGwMcuFirmRH850F1x.5Cprj.5CGHS.20MULTI.5CCAN.20Gateway.5Coutput.5Cobj.5Cpe1.5CCan.115::
                        3436 .LDWlin115:
00001606 0606d0ff       3437 	addi	-48,r6,zero
0000160a ba05*          3438 	bne	.L980
                        3439 --1181: 		{
                        3440 --1182: 			rtn_value = FD_FRM_DLC_E;
                        3441 --line1182
                        3442 ..lin.D.3A.5CCANFDGwMcuFirmRH850F1x.5Ccode.5CCANFDGwMcuFirmRH850F1x.5CCANFDGwMcuFirmRH850F1x.5Cprj.5CGHS.20MULTI.5CCAN.20Gateway.5Coutput.5Cobj.5Cpe1.5CCan.116::
                        3443 .LDWlin116:
0000160c 0e0a           3444 	mov	14,r1
0000160e d505*          3445 	br	.L958
                        3446 .L980:
                        3447 --1183: 		}
                        3448 --1184: 		else if (FD_PAYLOAD_DLC_F == dataLength)
                        3449 --line1184
                        3450 ..lin.D.3A.5CCANFDGwMcuFirmRH850F1x.5Ccode.5CCANFDGwMcuFirmRH850F1x.5CCANFDGwMcuFirmRH850F1x.5Cprj.5CGHS.20MULTI.5CCAN.20Gateway.5Coutput.5Cobj.5Cpe1.5CCan.117::
                        3451 .LDWlin117:
00001610 0606c0ff       3452 	addi	-64,r6,zero
00001614 aa05*          3453 	bne	.L958
                        3454 --1185: 		{
                        3455 --1186: 			rtn_value = FD_FRM_DLC_F;
                        3456 --line1186
                        3457 ..lin.D.3A.5CCANFDGwMcuFirmRH850F1x.5Ccode.5CCANFDGwMcuFirmRH850F1x.5CCANFDGwMcuFirmRH850F1x.5Cprj.5CGHS.20MULTI.5CCAN.20Gateway.5Coutput.5Cobj.5Cpe1.5CCan.118::
                        3458 .LDWlin118:
00001616 0f0a           3459 	mov	15,r1
                        3460 .L958:
                        3461 --1187: 		}
                        3462 --1188: 		else
                        3463 --1189: 		{
                        3464 --1190: 			/* ignore other values */
                        3465 --1191: 		}
                        3466 --1192: 	}
                        3467 --1193: 	else
                        3468 --1194: 	{

                                                                      Page 61
                                                              C:\Users\TIEZHU~1\AppData\Local\Temp\gh_00006hc1.si
                        3469 --1195: 		/* ignore */
                        3470 --1196: 	}
                        3471 --1198: 	return rtn_value;
00001618 0150           3472 	mov	r1,r10
                        3473 --	    .ef
                        3474 .LDW56:
0000161a 7f00           3475 	jmp	[lp]
                        3476 	.type	_can_get_dlc_by_data_length,@function
                        3477 	.size	_can_get_dlc_by_data_length,.-_can_get_dlc_by_data_length
                        3478 	.type	_can_get_dlc_by_data_length..D.3A.5CCANFDGwMcuFirmRH850F1x.5Ccode.5CCANFDGwMcuFirmRH850F1x.5CCANFDGwMcuFirmRH850F1x.5Cprj.5CGHS.20MULTI.5CCAN.20Gateway.5Coutput.5Cobj.5Cpe1.5CCan.,@function
                        3479 	.size	_can_get_dlc_by_data_length..D.3A.5CCANFDGwMcuFirmRH850F1x.5Ccode.5CCANFDGwMcuFirmRH850F1x.5CCANFDGwMcuFirmRH850F1x.5Cprj.5CGHS.20MULTI.5CCAN.20Gateway.5Coutput.5Cobj.5Cpe1.5CCan.,.-_can_get_dlc_by_data_length..D.3A.5CCANFDGwMcuFirmRH850F1x.5Ccode.5CCANFDGwMcuFirmRH850F1x.5CCANFDGwMcuFirmRH850F1x.5Cprj.5CGHS.20MULTI.5CCAN.20Gateway.5Coutput.5Cobj.5Cpe1.5CCan.
                        3480 	.align	2
                        3481 .LDW66:
                        3482 --_rtn_value	r1	local
                        3483 
                        3484 --_dataLength	r6	param
                        3485 --_frmFormat	r7	param
                        3486 
                        3487 	.data
                        3488 	.text
                        3489 
                        3490 --1199: }
                        3491 
                        3492 --1201: /***********************************************************************************************************************
                        3493 --1202:  * Function Name: can_get_data_length_by_dlc
                        3494 --1203:  * Description  : This function gets data length based on DLC value.
                        3495 --1204:  * Arguments    : pfrm -
                        3496 --1205:  *                    pointer to frame.
                        3497 --1206:  * Return Value : real data length
                        3498 --1207:  ***********************************************************************************************************************/
                        3499 --1208: static uint8_t can_get_data_length_by_dlc(const RSCFD_Frame* pfrm)
                        3500 	.align	2
                        3501 	.align	2
                        3502 	.global	_can_get_data_length_by_dlc..D.3A.5CCANFDGwMcuFirmRH850F1x.5Ccode.5CCANFDGwMcuFirmRH850F1x.5CCANFDGwMcuFirmRH850F1x.5Cprj.5CGHS.20MULTI.5CCAN.20Gateway.5Coutput.5Cobj.5Cpe1.5CCan.
                        3503 _can_get_data_length_by_dlc..D.3A.5CCANFDGwMcuFirmRH850F1x.5Ccode.5CCANFDGwMcuFirmRH850F1x.5CCANFDGwMcuFirmRH850F1x.5Cprj.5CGHS.20MULTI.5CCAN.20Gateway.5Coutput.5Cobj.5Cpe1.5CCan.:
                        3504 _can_get_data_length_by_dlc:
0000161c 06f0           3505 	mov	r6,ep
                        3506 --	    .bf
                        3507 .LDW76:
                        3508 --1209: {
                        3509 --1210: 	uint8_t rtn_value = 0U;
0000161e 000a           3510 	mov	0,r1
                        3511 --1212: 	if ((RSCFD_FRAME_FORMAT_CLASSICAL_BASE == pfrm->Format) || (RSCFD_FRAME_FORMAT_CLASSICAL_EXTENDED == pfrm->Format))
00001620 0015           3512 	sld.w	0[ep],r2
00001622 e011           3513 	cmp	zero,r2
00001624 c205*          3514 	be	.L1129
00001626 0015           3515 	sld.w	0[ep],r2
00001628 6112           3516 	cmp	1,r2
0000162a 8a0d*          3517 	bne	.L1128
                        3518 .L1129:
                        3519 --1213: 	{
                        3520 --1214: 		/* Classical frame */
                        3521 --1215: 		if (pfrm->DLC <= CLASSIC_FRM_DLC_MAX)
                        3522 --line1215
                        3523 ..lin.D.3A.5CCANFDGwMcuFirmRH850F1x.5Ccode.5CCANFDGwMcuFirmRH850F1x.5CCANFDGwMcuFirmRH850F1x.5Cprj.5CGHS.20MULTI.5CCAN.20Gateway.5Coutput.5Cobj.5Cpe1.5CCan.119::
                        3524 .LDWlin119:
0000162c 6c08           3525 	sld.bu	12[ep],r1
0000162e 680a           3526 	cmp	8,r1
00001630 bb05*          3527 	bh	.L1131
                        3528 --1216: 		{
                        3529 --1217: 			rtn_value = pfrm->DLC;

                                                                      Page 62
                                                              C:\Users\TIEZHU~1\AppData\Local\Temp\gh_00006hc1.si
                        3530 --line1217
                        3531 ..lin.D.3A.5CCANFDGwMcuFirmRH850F1x.5Ccode.5CCANFDGwMcuFirmRH850F1x.5CCANFDGwMcuFirmRH850F1x.5Cprj.5CGHS.20MULTI.5CCAN.20Gateway.5Coutput.5Cobj.5Cpe1.5CCan.120::
                        3532 .LDWlin120:
00001632 6c08           3533 	sld.bu	12[ep],r1
00001634 e535*          3534 	br	.L1134
                        3535 .L1131:
                        3536 --1218: 		}
                        3537 --1219: 		else
                        3538 --1220: 		{
                        3539 --1221: 			rtn_value = FD_PAYLOAD_DLC_8;
                        3540 --line1221
                        3541 ..lin.D.3A.5CCANFDGwMcuFirmRH850F1x.5Ccode.5CCANFDGwMcuFirmRH850F1x.5CCANFDGwMcuFirmRH850F1x.5Cprj.5CGHS.20MULTI.5CCAN.20Gateway.5Coutput.5Cobj.5Cpe1.5CCan.121::
                        3542 .LDWlin121:
00001636 080a           3543 	mov	8,r1
00001638 c535*          3544 	br	.L1134
                        3545 .L1128:
                        3546 --1222: 		}
                        3547 --1223: 	}
                        3548 --1224: 	else if ((RSCFD_FRAME_FORMAT_FD_BASE == pfrm->Format) || (RSCFD_FRAME_FORMAT_FD_EXTENDED == pfrm->Format))
                        3549 --line1224
                        3550 ..lin.D.3A.5CCANFDGwMcuFirmRH850F1x.5Ccode.5CCANFDGwMcuFirmRH850F1x.5CCANFDGwMcuFirmRH850F1x.5Cprj.5CGHS.20MULTI.5CCAN.20Gateway.5Coutput.5Cobj.5Cpe1.5CCan.122::
                        3551 .LDWlin122:
0000163a 0015           3552 	sld.w	0[ep],r2
0000163c 6212           3553 	cmp	2,r2
0000163e c205*          3554 	be	.L1136
00001640 0015           3555 	sld.w	0[ep],r2
00001642 6312           3556 	cmp	3,r2
00001644 ea2d*          3557 	bne	.L1134
                        3558 .L1136:
                        3559 --1225: 	{
                        3560 --1226: 		/* FD frame */
                        3561 --1227: 		if (pfrm->DLC <= CLASSIC_FRM_DLC_MAX)
                        3562 --line1227
                        3563 ..lin.D.3A.5CCANFDGwMcuFirmRH850F1x.5Ccode.5CCANFDGwMcuFirmRH850F1x.5CCANFDGwMcuFirmRH850F1x.5Cprj.5CGHS.20MULTI.5CCAN.20Gateway.5Coutput.5Cobj.5Cpe1.5CCan.123::
                        3564 .LDWlin123:
00001646 6c10           3565 	sld.bu	12[ep],r2
00001648 6812           3566 	cmp	8,r2
0000164a bb05*          3567 	bh	.L1138
                        3568 --1228: 		{
                        3569 --1229: 			rtn_value = pfrm->DLC;
                        3570 --line1229
                        3571 ..lin.D.3A.5CCANFDGwMcuFirmRH850F1x.5Ccode.5CCANFDGwMcuFirmRH850F1x.5CCANFDGwMcuFirmRH850F1x.5Cprj.5CGHS.20MULTI.5CCAN.20Gateway.5Coutput.5Cobj.5Cpe1.5CCan.124::
                        3572 .LDWlin124:
0000164c 6c08           3573 	sld.bu	12[ep],r1
0000164e 952d*          3574 	br	.L1134
                        3575 .L1138:
                        3576 --1230: 		}
                        3577 --1231: 		else if (FD_FRM_DLC_9 == pfrm->DLC)
                        3578 --line1231
                        3579 ..lin.D.3A.5CCANFDGwMcuFirmRH850F1x.5Ccode.5CCANFDGwMcuFirmRH850F1x.5CCANFDGwMcuFirmRH850F1x.5Cprj.5CGHS.20MULTI.5CCAN.20Gateway.5Coutput.5Cobj.5Cpe1.5CCan.125::
                        3580 .LDWlin125:
00001650 6c10           3581 	sld.bu	12[ep],r2
00001652 6912           3582 	cmp	9,r2
00001654 ba05*          3583 	bne	.L1141
                        3584 --1232: 		{
                        3585 --1233: 			rtn_value = FD_PAYLOAD_DLC_9;
                        3586 --line1233
                        3587 ..lin.D.3A.5CCANFDGwMcuFirmRH850F1x.5Ccode.5CCANFDGwMcuFirmRH850F1x.5CCANFDGwMcuFirmRH850F1x.5Cprj.5CGHS.20MULTI.5CCAN.20Gateway.5Coutput.5Cobj.5Cpe1.5CCan.126::
                        3588 .LDWlin126:
00001656 0c0a           3589 	mov	12,r1
00001658 c525*          3590 	br	.L1134

                                                                      Page 63
                                                              C:\Users\TIEZHU~1\AppData\Local\Temp\gh_00006hc1.si
                        3591 .L1141:
                        3592 --1234: 		}
                        3593 --1235: 		else if (FD_FRM_DLC_A == pfrm->DLC)
                        3594 --line1235
                        3595 ..lin.D.3A.5CCANFDGwMcuFirmRH850F1x.5Ccode.5CCANFDGwMcuFirmRH850F1x.5CCANFDGwMcuFirmRH850F1x.5Cprj.5CGHS.20MULTI.5CCAN.20Gateway.5Coutput.5Cobj.5Cpe1.5CCan.127::
                        3596 .LDWlin127:
0000165a 6c10           3597 	sld.bu	12[ep],r2
0000165c 6a12           3598 	cmp	10,r2
0000165e ca05*          3599 	bne	.L1144
                        3600 --1236: 		{
                        3601 --1237: 			rtn_value = FD_PAYLOAD_DLC_A;
                        3602 --line1237
                        3603 ..lin.D.3A.5CCANFDGwMcuFirmRH850F1x.5Ccode.5CCANFDGwMcuFirmRH850F1x.5CCANFDGwMcuFirmRH850F1x.5Cprj.5CGHS.20MULTI.5CCAN.20Gateway.5Coutput.5Cobj.5Cpe1.5CCan.128::
                        3604 .LDWlin128:
00001660 200e1000       3605 	movea	16,zero,r1
00001664 e51d*          3606 	br	.L1134
                        3607 .L1144:
                        3608 --1238: 		}
                        3609 --1239: 		else if (FD_FRM_DLC_B == pfrm->DLC)
                        3610 --line1239
                        3611 ..lin.D.3A.5CCANFDGwMcuFirmRH850F1x.5Ccode.5CCANFDGwMcuFirmRH850F1x.5CCANFDGwMcuFirmRH850F1x.5Cprj.5CGHS.20MULTI.5CCAN.20Gateway.5Coutput.5Cobj.5Cpe1.5CCan.129::
                        3612 .LDWlin129:
00001666 6c10           3613 	sld.bu	12[ep],r2
00001668 6b12           3614 	cmp	11,r2
0000166a ca05*          3615 	bne	.L1147
                        3616 --1240: 		{
                        3617 --1241: 			rtn_value = FD_PAYLOAD_DLC_B;
                        3618 --line1241
                        3619 ..lin.D.3A.5CCANFDGwMcuFirmRH850F1x.5Ccode.5CCANFDGwMcuFirmRH850F1x.5CCANFDGwMcuFirmRH850F1x.5Cprj.5CGHS.20MULTI.5CCAN.20Gateway.5Coutput.5Cobj.5Cpe1.5CCan.130::
                        3620 .LDWlin130:
0000166c 200e1400       3621 	movea	20,zero,r1
00001670 851d*          3622 	br	.L1134
                        3623 .L1147:
                        3624 --1242: 		}
                        3625 --1243: 		else if (FD_FRM_DLC_C == pfrm->DLC)
                        3626 --line1243
                        3627 ..lin.D.3A.5CCANFDGwMcuFirmRH850F1x.5Ccode.5CCANFDGwMcuFirmRH850F1x.5CCANFDGwMcuFirmRH850F1x.5Cprj.5CGHS.20MULTI.5CCAN.20Gateway.5Coutput.5Cobj.5Cpe1.5CCan.131::
                        3628 .LDWlin131:
00001672 6c10           3629 	sld.bu	12[ep],r2
00001674 6c12           3630 	cmp	12,r2
00001676 ca05*          3631 	bne	.L1150
                        3632 --1244: 		{
                        3633 --1245: 			rtn_value = FD_PAYLOAD_DLC_C;
                        3634 --line1245
                        3635 ..lin.D.3A.5CCANFDGwMcuFirmRH850F1x.5Ccode.5CCANFDGwMcuFirmRH850F1x.5CCANFDGwMcuFirmRH850F1x.5Cprj.5CGHS.20MULTI.5CCAN.20Gateway.5Coutput.5Cobj.5Cpe1.5CCan.132::
                        3636 .LDWlin132:
00001678 200e1800       3637 	movea	24,zero,r1
0000167c a515*          3638 	br	.L1134
                        3639 .L1150:
                        3640 --1246: 		}
                        3641 --1247: 		else if (FD_FRM_DLC_D == pfrm->DLC)
                        3642 --line1247
                        3643 ..lin.D.3A.5CCANFDGwMcuFirmRH850F1x.5Ccode.5CCANFDGwMcuFirmRH850F1x.5CCANFDGwMcuFirmRH850F1x.5Cprj.5CGHS.20MULTI.5CCAN.20Gateway.5Coutput.5Cobj.5Cpe1.5CCan.133::
                        3644 .LDWlin133:
0000167e 6c10           3645 	sld.bu	12[ep],r2
00001680 6d12           3646 	cmp	13,r2
00001682 ca05*          3647 	bne	.L1153
                        3648 --1248: 		{
                        3649 --1249: 			rtn_value = FD_PAYLOAD_DLC_D;
                        3650 --line1249
                        3651 ..lin.D.3A.5CCANFDGwMcuFirmRH850F1x.5Ccode.5CCANFDGwMcuFirmRH850F1x.5CCANFDGwMcuFirmRH850F1x.5Cprj.5CGHS.20MULTI.5CCAN.20Gateway.5Coutput.5Cobj.5Cpe1.5CCan.134::

                                                                      Page 64
                                                              C:\Users\TIEZHU~1\AppData\Local\Temp\gh_00006hc1.si
                        3652 .LDWlin134:
00001684 200e2000       3653 	movea	32,zero,r1
00001688 c50d*          3654 	br	.L1134
                        3655 .L1153:
                        3656 --1250: 		}
                        3657 --1251: 		else if (FD_FRM_DLC_E == pfrm->DLC)
                        3658 --line1251
                        3659 ..lin.D.3A.5CCANFDGwMcuFirmRH850F1x.5Ccode.5CCANFDGwMcuFirmRH850F1x.5CCANFDGwMcuFirmRH850F1x.5Cprj.5CGHS.20MULTI.5CCAN.20Gateway.5Coutput.5Cobj.5Cpe1.5CCan.135::
                        3660 .LDWlin135:
0000168a 6c10           3661 	sld.bu	12[ep],r2
0000168c 6e12           3662 	cmp	14,r2
0000168e ca05*          3663 	bne	.L1156
                        3664 --1252: 		{
                        3665 --1253: 			rtn_value = FD_PAYLOAD_DLC_E;
                        3666 --line1253
                        3667 ..lin.D.3A.5CCANFDGwMcuFirmRH850F1x.5Ccode.5CCANFDGwMcuFirmRH850F1x.5CCANFDGwMcuFirmRH850F1x.5Cprj.5CGHS.20MULTI.5CCAN.20Gateway.5Coutput.5Cobj.5Cpe1.5CCan.136::
                        3668 .LDWlin136:
00001690 200e3000       3669 	movea	48,zero,r1
00001694 e505*          3670 	br	.L1134
                        3671 .L1156:
                        3672 --1254: 		}
                        3673 --1255: 		else if (FD_FRM_DLC_F == pfrm->DLC)
                        3674 --line1255
                        3675 ..lin.D.3A.5CCANFDGwMcuFirmRH850F1x.5Ccode.5CCANFDGwMcuFirmRH850F1x.5CCANFDGwMcuFirmRH850F1x.5Cprj.5CGHS.20MULTI.5CCAN.20Gateway.5Coutput.5Cobj.5Cpe1.5CCan.137::
                        3676 .LDWlin137:
00001696 6c10           3677 	sld.bu	12[ep],r2
00001698 6f12           3678 	cmp	15,r2
0000169a ba05*          3679 	bne	.L1134
                        3680 --1256: 		{
                        3681 --1257: 			rtn_value = FD_PAYLOAD_DLC_F;
                        3682 --line1257
                        3683 ..lin.D.3A.5CCANFDGwMcuFirmRH850F1x.5Ccode.5CCANFDGwMcuFirmRH850F1x.5CCANFDGwMcuFirmRH850F1x.5Cprj.5CGHS.20MULTI.5CCAN.20Gateway.5Coutput.5Cobj.5Cpe1.5CCan.138::
                        3684 .LDWlin138:
0000169c 200e4000       3685 	movea	64,zero,r1
                        3686 .L1134:
                        3687 --1258: 		}
                        3688 --1259: 		else
                        3689 --1260: 		{
                        3690 --1261: 			/* ignore other values */
                        3691 --1262: 		}
                        3692 --1263: 	}
                        3693 --1264: 	else
                        3694 --1265: 	{
                        3695 --1266: 		/* ignore */
                        3696 --1267: 	}
                        3697 --1268: 	return rtn_value;
000016a0 0150           3698 	mov	r1,r10
                        3699 --	    .ef
                        3700 .LDW86:
000016a2 7f00           3701 	jmp	[lp]
                        3702 	.type	_can_get_data_length_by_dlc,@function
                        3703 	.size	_can_get_data_length_by_dlc,.-_can_get_data_length_by_dlc
                        3704 	.type	_can_get_data_length_by_dlc..D.3A.5CCANFDGwMcuFirmRH850F1x.5Ccode.5CCANFDGwMcuFirmRH850F1x.5CCANFDGwMcuFirmRH850F1x.5Cprj.5CGHS.20MULTI.5CCAN.20Gateway.5Coutput.5Cobj.5Cpe1.5CCan.,@function
                        3705 	.size	_can_get_data_length_by_dlc..D.3A.5CCANFDGwMcuFirmRH850F1x.5Ccode.5CCANFDGwMcuFirmRH850F1x.5CCANFDGwMcuFirmRH850F1x.5Cprj.5CGHS.20MULTI.5CCAN.20Gateway.5Coutput.5Cobj.5Cpe1.5CCan.,.-_can_get_data_length_by_dlc..D.3A.5CCANFDGwMcuFirmRH850F1x.5Ccode.5CCANFDGwMcuFirmRH850F1x.5CCANFDGwMcuFirmRH850F1x.5Cprj.5CGHS.20MULTI.5CCAN.20Gateway.5Coutput.5Cobj.5Cpe1.5CCan.
                        3706 	.align	2
                        3707 .LDW96:
                        3708 --_rtn_value	r1	local
                        3709 
                        3710 --_pfrm	ep	param
                        3711 
                        3712 	.data

                                                                      Page 65
                                                              C:\Users\TIEZHU~1\AppData\Local\Temp\gh_00006hc1.si
                        3713 	.text
                        3714 
                        3715 --1269: }
                        3716 
                        3717 --1271: /***********************************************************************************************************************
                        3718 --1272:  * Function Name: can_get_txmsg
                        3719 --1273:  * Description  : This function gets Tx message from specified PduInfo.
                        3720 --1274:  * Arguments    : PduInfo -
                        3721 --1275:  *                    pointer to Pdu info.
                        3722 --1276:  * Return Value : CAN message settings
                        3723 --1277:  ***********************************************************************************************************************/
                        3724 --1278: static RSCFD_Frame can_get_txmsg(const Can_PduType* PduInfo, uint8_t UnitId, uint8_t ChannelId)
                        3725 	.align	2
                        3726 	.align	2
                        3727 	.global	_can_get_txmsg..D.3A.5CCANFDGwMcuFirmRH850F1x.5Ccode.5CCANFDGwMcuFirmRH850F1x.5CCANFDGwMcuFirmRH850F1x.5Cprj.5CGHS.20MULTI.5CCAN.20Gateway.5Coutput.5Cobj.5Cpe1.5CCan.
                        3728 _can_get_txmsg..D.3A.5CCANFDGwMcuFirmRH850F1x.5Ccode.5CCANFDGwMcuFirmRH850F1x.5CCANFDGwMcuFirmRH850F1x.5Cprj.5CGHS.20MULTI.5CCAN.20Gateway.5Coutput.5Cobj.5Cpe1.5CCan.:
                        3729 _can_get_txmsg:
000016a4 031e9cff       3730 	addi	-100,sp,sp
000016a8 63ff6100       3731 	st.w	lp,96[sp]
000016ac 63d75d00       3732 	st.w	r26,92[sp]
000016b0 63df5900       3733 	st.w	r27,88[sp]
000016b4 63e75500       3734 	st.w	r28,84[sp]
000016b8 63ef5100       3735 	st.w	r29,80[sp]
000016bc 06e0           3736 	mov	r6,r28
000016be 07e8           3737 	mov	r7,r29
000016c0 c8deff00       3738 	andi	255,r8,r27
000016c4 c9d6ff00       3739 	andi	255,r9,r26
                        3740 --	    .bf
                        3741 .LDW07:
                        3742 --1279: {
                        3743 --1280: 	RSCFD_Frame txmsg;
                        3744 --1281: 	uint8_t data_idx;
                        3745 --1282: 	uint8_t tbl_idx;
                        3746 --1283: 	const can_controller_cfg_t* p_chn_cfg;
                        3747 --1285: 	txmsg.Format = can_get_id_type(PduInfo->Id);
000016c8 3d370500       3748 	ld.w	4[r29],r6
                        3749 	jarl	_can_get_id_type,lp
                        3749 <EXPANSION BEGIN>
                        3749 jarl22 _can_get_id_type , lp 
000016cc bfff9efe*      3749 <EXPANSION END>
000016d0 63570100       3750 	st.w	r10,0[sp]
                        3751 --1286: 	txmsg.Type = RSCFD_FRAME_TYPE_DATA;
                        3752 --line1286
                        3753 ..lin.D.3A.5CCANFDGwMcuFirmRH850F1x.5Ccode.5CCANFDGwMcuFirmRH850F1x.5CCANFDGwMcuFirmRH850F1x.5Cprj.5CGHS.20MULTI.5CCAN.20Gateway.5Coutput.5Cobj.5Cpe1.5CCan.139::
                        3754 .LDWlin139:
000016d4 63070500       3755 	st.w	zero,4[sp]
                        3756 --1287: 	txmsg.ID = (PduInfo->Id) & 0x3FFFFFFFUL;
000016d8 3d0f0500       3757 	ld.w	4[r29],r1
000016dc 2206ffffff3f   3758 	mov	1073741823,r2
000016e2 4209           3759 	and	r2,r1
000016e4 630f0900       3760 	st.w	r1,8[sp]
                        3761 --1288: 	txmsg.DLC = can_get_dlc_by_data_length(PduInfo->Length, txmsg.Format);
000016e8 9d370300       3762 	ld.bu	2[r29],r6
000016ec 233f0100       3763 	ld.w	0[sp],r7
                        3764 	jarl	_can_get_dlc_by_data_length,lp
                        3764 <EXPANSION BEGIN>
                        3764 jarl22 _can_get_dlc_by_data_length , lp 
000016f0 bfffbcfe*      3764 <EXPANSION END>
000016f4 43570c00       3765 	st.b	r10,12[sp]
                        3766 --1289: 	for (data_idx = 0U; data_idx < PduInfo->Length; data_idx++)
                        3767 --line1289

                                                                      Page 66
                                                              C:\Users\TIEZHU~1\AppData\Local\Temp\gh_00006hc1.si
                        3768 ..lin.D.3A.5CCANFDGwMcuFirmRH850F1x.5Ccode.5CCANFDGwMcuFirmRH850F1x.5CCANFDGwMcuFirmRH850F1x.5Cprj.5CGHS.20MULTI.5CCAN.20Gateway.5Coutput.5Cobj.5Cpe1.5CCan.140::
                        3769 .LDWlin140:
000016f8 000a           3770 	mov	0,r1
000016fa 8515*          3771 	br	.L1307
                        3772 .L1306:
                        3773 --1290: 	{
                        3774 --1291: 		txmsg.Data[data_idx] = PduInfo->Sdu[data_idx];
                        3775 --line1291
                        3776 ..lin.D.3A.5CCANFDGwMcuFirmRH850F1x.5Ccode.5CCANFDGwMcuFirmRH850F1x.5CCANFDGwMcuFirmRH850F1x.5Cprj.5CGHS.20MULTI.5CCAN.20Gateway.5Coutput.5Cobj.5Cpe1.5CCan.141::
                        3777 .LDWlin141:
000016fc 23160000       3778 	movea	0,sp,r2
00001700 02160d00       3779 	addi	13,r2,r2
00001704 01f0           3780 	mov	r1,ep
00001706 c2f1           3781 	add	r2,ep
00001708 3d9f0900       3782 	ld.w	8[r29],r19
0000170c 0110           3783 	mov	r1,r2
0000170e d311           3784 	add	r19,r2
00001710 82170100       3785 	ld.bu	0[r2],r2
00001714 8013           3786 	sst.b	r2,0[ep]
00001716 410a           3787 	add	1,r1
00001718 8100           3788 	zxb	r1
                        3789 .L1307:
0000171a 9d170300       3790 	ld.bu	2[r29],r2
0000171e e209           3791 	cmp	r2,r1
00001720 e1ed*          3792 	bl	.L1306
                        3793 --1292: 	}
                        3794 --1294: 	for (tbl_idx = (uint8_t) 0U; tbl_idx < Can_PbConfig.NumOfUsedController; tbl_idx++)
                        3795 --line1294
                        3796 ..lin.D.3A.5CCANFDGwMcuFirmRH850F1x.5Ccode.5CCANFDGwMcuFirmRH850F1x.5CCANFDGwMcuFirmRH850F1x.5Cprj.5CGHS.20MULTI.5CCAN.20Gateway.5Coutput.5Cobj.5Cpe1.5CCan.142::
                        3797 .LDWlin142:
00001722 000a           3798 	mov	0,r1
00001724 f51d*          3799 	br	.L1311
                        3800 .L1310:
                        3801 --1295: 	{
                        3802 --1296: 		p_chn_cfg = &Can_PbConfig.CanControllerTable[tbl_idx];
                        3803 --line1296
                        3804 ..lin.D.3A.5CCANFDGwMcuFirmRH850F1x.5Ccode.5CCANFDGwMcuFirmRH850F1x.5CCANFDGwMcuFirmRH850F1x.5Cprj.5CGHS.20MULTI.5CCAN.20Gateway.5Coutput.5Cobj.5Cpe1.5CCan.143::
                        3805 .LDWlin143:
00001726 e1162400       3806 	mulhi	36,r1,r2
0000172a 2b0600000000*  3807 	mov	_Can_PbConfig+4,r11
00001730 2b9f0100       3808 	ld.w	0[r11],r19
00001734 02f0           3809 	mov	r2,ep
00001736 d3f1           3810 	add	r19,ep
                        3811 --1297: 		if ((UnitId == p_chn_cfg->UnitIdx) && (ChannelId == p_chn_cfg->ControllerId))
00001738 6410           3812 	sld.bu	4[ep],r2
0000173a e2d9           3813 	cmp	r2,r27
0000173c 9a15*          3814 	bne	.L1309
0000173e 6510           3815 	sld.bu	5[ep],r2
00001740 e2d1           3816 	cmp	r2,r26
00001742 ea0d*          3817 	bne	.L1309
                        3818 --1298: 		{
                        3819 --1299: 			txmsg.BRS = Can_PbConfig.CanControllerTable[tbl_idx].Baudrate.can_fd_brp_cfg.TxBitRateSwitch;
                        3820 --line1299
                        3821 ..lin.D.3A.5CCANFDGwMcuFirmRH850F1x.5Ccode.5CCANFDGwMcuFirmRH850F1x.5CCANFDGwMcuFirmRH850F1x.5Cprj.5CGHS.20MULTI.5CCAN.20Gateway.5Coutput.5Cobj.5Cpe1.5CCan.144::
                        3822 .LDWlin144:
00001744 e40f4402       3823 	mul	36,r1,zero
00001748 2b0600000000*  3824 	mov	_Can_PbConfig+4,r11
0000174e 2b170100       3825 	ld.w	0[r11],r2
00001752 c209           3826 	add	r2,r1
00001754 810f1300       3827 	ld.bu	18[r1],r1
00001758 430f4d00       3828 	st.b	r1,77[sp]

                                                                      Page 67
                                                              C:\Users\TIEZHU~1\AppData\Local\Temp\gh_00006hc1.si
                        3829 --1300: 			break;
0000175c a50d*          3830 	br	.L1315
                        3831 .L1309:
                        3832 --line1294
                        3833 ..lin.D.3A.5CCANFDGwMcuFirmRH850F1x.5Ccode.5CCANFDGwMcuFirmRH850F1x.5CCANFDGwMcuFirmRH850F1x.5Cprj.5CGHS.20MULTI.5CCAN.20Gateway.5Coutput.5Cobj.5Cpe1.5CCan.145::
                        3834 .LDWlin145:
0000175e 410a           3835 	add	1,r1
00001760 8100           3836 	zxb	r1
                        3837 .L1311:
00001762 2b0600000000*  3838 	mov	_Can_PbConfig,r11
00001768 8b170100       3839 	ld.bu	0[r11],r2
0000176c e209           3840 	cmp	r2,r1
0000176e c1dd*          3841 	bl	.L1310
                        3842 .L1315:
                        3843 --1301: 		}
                        3844 --1302: 	}
                        3845 --1304: 	txmsg.ESI = RSCFD_FALSE;
                        3846 --line1304
                        3847 ..lin.D.3A.5CCANFDGwMcuFirmRH850F1x.5Ccode.5CCANFDGwMcuFirmRH850F1x.5CCANFDGwMcuFirmRH850F1x.5Cprj.5CGHS.20MULTI.5CCAN.20Gateway.5Coutput.5Cobj.5Cpe1.5CCan.146::
                        3848 .LDWlin146:
00001770 43074e00       3849 	st.b	zero,78[sp]
                        3850 --1306: 	return txmsg;
00001774 230e0000       3851 	movea	0,sp,r1
00001778 1c10           3852 	mov	r28,r2
0000177a 019e5000       3853 	addi	80,r1,r19
                        3854 .L1378:
0000177e a10709800000   3855 	ld.dw	0[r1],r16
00001784 a2070f800000   3856 	st.dw	r16,0[r2]
0000178a 480a           3857 	add	8,r1
0000178c 4812           3858 	add	8,r2
0000178e e199           3859 	cmp	r1,r19
00001790 faf5*          3860 	bne	.L1378
                        3861 --	    .ef
                        3862 .LDW17:
                        3863 --line1307
                        3864 ..lin.D.3A.5CCANFDGwMcuFirmRH850F1x.5Ccode.5CCANFDGwMcuFirmRH850F1x.5CCANFDGwMcuFirmRH850F1x.5Cprj.5CGHS.20MULTI.5CCAN.20Gateway.5Coutput.5Cobj.5Cpe1.5CCan.147::
                        3865 .LDWlin147:
00001792 23ff6100       3866 	ld.w	96[sp],lp
00001796 23ef5100       3867 	ld.w	80[sp],r29
0000179a 23e75500       3868 	ld.w	84[sp],r28
0000179e 23df5900       3869 	ld.w	88[sp],r27
000017a2 23d75d00       3870 	ld.w	92[sp],r26
000017a6 031e6400       3871 	addi	100,sp,sp
000017aa 7f00           3872 	jmp	[lp]
                        3873 	.type	_can_get_txmsg,@function
                        3874 	.size	_can_get_txmsg,.-_can_get_txmsg
                        3875 	.type	_can_get_txmsg..D.3A.5CCANFDGwMcuFirmRH850F1x.5Ccode.5CCANFDGwMcuFirmRH850F1x.5CCANFDGwMcuFirmRH850F1x.5Cprj.5CGHS.20MULTI.5CCAN.20Gateway.5Coutput.5Cobj.5Cpe1.5CCan.,@function
                        3876 	.size	_can_get_txmsg..D.3A.5CCANFDGwMcuFirmRH850F1x.5Ccode.5CCANFDGwMcuFirmRH850F1x.5CCANFDGwMcuFirmRH850F1x.5Cprj.5CGHS.20MULTI.5CCAN.20Gateway.5Coutput.5Cobj.5Cpe1.5CCan.,.-_can_get_txmsg..D.3A.5CCANFDGwMcuFirmRH850F1x.5Ccode.5CCANFDGwMcuFirmRH850F1x.5CCANFDGwMcuFirmRH850F1x.5Cprj.5CGHS.20MULTI.5CCAN.20Gateway.5Coutput.5Cobj.5Cpe1.5CCan.
                        3877 	.align	2
                        3878 .LDW27:
                        3879 --_txmsg	0[sp]	local
                        3880 --_data_idx	r1	local
                        3881 --_tbl_idx	r1	local
                        3882 --_p_chn_cfg	ep	local
                        3883 
                        3884 --LRETURN..	r28	param
                        3885 --_PduInfo	r29	param
                        3886 --_UnitId	r27	param
                        3887 --_ChannelId	r26	param
                        3888 
                        3889 	.data

                                                                      Page 68
                                                              C:\Users\TIEZHU~1\AppData\Local\Temp\gh_00006hc1.si
                        3890 	.text
                        3891 
                        3892 --1307: } /* End of function can_get_txmsg() */
                        3893 
                        3894 --1309: /***********************************************************************************************************************
                        3895 --1310:  * Function Name: can_get_txpointer
                        3896 --1311:  * Description  : This function gets Tx pointer to transmit.
                        3897 --1312:  *                Only free Tx buffer of Tx Queue can be transmitted.
                        3898 --1313:  *                Here, return Tx pointer with same as Tx buffer index.
                        3899 --1314:  * Arguments    : ChannelId -
                        3900 --1315:  *                    Information which HW-transmit handle shall be used for transmit.
                        3901 --1316:  *               PduId -
                        3902 --1317:  *                   Pdu Id
                        3903 --1318:  *               pTxPointer -
                        3904 --1319:  *                   pointer to returned Tx pointer
                        3905 --1320:  * Return Value : CAN_OK -
                        3906 --1321:  *                  if get Tx pointer then return CAN_OK
                        3907 --1322:  ***********************************************************************************************************************/
                        3908 --1323: static boolean can_get_txpointer(uint8_t ChannelId, PduIdType PduId, uint8_t* pTxPointer)
                        3909 	.align	2
                        3910 	.align	2
                        3911 	.global	_can_get_txpointer..D.3A.5CCANFDGwMcuFirmRH850F1x.5Ccode.5CCANFDGwMcuFirmRH850F1x.5CCANFDGwMcuFirmRH850F1x.5Cprj.5CGHS.20MULTI.5CCAN.20Gateway.5Coutput.5Cobj.5Cpe1.5CCan.
                        3912 _can_get_txpointer..D.3A.5CCANFDGwMcuFirmRH850F1x.5Ccode.5CCANFDGwMcuFirmRH850F1x.5CCANFDGwMcuFirmRH850F1x.5Cprj.5CGHS.20MULTI.5CCAN.20Gateway.5Coutput.5Cobj.5Cpe1.5CCan.:
                        3913 _can_get_txpointer:
000017ac 8600           3914 	zxb	r6
000017ae c700           3915 	zxh	r7
                        3916 --	    .bf
                        3917 .LDW37:
                        3918 --1324: {
                        3919 --1325: 	boolean rtn_value = FALSE;
000017b0 009a           3920 	mov	0,r19
                        3921 --1326: 	uint8_t txq_buf_idx;
                        3922 --1328: 	/* Check all TxQ buffers */
                        3923 --1329: 	for (txq_buf_idx = (uint8_t) 0U; txq_buf_idx < CAN_DEPTH_OF_TXQ; txq_buf_idx++)
000017b2 000a           3924 	mov	0,r1
                        3925 .L1400:
                        3926 --1330: 	{
                        3927 --1331: 		/* Check if map table element is free */
                        3928 --1332: 		if (RSCFD_TRUE == g_can_hoh_pduid_txtbl[ChannelId][txq_buf_idx].IsFree)
000017b4 0610           3929 	mov	r6,r2
000017b6 e2960a00       3930 	mulhi	10,r2,r18
000017ba 0110           3931 	mov	r1,r2
000017bc d211           3932 	add	r18,r2
000017be c212           3933 	shl	2,r2
000017c0 320600000000*  3934 	mov	_g_can_hoh_pduid_txtbl,r18
000017c6 02f0           3935 	mov	r2,ep
000017c8 d2f1           3936 	add	r18,ep
000017ca 6210           3937 	sld.bu	2[ep],r2
000017cc 6112           3938 	cmp	1,r2
000017ce da1d*          3939 	bne	.L1401
                        3940 --1333: 		{
                        3941 --1334: 			/* Set Tx PduId for Tx complete check, Tx pointer for Tx Queue */
                        3942 --1335: 			g_can_hoh_pduid_txtbl[ChannelId][txq_buf_idx].IsFree = RSCFD_FALSE;
                        3943 --line1335
                        3944 ..lin.D.3A.5CCANFDGwMcuFirmRH850F1x.5Ccode.5CCANFDGwMcuFirmRH850F1x.5CCANFDGwMcuFirmRH850F1x.5Cprj.5CGHS.20MULTI.5CCAN.20Gateway.5Coutput.5Cobj.5Cpe1.5CCan.148::
                        3945 .LDWlin148:
000017d0 0610           3946 	mov	r6,r2
000017d2 e29e0a00       3947 	mulhi	10,r2,r19
000017d6 0110           3948 	mov	r1,r2
000017d8 d311           3949 	add	r19,r2
000017da c212           3950 	shl	2,r2

                                                                      Page 69
                                                              C:\Users\TIEZHU~1\AppData\Local\Temp\gh_00006hc1.si
000017dc 330600000000*  3951 	mov	_g_can_hoh_pduid_txtbl,r19
000017e2 02f0           3952 	mov	r2,ep
000017e4 d3f1           3953 	add	r19,ep
000017e6 8203           3954 	sst.b	zero,2[ep]
                        3955 --1336: 			g_can_hoh_pduid_txtbl[ChannelId][txq_buf_idx].PduId = PduId;
000017e8 0610           3956 	mov	r6,r2
000017ea e29e0a00       3957 	mulhi	10,r2,r19
000017ee 0110           3958 	mov	r1,r2
000017f0 d311           3959 	add	r19,r2
000017f2 c212           3960 	shl	2,r2
000017f4 330600000000*  3961 	mov	_g_can_hoh_pduid_txtbl,r19
000017fa 02f0           3962 	mov	r2,ep
000017fc d3f1           3963 	add	r19,ep
000017fe 803c           3964 	sst.h	r7,0[ep]
                        3965 --1337: 			*pTxPointer = txq_buf_idx;
00001800 480f0000       3966 	st.b	r1,0[r8]
                        3967 --1338: 			rtn_value = TRUE;
00001804 019a           3968 	mov	1,r19
                        3969 --1339: 			break;
00001806 d505*          3970 	br	.L1403
                        3971 .L1401:
                        3972 --line1329
                        3973 ..lin.D.3A.5CCANFDGwMcuFirmRH850F1x.5Ccode.5CCANFDGwMcuFirmRH850F1x.5CCANFDGwMcuFirmRH850F1x.5Cprj.5CGHS.20MULTI.5CCAN.20Gateway.5Coutput.5Cobj.5Cpe1.5CCan.149::
                        3974 .LDWlin149:
00001808 410a           3975 	add	1,r1
0000180a 8100           3976 	zxb	r1
0000180c 6a0a           3977 	cmp	10,r1
0000180e b1d5*          3978 	bl	.L1400
                        3979 .L1403:
                        3980 --1340: 		}
                        3981 --1341: 	}
                        3982 --1343: 	return rtn_value;
                        3983 --line1343
                        3984 ..lin.D.3A.5CCANFDGwMcuFirmRH850F1x.5Ccode.5CCANFDGwMcuFirmRH850F1x.5CCANFDGwMcuFirmRH850F1x.5Cprj.5CGHS.20MULTI.5CCAN.20Gateway.5Coutput.5Cobj.5Cpe1.5CCan.150::
                        3985 .LDWlin150:
00001810 1350           3986 	mov	r19,r10
                        3987 --	    .ef
                        3988 .LDW47:
00001812 7f00           3989 	jmp	[lp]
                        3990 	.type	_can_get_txpointer,@function
                        3991 	.size	_can_get_txpointer,.-_can_get_txpointer
                        3992 	.type	_can_get_txpointer..D.3A.5CCANFDGwMcuFirmRH850F1x.5Ccode.5CCANFDGwMcuFirmRH850F1x.5CCANFDGwMcuFirmRH850F1x.5Cprj.5CGHS.20MULTI.5CCAN.20Gateway.5Coutput.5Cobj.5Cpe1.5CCan.,@function
                        3993 	.size	_can_get_txpointer..D.3A.5CCANFDGwMcuFirmRH850F1x.5Ccode.5CCANFDGwMcuFirmRH850F1x.5CCANFDGwMcuFirmRH850F1x.5Cprj.5CGHS.20MULTI.5CCAN.20Gateway.5Coutput.5Cobj.5Cpe1.5CCan.,.-_can_get_txpointer..D.3A.5CCANFDGwMcuFirmRH850F1x.5Ccode.5CCANFDGwMcuFirmRH850F1x.5CCANFDGwMcuFirmRH850F1x.5Cprj.5CGHS.20MULTI.5CCAN.20Gateway.5Coutput.5Cobj.5Cpe1.5CCan.
                        3994 	.align	2
                        3995 .LDW57:
                        3996 --_rtn_value	r19	local
                        3997 --_txq_buf_idx	r1	local
                        3998 
                        3999 --_ChannelId	r6	param
                        4000 --_PduId	r7	param
                        4001 --_pTxPointer	r8	param
                        4002 
                        4003 	.data
                        4004 	.text
                        4005 
                        4006 --1344: } /* End of function can_get_txpointer() */
                        4007 
                        4008 --1346: /***********************************************************************************************************************
                        4009 --1347:  * Function Name: can_get_chn_cfgtbl_index
                        4010 --1348:  * Description  : This function gets controller configuration table index by specified UnitId & Channel Id.
                        4011 --1349:  * Arguments    : UnitId -

                                                                      Page 70
                                                              C:\Users\TIEZHU~1\AppData\Local\Temp\gh_00006hc1.si
                        4012 --1350:  *                    unit Id for CAN channel index.
                        4013 --1351:  *               ChannelId -
                        4014 --1352:  *                   CAN channel Id
                        4015 --1353:  * Return Value : controller configuration table index
                        4016 --1354:  ***********************************************************************************************************************/
                        4017 --1355: static uint8_t can_get_chn_cfgtbl_index(uint8_t UnitId, uint8_t ChannelId)
                        4018 	.align	2
                        4019 	.align	2
                        4020 	.global	_can_get_chn_cfgtbl_index..D.3A.5CCANFDGwMcuFirmRH850F1x.5Ccode.5CCANFDGwMcuFirmRH850F1x.5CCANFDGwMcuFirmRH850F1x.5Cprj.5CGHS.20MULTI.5CCAN.20Gateway.5Coutput.5Cobj.5Cpe1.5CCan.
                        4021 _can_get_chn_cfgtbl_index..D.3A.5CCANFDGwMcuFirmRH850F1x.5Ccode.5CCANFDGwMcuFirmRH850F1x.5CCANFDGwMcuFirmRH850F1x.5Cprj.5CGHS.20MULTI.5CCAN.20Gateway.5Coutput.5Cobj.5Cpe1.5CCan.:
                        4022 _can_get_chn_cfgtbl_index:
00001814 8600           4023 	zxb	r6
00001816 8700           4024 	zxb	r7
                        4025 --	    .bf
                        4026 .LDW67:
                        4027 --1356: {
                        4028 --1357: 	uint8_t ret_value = (uint8_t) 255U;
00001818 2016ff00       4029 	movea	255,zero,r2
                        4030 --1358: 	uint8_t phy_chn_idx;
                        4031 --1359: 	uint8_t cur_chn_cfgtbl_index;
                        4032 --1360: 	const can_controller_cfg_t* p_chn_cfg;
                        4033 --1361: 	uint8_t cfg_unit_id;
                        4034 --1362: 	uint8_t cfg_channel_id;
                        4035 --1364: 	for (phy_chn_idx = (uint8_t) 0U; phy_chn_idx < CAN_NUM_OF_CHN; phy_chn_idx++)
0000181c 000a           4036 	mov	0,r1
                        4037 .L1451:
                        4038 --1365: 	{
                        4039 --1366: 		cur_chn_cfgtbl_index = Can_PbConfig.CanPhysicalIdToSystemIdTable[phy_chn_idx];
0000181e 330600000000*  4040 	mov	_Can_PbConfig,r19
00001824 139e1800       4041 	addi	24,r19,r19
00001828 01f0           4042 	mov	r1,ep
0000182a d3f1           4043 	add	r19,ep
0000182c 6098           4044 	sld.bu	0[ep],r19
                        4045 --1367: 		p_chn_cfg = &Can_PbConfig.CanControllerTable[cur_chn_cfgtbl_index];
0000182e f3962400       4046 	mulhi	36,r19,r18
00001832 2b0600000000*  4047 	mov	_Can_PbConfig+4,r11
00001838 2b8f0100       4048 	ld.w	0[r11],r17
0000183c 12f0           4049 	mov	r18,ep
0000183e d1f1           4050 	add	r17,ep
                        4051 --1368: 		cfg_unit_id = p_chn_cfg->UnitIdx;
00001840 6490           4052 	sld.bu	4[ep],r18
                        4053 --1369: 		cfg_channel_id = p_chn_cfg->ControllerId;
00001842 6588           4054 	sld.bu	5[ep],r17
                        4055 --1370: 		if ((cfg_unit_id == UnitId) && (cfg_channel_id == ChannelId))
00001844 e691           4056 	cmp	r6,r18
00001846 da05*          4057 	bne	.L1452
00001848 e789           4058 	cmp	r7,r17
0000184a ba05*          4059 	bne	.L1452
                        4060 --1371: 		{
                        4061 --1372: 			ret_value = cur_chn_cfgtbl_index;
                        4062 --line1372
                        4063 ..lin.D.3A.5CCANFDGwMcuFirmRH850F1x.5Ccode.5CCANFDGwMcuFirmRH850F1x.5CCANFDGwMcuFirmRH850F1x.5Cprj.5CGHS.20MULTI.5CCAN.20Gateway.5Coutput.5Cobj.5Cpe1.5CCan.151::
                        4064 .LDWlin151:
0000184c 1310           4065 	mov	r19,r2
                        4066 --1373: 			break;
0000184e d505*          4067 	br	.L1455
                        4068 .L1452:
                        4069 --line1364
                        4070 ..lin.D.3A.5CCANFDGwMcuFirmRH850F1x.5Ccode.5CCANFDGwMcuFirmRH850F1x.5CCANFDGwMcuFirmRH850F1x.5Cprj.5CGHS.20MULTI.5CCAN.20Gateway.5Coutput.5Cobj.5Cpe1.5CCan.152::
                        4071 .LDWlin152:
00001850 410a           4072 	add	1,r1

                                                                      Page 71
                                                              C:\Users\TIEZHU~1\AppData\Local\Temp\gh_00006hc1.si
00001852 8100           4073 	zxb	r1
00001854 660a           4074 	cmp	6,r1
00001856 c1e5*          4075 	bl	.L1451
                        4076 .L1455:
                        4077 --1374: 		}
                        4078 --1375: 	}
                        4079 --1377: 	return ret_value;
                        4080 --line1377
                        4081 ..lin.D.3A.5CCANFDGwMcuFirmRH850F1x.5Ccode.5CCANFDGwMcuFirmRH850F1x.5CCANFDGwMcuFirmRH850F1x.5Cprj.5CGHS.20MULTI.5CCAN.20Gateway.5Coutput.5Cobj.5Cpe1.5CCan.153::
                        4082 .LDWlin153:
00001858 0250           4083 	mov	r2,r10
                        4084 --	    .ef
                        4085 .LDW77:
0000185a 7f00           4086 	jmp	[lp]
                        4087 	.type	_can_get_chn_cfgtbl_index,@function
                        4088 	.size	_can_get_chn_cfgtbl_index,.-_can_get_chn_cfgtbl_index
                        4089 	.type	_can_get_chn_cfgtbl_index..D.3A.5CCANFDGwMcuFirmRH850F1x.5Ccode.5CCANFDGwMcuFirmRH850F1x.5CCANFDGwMcuFirmRH850F1x.5Cprj.5CGHS.20MULTI.5CCAN.20Gateway.5Coutput.5Cobj.5Cpe1.5CCan.,@function
                        4090 	.size	_can_get_chn_cfgtbl_index..D.3A.5CCANFDGwMcuFirmRH850F1x.5Ccode.5CCANFDGwMcuFirmRH850F1x.5CCANFDGwMcuFirmRH850F1x.5Cprj.5CGHS.20MULTI.5CCAN.20Gateway.5Coutput.5Cobj.5Cpe1.5CCan.,.-_can_get_chn_cfgtbl_index..D.3A.5CCANFDGwMcuFirmRH850F1x.5Ccode.5CCANFDGwMcuFirmRH850F1x.5CCANFDGwMcuFirmRH850F1x.5Cprj.5CGHS.20MULTI.5CCAN.20Gateway.5Coutput.5Cobj.5Cpe1.5CCan.
                        4091 	.align	2
                        4092 .LDW87:
                        4093 --_ret_value	r2	local
                        4094 --_phy_chn_idx	r1	local
                        4095 --_cur_chn_cfgtbl_index	r19	local
                        4096 --_p_chn_cfg	ep	local
                        4097 --_cfg_unit_id	r18	local
                        4098 --_cfg_channel_id	r17	local
                        4099 
                        4100 --_UnitId	r6	param
                        4101 --_ChannelId	r7	param
                        4102 
                        4103 	.data
                        4104 	.text
                        4105 
                        4106 --1378: } /* End of function can_get_chn_cfgtbl_index() */
                        4107 
                        4108 --1380: /***********************************************************************************************************************
                        4109 --1381:  * Function Name: Can_DisableControllerInterrupts
                        4110 --1382:  * Description  : This function disables all interrupts for this CAN controller.
                        4111 --1383:  * Arguments    : PhyChnIdx -
                        4112 --1384:  *                    specified physical channel index
                        4113 --1385:  * Return Value : none
                        4114 --1386:  ***********************************************************************************************************************/
                        4115 --1387: static void Can_DisableControllerInterrupts(uint8_t PhyChnIdx)
                        4116 --1388: {
                        4117 --1389: 	const can_controller_cfg_t* p_chn_cfg;
                        4118 --1390: 	uint8_t unit_id;
                        4119 --1391: 	uint8_t channel_id;
                        4120 --1392: 	uint8_t cur_chn_cfgtbl_index;
                        4121 --1394: 	/*** Get unit Id & channel Id for specified configuration table ***/
                        4122 --1395: 	cur_chn_cfgtbl_index = Can_PbConfig.CanPhysicalIdToSystemIdTable[PhyChnIdx];
                        4123 --1396: 	p_chn_cfg = &Can_PbConfig.CanControllerTable[cur_chn_cfgtbl_index];
                        4124 --1397: 	unit_id = p_chn_cfg->UnitIdx;
                        4125 --1398: 	channel_id = p_chn_cfg->ControllerId;
                        4126 --1400: 	/*** Disable all channel interrupt ***/
                        4127 --1401: 	can_disable_chn_interrupt(unit_id, channel_id);
                        4128 --1402: 	can_disable_rxfifo_interrupt(unit_id);
                        4129 --1403: 	RSCFD_DisableTHLInterrupt(unit_id, channel_id);
                        4130 --1404: } /* End of function Can_DisableControllerInterrupts() */
                        4131 --1406: /***********************************************************************************************************************
                        4132 --1407:  * Function Name: Can_EnableControllerInterrupts
                        4133 --1408:  * Description  : This function enables all allowed interrupts.

                                                                      Page 72
                                                              C:\Users\TIEZHU~1\AppData\Local\Temp\gh_00006hc1.si
                        4134 --1409:  * Arguments    : PhyChnIdx -
                        4135 --1410:  *                    specified physical channel index
                        4136 --1411:  * Return Value : none
                        4137 --1412:  ***********************************************************************************************************************/
                        4138 --1413: static void Can_EnableControllerInterrupts(uint8_t PhyChnIdx)
                        4139 	.align	2
                        4140 	.align	2
                        4141 	.global	_Can_EnableControllerInterrupts..D.3A.5CCANFDGwMcuFirmRH850F1x.5Ccode.5CCANFDGwMcuFirmRH850F1x.5CCANFDGwMcuFirmRH850F1x.5Cprj.5CGHS.20MULTI.5CCAN.20Gateway.5Coutput.5Cobj.5Cpe1.5CCan.
                        4142 _Can_EnableControllerInterrupts..D.3A.5CCANFDGwMcuFirmRH850F1x.5Ccode.5CCANFDGwMcuFirmRH850F1x.5CCANFDGwMcuFirmRH850F1x.5Cprj.5CGHS.20MULTI.5CCAN.20Gateway.5Coutput.5Cobj.5Cpe1.5CCan.:
                        4143 _Can_EnableControllerInterrupts:
0000185c 541a           4144 	add	-12,sp
0000185e 63ff0900       4145 	st.w	lp,8[sp]
00001862 63e70500       4146 	st.w	r28,4[sp]
00001866 63ef0100       4147 	st.w	r29,0[sp]
0000186a 8600           4148 	zxb	r6
                        4149 --	    .bf
                        4150 .LDW97:
                        4151 --1414: {
                        4152 --1415: 	const can_controller_cfg_t* p_chn_cfg;
                        4153 --1416: 	uint8_t unit_id;
                        4154 --1417: 	uint8_t channel_id;
                        4155 --1418: 	uint8_t cur_chn_cfgtbl_index;
                        4156 --1420: 	/*** Get unit Id & channel Id for specified configuration table ***/
                        4157 --1421: 	cur_chn_cfgtbl_index = Can_PbConfig.CanPhysicalIdToSystemIdTable[PhyChnIdx];
0000186c 210600000000*  4158 	mov	_Can_PbConfig,r1
00001872 010e1800       4159 	addi	24,r1,r1
00001876 06f0           4160 	mov	r6,ep
00001878 c1f1           4161 	add	r1,ep
0000187a 6008           4162 	sld.bu	0[ep],r1
                        4163 --1422: 	p_chn_cfg = &Can_PbConfig.CanControllerTable[cur_chn_cfgtbl_index];
0000187c e10e2400       4164 	mulhi	36,r1,r1
00001880 2b0600000000*  4165 	mov	_Can_PbConfig+4,r11
00001886 2b170100       4166 	ld.w	0[r11],r2
0000188a 01f0           4167 	mov	r1,ep
0000188c c2f1           4168 	add	r2,ep
                        4169 --1423: 	unit_id = p_chn_cfg->UnitIdx;
0000188e 64e8           4170 	sld.bu	4[ep],r29
                        4171 --1424: 	channel_id = p_chn_cfg->ControllerId;
00001890 65e0           4172 	sld.bu	5[ep],r28
                        4173 --1426: 	/*** Enable corresponding interrupt marked by S/W flag ***/
                        4174 --1427: 	can_enable_chn_interrupt(unit_id, channel_id);
00001892 1d30           4175 	mov	r29,r6
00001894 1c38           4176 	mov	r28,r7
                        4177 	jarl	_can_enable_chn_interrupt,lp
                        4177 <EXPANSION BEGIN>
                        4177 jarl22 _can_enable_chn_interrupt , lp 
00001896 bfff40fc*      4177 <EXPANSION END>
                        4178 --1428: 	can_enable_rxfifo_interrupt(unit_id);
                        4179 --line1428
                        4180 ..lin.D.3A.5CCANFDGwMcuFirmRH850F1x.5Ccode.5CCANFDGwMcuFirmRH850F1x.5CCANFDGwMcuFirmRH850F1x.5Cprj.5CGHS.20MULTI.5CCAN.20Gateway.5Coutput.5Cobj.5Cpe1.5CCan.154::
                        4181 .LDWlin154:
0000189a 1d30           4182 	mov	r29,r6
                        4183 	jarl	_can_enable_rxfifo_interrupt,lp
                        4183 <EXPANSION BEGIN>
                        4183 jarl22 _can_enable_rxfifo_interrupt , lp 
0000189c bfff8efc*      4183 <EXPANSION END>
                        4184 --1429: 	RSCFD_EnableTHLInterrupt(unit_id, channel_id);
                        4185 --line1429
                        4186 ..lin.D.3A.5CCANFDGwMcuFirmRH850F1x.5Ccode.5CCANFDGwMcuFirmRH850F1x.5CCANFDGwMcuFirmRH850F1x.5Cprj.5CGHS.20MULTI.5CCAN.20Gateway.5Coutput.5Cobj.5Cpe1.5CCan.155::
                        4187 .LDWlin155:
000018a0 1d30           4188 	mov	r29,r6

                                                                      Page 73
                                                              C:\Users\TIEZHU~1\AppData\Local\Temp\gh_00006hc1.si
000018a2 1c38           4189 	mov	r28,r7
                        4190 	jarl	_RSCFD_EnableTHLInterrupt,lp
                        4190 <EXPANSION BEGIN>
                        4190 jarl22 _RSCFD_EnableTHLInterrupt , lp 
000018a4 80ff0000*      4190 <EXPANSION END>
                        4191 --1430: } /* End of function Can_EnableControllerInterrupts() */
                        4192 --	    .ef
                        4193 .LDW08:
                        4194 --line1430
                        4195 ..lin.D.3A.5CCANFDGwMcuFirmRH850F1x.5Ccode.5CCANFDGwMcuFirmRH850F1x.5CCANFDGwMcuFirmRH850F1x.5Cprj.5CGHS.20MULTI.5CCAN.20Gateway.5Coutput.5Cobj.5Cpe1.5CCan.156::
                        4196 .LDWlin156:
000018a8 23ff0900       4197 	ld.w	8[sp],lp
000018ac 23ef0100       4198 	ld.w	0[sp],r29
000018b0 23e70500       4199 	ld.w	4[sp],r28
000018b4 4c1a           4200 	add	12,sp
000018b6 7f00           4201 	jmp	[lp]
                        4202 	.type	_Can_EnableControllerInterrupts,@function
                        4203 	.size	_Can_EnableControllerInterrupts,.-_Can_EnableControllerInterrupts
                        4204 	.type	_Can_EnableControllerInterrupts..D.3A.5CCANFDGwMcuFirmRH850F1x.5Ccode.5CCANFDGwMcuFirmRH850F1x.5CCANFDGwMcuFirmRH850F1x.5Cprj.5CGHS.20MULTI.5CCAN.20Gateway.5Coutput.5Cobj.5Cpe1.5CCan.,@function
                        4205 	.size	_Can_EnableControllerInterrupts..D.3A.5CCANFDGwMcuFirmRH850F1x.5Ccode.5CCANFDGwMcuFirmRH850F1x.5CCANFDGwMcuFirmRH850F1x.5Cprj.5CGHS.20MULTI.5CCAN.20Gateway.5Coutput.5Cobj.5Cpe1.5CCan.,.-_Can_EnableControllerInterrupts..D.3A.5CCANFDGwMcuFirmRH850F1x.5Ccode.5CCANFDGwMcuFirmRH850F1x.5CCANFDGwMcuFirmRH850F1x.5Cprj.5CGHS.20MULTI.5CCAN.20Gateway.5Coutput.5Cobj.5Cpe1.5CCan.
                        4206 	.align	2
                        4207 .LDW18:
                        4208 --_p_chn_cfg	ep	local
                        4209 --_unit_id	r29	local
                        4210 --_channel_id	r28	local
                        4211 --_cur_chn_cfgtbl_index	r1	local
                        4212 
                        4213 --_PhyChnIdx	r6	param
                        4214 
                        4215 	.data
                        4216 	.text
                        4217 
                        4218 
                        4219 --1432: /***********************************************************************************************************************
                        4220 --1433:  * Function Name: Can_CheckWakeup
                        4221 --1434:  * Description  : This function checks if a wake-up has occurred for the given controller.
                        4222 --1435:  * Arguments    : Controller -
                        4223 --1436:  *                    Controller to be checked for a wake-up
                        4224 --1437:  * Return Value : CAN_OK -
                        4225 --1438:  *                    A wake-up was detected for the given controller.
                        4226 --1439:  *                CAN_NOT_OK -
                        4227 --1440:  *                    No wake-up was detected.
                        4228 --1441:  ***********************************************************************************************************************/
                        4229 --1442: static Can_ReturnType Can_CheckWakeup(uint8_t Controller)
                        4230 --1443: {
                        4231 --1444: 	Can_ReturnType rtn_value = CAN_OK;
                        4232 --1445: 	/* TODO: */
                        4233 --1447: 	return rtn_value;
                        4234 --1448: 	/* MISRA C:2012 Violation - Rule 2.7 */
                        4235 --1449: 	/* Justification - reserved for future used */
                        4236 --1450: } /* End of function Can_CheckWakeup() */
                        4237 --1452: /***********************************************************************************************************************
                        4238 --1453:  * Function Name: can_is_canfd
                        4239 --1454:  * Description  : This function is to check format of frame.
                        4240 --1455:  * Arguments    : frmMsg -
                        4241 --1456:  *                    pointer to frame
                        4242 --1457:  * Return Value : TRUE -
                        4243 --1458:  *                    frame is CAN FD frame.
                        4244 --1459:  *                FALSE -
                        4245 --1460:  *                    frame is CAN frame.
                        4246 --1461:  ***********************************************************************************************************************/

                                                                      Page 74
                                                              C:\Users\TIEZHU~1\AppData\Local\Temp\gh_00006hc1.si
                        4247 --1462: static boolean can_is_canfd(const RSCFD_Frame* frmMsg)
                        4248 	.align	2
                        4249 	.align	2
                        4250 	.global	_can_is_canfd..D.3A.5CCANFDGwMcuFirmRH850F1x.5Ccode.5CCANFDGwMcuFirmRH850F1x.5CCANFDGwMcuFirmRH850F1x.5Cprj.5CGHS.20MULTI.5CCAN.20Gateway.5Coutput.5Cobj.5Cpe1.5CCan.
                        4251 _can_is_canfd..D.3A.5CCANFDGwMcuFirmRH850F1x.5Ccode.5CCANFDGwMcuFirmRH850F1x.5CCANFDGwMcuFirmRH850F1x.5Cprj.5CGHS.20MULTI.5CCAN.20Gateway.5Coutput.5Cobj.5Cpe1.5CCan.:
                        4252 _can_is_canfd:
000018b8 06f0           4253 	mov	r6,ep
                        4254 --	    .bf
                        4255 .LDW28:
                        4256 --1463: {
                        4257 --1464: 	boolean ret = FALSE;
000018ba 000a           4258 	mov	0,r1
                        4259 --1466: 	if ((RSCFD_FRAME_FORMAT_FD_BASE == frmMsg->Format) || (RSCFD_FRAME_FORMAT_FD_EXTENDED == frmMsg->Format))
000018bc 0015           4260 	sld.w	0[ep],r2
000018be 6212           4261 	cmp	2,r2
000018c0 c205*          4262 	be	.L1526
000018c2 0015           4263 	sld.w	0[ep],r2
000018c4 6312           4264 	cmp	3,r2
000018c6 aa05*          4265 	bne	.L1525
                        4266 .L1526:
                        4267 --1467: 	{
                        4268 --1468: 		ret = TRUE;
                        4269 --line1468
                        4270 ..lin.D.3A.5CCANFDGwMcuFirmRH850F1x.5Ccode.5CCANFDGwMcuFirmRH850F1x.5CCANFDGwMcuFirmRH850F1x.5Cprj.5CGHS.20MULTI.5CCAN.20Gateway.5Coutput.5Cobj.5Cpe1.5CCan.157::
                        4271 .LDWlin157:
000018c8 010a           4272 	mov	1,r1
                        4273 .L1525:
                        4274 --1469: 	}
                        4275 --1471: 	return ret;
000018ca 0150           4276 	mov	r1,r10
                        4277 --	    .ef
                        4278 .LDW38:
000018cc 7f00           4279 	jmp	[lp]
                        4280 	.type	_can_is_canfd,@function
                        4281 	.size	_can_is_canfd,.-_can_is_canfd
                        4282 	.type	_can_is_canfd..D.3A.5CCANFDGwMcuFirmRH850F1x.5Ccode.5CCANFDGwMcuFirmRH850F1x.5CCANFDGwMcuFirmRH850F1x.5Cprj.5CGHS.20MULTI.5CCAN.20Gateway.5Coutput.5Cobj.5Cpe1.5CCan.,@function
                        4283 	.size	_can_is_canfd..D.3A.5CCANFDGwMcuFirmRH850F1x.5Ccode.5CCANFDGwMcuFirmRH850F1x.5CCANFDGwMcuFirmRH850F1x.5Cprj.5CGHS.20MULTI.5CCAN.20Gateway.5Coutput.5Cobj.5Cpe1.5CCan.,.-_can_is_canfd..D.3A.5CCANFDGwMcuFirmRH850F1x.5Ccode.5CCANFDGwMcuFirmRH850F1x.5CCANFDGwMcuFirmRH850F1x.5Cprj.5CGHS.20MULTI.5CCAN.20Gateway.5Coutput.5Cobj.5Cpe1.5CCan.
                        4284 	.align	2
                        4285 .LDW48:
                        4286 --_ret	r1	local
                        4287 
                        4288 --_frmMsg	ep	param
                        4289 
                        4290 	.data
                        4291 	.text
                        4292 
                        4293 --1472: }
                        4294 
                        4295 --1474: /***********************************************************************************************************************
                        4296 --1475:  * Function Name: can_select_tx_obj
                        4297 --1476:  * Description  : This function select Tx object.
                        4298 --1477:  * Arguments    : frmMsg -
                        4299 --1478:  *                    pointer to frame.
                        4300 --1479:  * Return Value : CAN_TX_OBJ_TXQ -
                        4301 --1480:  *                    Tx Queue as Tx object.
                        4302 --1481:  *                CAN_TX_OBJ_TXBUF_MERGED -
                        4303 --1482:  *                    Tx Buffer with merge mode as Tx object.
                        4304 --1483:  ***********************************************************************************************************************/
                        4305 --1484: static can_tx_obj_t can_select_tx_obj(const RSCFD_Frame* frmMsg)
                        4306 	.align	2
                        4307 	.align	2

                                                                      Page 75
                                                              C:\Users\TIEZHU~1\AppData\Local\Temp\gh_00006hc1.si
                        4308 	.global	_can_select_tx_obj..D.3A.5CCANFDGwMcuFirmRH850F1x.5Ccode.5CCANFDGwMcuFirmRH850F1x.5CCANFDGwMcuFirmRH850F1x.5Cprj.5CGHS.20MULTI.5CCAN.20Gateway.5Coutput.5Cobj.5Cpe1.5CCan.
                        4309 _can_select_tx_obj..D.3A.5CCANFDGwMcuFirmRH850F1x.5Ccode.5CCANFDGwMcuFirmRH850F1x.5CCANFDGwMcuFirmRH850F1x.5Cprj.5CGHS.20MULTI.5CCAN.20Gateway.5Coutput.5Cobj.5Cpe1.5CCan.:
                        4310 _can_select_tx_obj:
000018ce 5c1a           4311 	add	-4,sp
000018d0 63ff0100       4312 	st.w	lp,0[sp]
000018d4 06f0           4313 	mov	r6,ep
                        4314 --	    .bf
                        4315 .LDW58:
                        4316 --1485: {
                        4317 --1486: 	can_tx_obj_t ret;
                        4318 --1488: 	if ((FD_FRM_DLC_B < frmMsg->DLC) && (TRUE == can_is_canfd(frmMsg)))
000018d6 6c08           4319 	sld.bu	12[ep],r1
000018d8 6b0a           4320 	cmp	11,r1
000018da 830d*          4321 	bnh	.L1572
000018dc 1e30           4322 	mov	ep,r6
                        4323 	jarl	_can_is_canfd,lp
                        4323 <EXPANSION BEGIN>
                        4323 jarl22 _can_is_canfd , lp 
000018de bfffdaff*      4323 <EXPANSION END>
000018e2 6152           4324 	cmp	1,r10
000018e4 ba05*          4325 	bne	.L1572
                        4326 --1489: 	{
                        4327 --1490: 		ret = CAN_TX_OBJ_TXBUF_MERGED;
                        4328 --line1490
                        4329 ..lin.D.3A.5CCANFDGwMcuFirmRH850F1x.5Ccode.5CCANFDGwMcuFirmRH850F1x.5CCANFDGwMcuFirmRH850F1x.5Cprj.5CGHS.20MULTI.5CCAN.20Gateway.5Coutput.5Cobj.5Cpe1.5CCan.158::
                        4330 .LDWlin158:
000018e6 010a           4331 	mov	1,r1
000018e8 a505*          4332 	br	.L1575
                        4333 .L1572:
                        4334 --1491: 	}
                        4335 --1492: 	else
                        4336 --1493: 	{
                        4337 --1494: 		ret = CAN_TX_OBJ_TXQ;
                        4338 --line1494
                        4339 ..lin.D.3A.5CCANFDGwMcuFirmRH850F1x.5Ccode.5CCANFDGwMcuFirmRH850F1x.5CCANFDGwMcuFirmRH850F1x.5Cprj.5CGHS.20MULTI.5CCAN.20Gateway.5Coutput.5Cobj.5Cpe1.5CCan.159::
                        4340 .LDWlin159:
000018ea 000a           4341 	mov	0,r1
                        4342 .L1575:
                        4343 --1495: 	}
                        4344 --1496: 	return ret;
000018ec 0150           4345 	mov	r1,r10
                        4346 --	    .ef
                        4347 .LDW68:
000018ee 23ff0100       4348 	ld.w	0[sp],lp
000018f2 441a           4349 	add	4,sp
000018f4 7f00           4350 	jmp	[lp]
                        4351 	.type	_can_select_tx_obj,@function
                        4352 	.size	_can_select_tx_obj,.-_can_select_tx_obj
                        4353 	.type	_can_select_tx_obj..D.3A.5CCANFDGwMcuFirmRH850F1x.5Ccode.5CCANFDGwMcuFirmRH850F1x.5CCANFDGwMcuFirmRH850F1x.5Cprj.5CGHS.20MULTI.5CCAN.20Gateway.5Coutput.5Cobj.5Cpe1.5CCan.,@function
                        4354 	.size	_can_select_tx_obj..D.3A.5CCANFDGwMcuFirmRH850F1x.5Ccode.5CCANFDGwMcuFirmRH850F1x.5CCANFDGwMcuFirmRH850F1x.5Cprj.5CGHS.20MULTI.5CCAN.20Gateway.5Coutput.5Cobj.5Cpe1.5CCan.,.-_can_select_tx_obj..D.3A.5CCANFDGwMcuFirmRH850F1x.5Ccode.5CCANFDGwMcuFirmRH850F1x.5CCANFDGwMcuFirmRH850F1x.5Cprj.5CGHS.20MULTI.5CCAN.20Gateway.5Coutput.5Cobj.5Cpe1.5CCan.
                        4355 	.align	2
                        4356 .LDW78:
                        4357 --_ret	r1	local
                        4358 
                        4359 --_frmMsg	ep	param
                        4360 
                        4361 	.data
                        4362 	.text
                        4363 
                        4364 --1497: }
                        4365 

                                                                      Page 76
                                                              C:\Users\TIEZHU~1\AppData\Local\Temp\gh_00006hc1.si
                        4366 --1499: /***********************************************************************************************************************
                        4367 --1500:  * Function Name: can_is_txbuf_ongoing
                        4368 --1501:  * Description  : This function check if transmitting for specified Tx buffer.
                        4369 --1502:  * Arguments    : UnitId -
                        4370 --1503:  *                    specified unit index
                        4371 --1504:  *                ChannelId -
                        4372 --1505:  *                    specified channel index
                        4373 --1506:  *                txBufIdx -
                        4374 --1507:  *                    specified Tx buffer index
                        4375 --1508:  * Return Value : CAN_OK -
                        4376 --1509:  *                    no transmission ongoing
                        4377 --1510:  *                CAN_BUSY -
                        4378 --1511:  *                    transmission ongoing
                        4379 --1512:  ***********************************************************************************************************************/
                        4380 --1513: static Can_ReturnType can_is_txbuf_ongoing(uint8_t UnitId, uint8_t ChannelId, uint8_t txBufIdx)
                        4381 	.align	2
                        4382 	.align	2
                        4383 	.global	_can_is_txbuf_ongoing..D.3A.5CCANFDGwMcuFirmRH850F1x.5Ccode.5CCANFDGwMcuFirmRH850F1x.5CCANFDGwMcuFirmRH850F1x.5Cprj.5CGHS.20MULTI.5CCAN.20Gateway.5Coutput.5Cobj.5Cpe1.5CCan.
                        4384 _can_is_txbuf_ongoing..D.3A.5CCANFDGwMcuFirmRH850F1x.5Ccode.5CCANFDGwMcuFirmRH850F1x.5CCANFDGwMcuFirmRH850F1x.5Cprj.5CGHS.20MULTI.5CCAN.20Gateway.5Coutput.5Cobj.5Cpe1.5CCan.:
                        4385 _can_is_txbuf_ongoing:
000018f6 581a           4386 	add	-8,sp
000018f8 63ff0500       4387 	st.w	lp,4[sp]
000018fc 63ef0100       4388 	st.w	r29,0[sp]
00001900 8600           4389 	zxb	r6
00001902 8700           4390 	zxb	r7
00001904 8800           4391 	zxb	r8
                        4392 --	    .bf
                        4393 .LDW88:
                        4394 --1514: {
                        4395 --1515: 	Can_ReturnType ret = CAN_BUSY;
00001906 02ea           4396 	mov	2,r29
                        4397 --1516: 	uint8_t temp_tmtsts;
                        4398 --1518: 	temp_tmtsts = RSCFD_GetTMSTS(UnitId, ChannelId, txBufIdx);
                        4399 	jarl	_RSCFD_GetTMSTS,lp
                        4399 <EXPANSION BEGIN>
                        4399 jarl22 _RSCFD_GetTMSTS , lp 
00001908 80ff0000*      4399 <EXPANSION END>
0000190c 0a08           4400 	mov	r10,r1
                        4401 --1519: 	if (0x01U != (temp_tmtsts & 0x01U))
                        4402 --line1519
                        4403 ..lin.D.3A.5CCANFDGwMcuFirmRH850F1x.5Ccode.5CCANFDGwMcuFirmRH850F1x.5CCANFDGwMcuFirmRH850F1x.5Cprj.5CGHS.20MULTI.5CCAN.20Gateway.5Coutput.5Cobj.5Cpe1.5CCan.160::
                        4404 .LDWlin160:
0000190e c10e0100       4405 	andi	1,r1,r1
00001912 e009           4406 	cmp	zero,r1
00001914 aa05*          4407 	bne	.L1625
                        4408 --1520: 	{
                        4409 --1521: 		ret = CAN_OK;
                        4410 --line1521
                        4411 ..lin.D.3A.5CCANFDGwMcuFirmRH850F1x.5Ccode.5CCANFDGwMcuFirmRH850F1x.5CCANFDGwMcuFirmRH850F1x.5Cprj.5CGHS.20MULTI.5CCAN.20Gateway.5Coutput.5Cobj.5Cpe1.5CCan.161::
                        4412 .LDWlin161:
00001916 00ea           4413 	mov	0,r29
                        4414 .L1625:
                        4415 --1522: 	}
                        4416 --1523: 	return ret;
00001918 1d50           4417 	mov	r29,r10
                        4418 --	    .ef
                        4419 .LDW98:
0000191a 23ff0500       4420 	ld.w	4[sp],lp
0000191e 23ef0100       4421 	ld.w	0[sp],r29
00001922 481a           4422 	add	8,sp
00001924 7f00           4423 	jmp	[lp]

                                                                      Page 77
                                                              C:\Users\TIEZHU~1\AppData\Local\Temp\gh_00006hc1.si
                        4424 	.type	_can_is_txbuf_ongoing,@function
                        4425 	.size	_can_is_txbuf_ongoing,.-_can_is_txbuf_ongoing
                        4426 	.type	_can_is_txbuf_ongoing..D.3A.5CCANFDGwMcuFirmRH850F1x.5Ccode.5CCANFDGwMcuFirmRH850F1x.5CCANFDGwMcuFirmRH850F1x.5Cprj.5CGHS.20MULTI.5CCAN.20Gateway.5Coutput.5Cobj.5Cpe1.5CCan.,@function
                        4427 	.size	_can_is_txbuf_ongoing..D.3A.5CCANFDGwMcuFirmRH850F1x.5Ccode.5CCANFDGwMcuFirmRH850F1x.5CCANFDGwMcuFirmRH850F1x.5Cprj.5CGHS.20MULTI.5CCAN.20Gateway.5Coutput.5Cobj.5Cpe1.5CCan.,.-_can_is_txbuf_ongoing..D.3A.5CCANFDGwMcuFirmRH850F1x.5Ccode.5CCANFDGwMcuFirmRH850F1x.5CCANFDGwMcuFirmRH850F1x.5Cprj.5CGHS.20MULTI.5CCAN.20Gateway.5Coutput.5Cobj.5Cpe1.5CCan.
                        4428 	.align	2
                        4429 .LDW09:
                        4430 --_ret	r29	local
                        4431 --_temp_tmtsts	r1	local
                        4432 
                        4433 --_UnitId	r6	param
                        4434 --_ChannelId	r7	param
                        4435 --_txBufIdx	r8	param
                        4436 
                        4437 	.data
                        4438 	.text
                        4439 
                        4440 --1524: }
                        4441 
                        4442 --1526: /***********************************************************************************************************************
                        4443 --1527:  * Function Name: can_get_frm_format
                        4444 --1528:  * Description  : This function is to get frame id format.
                        4445 --1529:  * Arguments    : frmFormat -
                        4446 --1530:  *                    specified frame format
                        4447 --1531:  * Return Value : frame format
                        4448 --1532:  ***********************************************************************************************************************/
                        4449 --1533: static can_if_pdu_can_id_t can_get_frm_format(RSCFD_FrameFormat frmFormat)
                        4450 	.align	2
                        4451 	.align	2
                        4452 	.global	_can_get_frm_format..D.3A.5CCANFDGwMcuFirmRH850F1x.5Ccode.5CCANFDGwMcuFirmRH850F1x.5CCANFDGwMcuFirmRH850F1x.5Cprj.5CGHS.20MULTI.5CCAN.20Gateway.5Coutput.5Cobj.5Cpe1.5CCan.
                        4453 _can_get_frm_format..D.3A.5CCANFDGwMcuFirmRH850F1x.5Ccode.5CCANFDGwMcuFirmRH850F1x.5CCANFDGwMcuFirmRH850F1x.5Cprj.5CGHS.20MULTI.5CCAN.20Gateway.5Coutput.5Cobj.5Cpe1.5CCan.:
                        4454 _can_get_frm_format:
                        4455 --	    .bf
                        4456 .LDW19:
                        4457 --1534: {
                        4458 --1535: 	can_if_pdu_can_id_t ret = CANIF_CAN_ID_STANDARD;
00001926 000a           4459 	mov	0,r1
                        4460 --1537: 	if (RSCFD_FRAME_FORMAT_CLASSICAL_BASE == frmFormat)
00001928 e031           4461 	cmp	zero,r6
0000192a ba05*          4462 	bne	.L1663
                        4463 --1538: 	{
                        4464 --1539: 		ret = CANIF_CAN_ID_STANDARD;
                        4465 --line1539
                        4466 ..lin.D.3A.5CCANFDGwMcuFirmRH850F1x.5Ccode.5CCANFDGwMcuFirmRH850F1x.5CCANFDGwMcuFirmRH850F1x.5Cprj.5CGHS.20MULTI.5CCAN.20Gateway.5Coutput.5Cobj.5Cpe1.5CCan.162::
                        4467 .LDWlin162:
0000192c 000a           4468 	mov	0,r1
0000192e c50d*          4469 	br	.L1665
                        4470 .L1663:
                        4471 --1540: 	}
                        4472 --1541: 	else if (RSCFD_FRAME_FORMAT_CLASSICAL_EXTENDED == frmFormat)
                        4473 --line1541
                        4474 ..lin.D.3A.5CCANFDGwMcuFirmRH850F1x.5Ccode.5CCANFDGwMcuFirmRH850F1x.5CCANFDGwMcuFirmRH850F1x.5Cprj.5CGHS.20MULTI.5CCAN.20Gateway.5Coutput.5Cobj.5Cpe1.5CCan.163::
                        4475 .LDWlin163:
00001930 6132           4476 	cmp	1,r6
00001932 ba05*          4477 	bne	.L1666
                        4478 --1542: 	{
                        4479 --1543: 		ret = CANIF_CAN_ID_EXTENDED;
                        4480 --line1543
                        4481 ..lin.D.3A.5CCANFDGwMcuFirmRH850F1x.5Ccode.5CCANFDGwMcuFirmRH850F1x.5CCANFDGwMcuFirmRH850F1x.5Cprj.5CGHS.20MULTI.5CCAN.20Gateway.5Coutput.5Cobj.5Cpe1.5CCan.164::
                        4482 .LDWlin164:
00001934 020a           4483 	mov	2,r1
00001936 850d*          4484 	br	.L1665

                                                                      Page 78
                                                              C:\Users\TIEZHU~1\AppData\Local\Temp\gh_00006hc1.si
                        4485 .L1666:
                        4486 --1545: 	}
                        4487 --1546: 	else if (RSCFD_FRAME_FORMAT_FD_BASE == frmFormat)
                        4488 --line1546
                        4489 ..lin.D.3A.5CCANFDGwMcuFirmRH850F1x.5Ccode.5CCANFDGwMcuFirmRH850F1x.5CCANFDGwMcuFirmRH850F1x.5Cprj.5CGHS.20MULTI.5CCAN.20Gateway.5Coutput.5Cobj.5Cpe1.5CCan.165::
                        4490 .LDWlin165:
00001938 6232           4491 	cmp	2,r6
0000193a ba05*          4492 	bne	.L1669
                        4493 --1547: 	{
                        4494 --1548: 		ret = CANIF_CAN_ID_STANDARD_FD;
                        4495 --line1548
                        4496 ..lin.D.3A.5CCANFDGwMcuFirmRH850F1x.5Ccode.5CCANFDGwMcuFirmRH850F1x.5CCANFDGwMcuFirmRH850F1x.5Cprj.5CGHS.20MULTI.5CCAN.20Gateway.5Coutput.5Cobj.5Cpe1.5CCan.166::
                        4497 .LDWlin166:
0000193c 010a           4498 	mov	1,r1
0000193e c505*          4499 	br	.L1665
                        4500 .L1669:
                        4501 --1550: 	}
                        4502 --1551: 	else if (RSCFD_FRAME_FORMAT_FD_EXTENDED == frmFormat)
                        4503 --line1551
                        4504 ..lin.D.3A.5CCANFDGwMcuFirmRH850F1x.5Ccode.5CCANFDGwMcuFirmRH850F1x.5CCANFDGwMcuFirmRH850F1x.5Cprj.5CGHS.20MULTI.5CCAN.20Gateway.5Coutput.5Cobj.5Cpe1.5CCan.167::
                        4505 .LDWlin167:
00001940 6332           4506 	cmp	3,r6
00001942 aa05*          4507 	bne	.L1665
                        4508 --1552: 	{
                        4509 --1553: 		ret = CANIF_CAN_ID_EXTENDED_FD;
                        4510 --line1553
                        4511 ..lin.D.3A.5CCANFDGwMcuFirmRH850F1x.5Ccode.5CCANFDGwMcuFirmRH850F1x.5CCANFDGwMcuFirmRH850F1x.5Cprj.5CGHS.20MULTI.5CCAN.20Gateway.5Coutput.5Cobj.5Cpe1.5CCan.168::
                        4512 .LDWlin168:
00001944 030a           4513 	mov	3,r1
                        4514 .L1665:
                        4515 --1554: 	}
                        4516 --1555: 	else
                        4517 --1556: 	{
                        4518 --1557: 		/* ignore */
                        4519 --1558: 	}
                        4520 --1560: 	return ret;
00001946 0150           4521 	mov	r1,r10
                        4522 --	    .ef
                        4523 .LDW29:
00001948 7f00           4524 	jmp	[lp]
                        4525 	.type	_can_get_frm_format,@function
                        4526 	.size	_can_get_frm_format,.-_can_get_frm_format
                        4527 	.type	_can_get_frm_format..D.3A.5CCANFDGwMcuFirmRH850F1x.5Ccode.5CCANFDGwMcuFirmRH850F1x.5CCANFDGwMcuFirmRH850F1x.5Cprj.5CGHS.20MULTI.5CCAN.20Gateway.5Coutput.5Cobj.5Cpe1.5CCan.,@function
                        4528 	.size	_can_get_frm_format..D.3A.5CCANFDGwMcuFirmRH850F1x.5Ccode.5CCANFDGwMcuFirmRH850F1x.5CCANFDGwMcuFirmRH850F1x.5Cprj.5CGHS.20MULTI.5CCAN.20Gateway.5Coutput.5Cobj.5Cpe1.5CCan.,.-_can_get_frm_format..D.3A.5CCANFDGwMcuFirmRH850F1x.5Ccode.5CCANFDGwMcuFirmRH850F1x.5CCANFDGwMcuFirmRH850F1x.5Cprj.5CGHS.20MULTI.5CCAN.20Gateway.5Coutput.5Cobj.5Cpe1.5CCan.
                        4529 	.align	2
                        4530 .LDW39:
                        4531 --_ret	r1	local
                        4532 
                        4533 --_frmFormat	r6	param
                        4534 
                        4535 	.data
                        4536 	.text
                        4537 
                        4538 --1561: }
                        4539 
                        4540 --1563: /***********************************************************************************************************************
                        4541 --1564:  Exported global variables and functions (to be accessed by other files)
                        4542 --1565:  **********************************************************************************************************************/
                        4543 --1566: /***********************************************************************************************************************
                        4544 --1567:  * Function Name: Can_Init
                        4545 --1568:  * Description  : This function initializes the CAN module.

                                                                      Page 79
                                                              C:\Users\TIEZHU~1\AppData\Local\Temp\gh_00006hc1.si
                        4546 --1569:  * Arguments    : ConfigPtr -
                        4547 --1570:  *                    Pointer to CAN driver configuration
                        4548 --1571:  * Return Value : none
                        4549 --1572:  ***********************************************************************************************************************/
                        4550 --1573: void Can_Init(const Can_UnitCfgType* Config)
                        4551 	.align	2
                        4552 	.align	2
                        4553 	.global	_Can_Init
                        4554 _Can_Init:
0000194a 541a           4555 	add	-12,sp
0000194c 63ff0900       4556 	st.w	lp,8[sp]
00001950 63e70500       4557 	st.w	r28,4[sp]
00001954 63ef0100       4558 	st.w	r29,0[sp]
00001958 06e0           4559 	mov	r6,r28
                        4560 --	    .bf
                        4561 .LDW49:
                        4562 --1574: {
                        4563 --1575: 	uint8_t phy_chn_idx;
                        4564 --1576: 	uint8_t txq_buf_idx;
                        4565 --1577: 	uint8_t cur_chn_cfgtbl_index;
                        4566 --1579: 	/* check validity of parameters */
                        4567 --1580: 	if (NULL_PTR == Config)
0000195a e0e1           4568 	cmp	zero,r28
0000195c fa05*          4569 	bne	.L1741
                        4570 --1581: 	{
                        4571 --1582: 		User_ReportError((uint16_t) CAN_DRV_MODULE_ID, (uint8_t) 0U, (uint8_t) CanServiceId_Init,
                        4572 --line1582
                        4573 ..lin.D.3A.5CCANFDGwMcuFirmRH850F1x.5Ccode.5CCANFDGwMcuFirmRH850F1x.5CCANFDGwMcuFirmRH850F1x.5Cprj.5CGHS.20MULTI.5CCAN.20Gateway.5Coutput.5Cobj.5Cpe1.5CCan.169::
                        4574 .LDWlin169:
0000195e 0032           4575 	mov	0,r6
00001960 003a           4576 	mov	0,r7
00001962 0042           4577 	mov	0,r8
00001964 014a           4578 	mov	1,r9
                        4579 	jarl	_User_ReportError,lp
                        4579 <EXPANSION BEGIN>
                        4579 jarl22 _User_ReportError , lp 
00001966 80ff0000*      4579 <EXPANSION END>
                        4580 .L1741:
                        4581 --1583: 		                 (uint8_t) CAN_E_PARAM_POINTER);
                        4582 --1584: 	}
                        4583 --1585: 	/* check validity of can mode */
                        4584 --1586: 	for (phy_chn_idx = (uint8_t) 0U; phy_chn_idx < CAN_NUM_OF_CHN; phy_chn_idx++)
                        4585 --line1586
                        4586 ..lin.D.3A.5CCANFDGwMcuFirmRH850F1x.5Ccode.5CCANFDGwMcuFirmRH850F1x.5CCANFDGwMcuFirmRH850F1x.5Cprj.5CGHS.20MULTI.5CCAN.20Gateway.5Coutput.5Cobj.5Cpe1.5CCan.170::
                        4587 .LDWlin170:
0000196a 00ea           4588 	mov	0,r29
                        4589 .L1745:
                        4590 --1587: 	{
                        4591 --1588: 		if (CANIF_CS_UNINIT != can_if_can_mode[phy_chn_idx])
0000196c 1d08           4592 	mov	r29,r1
0000196e c20a           4593 	shl	2,r1
00001970 220600000000*  4594 	mov	_can_if_can_mode,r2
00001976 01f0           4595 	mov	r1,ep
00001978 c2f1           4596 	add	r2,ep
0000197a 000d           4597 	sld.w	0[ep],r1
0000197c e009           4598 	cmp	zero,r1
0000197e f205*          4599 	be	.L1746
                        4600 --1589: 		{
                        4601 --1590: 			User_ReportError((uint16_t) CAN_DRV_MODULE_ID, (uint8_t) 0U, (uint8_t) CanServiceId_Init,
                        4602 --line1590
                        4603 ..lin.D.3A.5CCANFDGwMcuFirmRH850F1x.5Ccode.5CCANFDGwMcuFirmRH850F1x.5CCANFDGwMcuFirmRH850F1x.5Cprj.5CGHS.20MULTI.5CCAN.20Gateway.5Coutput.5Cobj.5Cpe1.5CCan.171::

                                                                      Page 80
                                                              C:\Users\TIEZHU~1\AppData\Local\Temp\gh_00006hc1.si
                        4604 .LDWlin171:
00001980 0032           4605 	mov	0,r6
00001982 003a           4606 	mov	0,r7
00001984 0042           4607 	mov	0,r8
00001986 064a           4608 	mov	6,r9
                        4609 	jarl	_User_ReportError,lp
                        4609 <EXPANSION BEGIN>
                        4609 jarl22 _User_ReportError , lp 
00001988 80ff0000*      4609 <EXPANSION END>
                        4610 .L1746:
                        4611 --line1586
                        4612 ..lin.D.3A.5CCANFDGwMcuFirmRH850F1x.5Ccode.5CCANFDGwMcuFirmRH850F1x.5CCANFDGwMcuFirmRH850F1x.5Cprj.5CGHS.20MULTI.5CCAN.20Gateway.5Coutput.5Cobj.5Cpe1.5CCan.172::
                        4613 .LDWlin172:
0000198c 41ea           4614 	add	1,r29
0000198e 9d00           4615 	zxb	r29
00001990 66ea           4616 	cmp	6,r29
00001992 d1ed*          4617 	bl	.L1745
                        4618 --1591: 			                 (uint8_t) CAN_E_TRANSITION);
                        4619 --1592: 		}
                        4620 --1593: 	}
                        4621 --1595: 	/* ---- 1 Initialize  global ---- */
                        4622 --1596: 	can_init_global(Config);
                        4623 --line1596
                        4624 ..lin.D.3A.5CCANFDGwMcuFirmRH850F1x.5Ccode.5CCANFDGwMcuFirmRH850F1x.5CCANFDGwMcuFirmRH850F1x.5Cprj.5CGHS.20MULTI.5CCAN.20Gateway.5Coutput.5Cobj.5Cpe1.5CCan.173::
                        4625 .LDWlin173:
00001994 1c30           4626 	mov	r28,r6
                        4627 	jarl	_can_init_global,lp
                        4627 <EXPANSION BEGIN>
                        4627 jarl22 _can_init_global , lp 
00001996 bfff80f5*      4627 <EXPANSION END>
                        4628 --1597: 	/* ---- 2 Initialize  channel ---- */
                        4629 --1598: 	for (phy_chn_idx = (uint8_t) 0U; phy_chn_idx < CAN_NUM_OF_CHN; phy_chn_idx++)
                        4630 --line1598
                        4631 ..lin.D.3A.5CCANFDGwMcuFirmRH850F1x.5Ccode.5CCANFDGwMcuFirmRH850F1x.5CCANFDGwMcuFirmRH850F1x.5Cprj.5CGHS.20MULTI.5CCAN.20Gateway.5Coutput.5Cobj.5Cpe1.5CCan.174::
                        4632 .LDWlin174:
0000199a 00ea           4633 	mov	0,r29
                        4634 .L1750:
                        4635 --1599: 	{
                        4636 --1600: 		if (CAN_PHYCH_NOT_USED_FLAG != Config->CanPhysicalIdToSystemIdTable[phy_chn_idx])
0000199c 1c0e1800       4637 	addi	24,r28,r1
000019a0 1df0           4638 	mov	r29,ep
000019a2 c1f1           4639 	add	r1,ep
000019a4 6008           4640 	sld.bu	0[ep],r1
000019a6 010601ff       4641 	addi	-255,r1,zero
000019aa f20d*          4642 	be	.L1751
                        4643 --1601: 		{
                        4644 --1602: 			cur_chn_cfgtbl_index = Config->CanPhysicalIdToSystemIdTable[phy_chn_idx];
                        4645 --line1602
                        4646 ..lin.D.3A.5CCANFDGwMcuFirmRH850F1x.5Ccode.5CCANFDGwMcuFirmRH850F1x.5CCANFDGwMcuFirmRH850F1x.5Cprj.5CGHS.20MULTI.5CCAN.20Gateway.5Coutput.5Cobj.5Cpe1.5CCan.175::
                        4647 .LDWlin175:
000019ac 1c0e1800       4648 	addi	24,r28,r1
000019b0 1df0           4649 	mov	r29,ep
000019b2 c1f1           4650 	add	r1,ep
000019b4 6008           4651 	sld.bu	0[ep],r1
                        4652 --1603: 			can_init_channel(phy_chn_idx, &Config->CanControllerTable[cur_chn_cfgtbl_index]);
000019b6 1d30           4653 	mov	r29,r6
000019b8 e10e2400       4654 	mulhi	36,r1,r1
000019bc 3c170500       4655 	ld.w	4[r28],r2
000019c0 c209           4656 	add	r2,r1
000019c2 0138           4657 	mov	r1,r7
                        4658 	jarl	_can_init_channel,lp

                                                                      Page 81
                                                              C:\Users\TIEZHU~1\AppData\Local\Temp\gh_00006hc1.si
                        4658 <EXPANSION BEGIN>
                        4658 jarl22 _can_init_channel , lp 
000019c4 bfffb6f8*      4658 <EXPANSION END>
                        4659 .L1751:
                        4660 --1604: 		}
                        4661 --1606: 		/* ---- 3 Initialize local variable. ---- */
                        4662 --1607: 		for (txq_buf_idx = (uint8_t) 0U; txq_buf_idx < CAN_DEPTH_OF_TXQ; txq_buf_idx++)
                        4663 --line1607
                        4664 ..lin.D.3A.5CCANFDGwMcuFirmRH850F1x.5Ccode.5CCANFDGwMcuFirmRH850F1x.5CCANFDGwMcuFirmRH850F1x.5Cprj.5CGHS.20MULTI.5CCAN.20Gateway.5Coutput.5Cobj.5Cpe1.5CCan.176::
                        4665 .LDWlin176:
000019c8 000a           4666 	mov	0,r1
                        4667 .L1755:
                        4668 --1608: 		{
                        4669 --1609: 			g_can_hoh_pduid_txtbl[phy_chn_idx][txq_buf_idx].PduId = (PduIdType) 0U;
000019ca 1d10           4670 	mov	r29,r2
000019cc e29e0a00       4671 	mulhi	10,r2,r19
000019d0 0110           4672 	mov	r1,r2
000019d2 d311           4673 	add	r19,r2
000019d4 c212           4674 	shl	2,r2
000019d6 330600000000*  4675 	mov	_g_can_hoh_pduid_txtbl,r19
000019dc 02f0           4676 	mov	r2,ep
000019de d3f1           4677 	add	r19,ep
000019e0 8004           4678 	sst.h	zero,0[ep]
                        4679 --1610: 			g_can_hoh_pduid_txtbl[phy_chn_idx][txq_buf_idx].IsFree = TRUE;
000019e2 1d10           4680 	mov	r29,r2
000019e4 e29e0a00       4681 	mulhi	10,r2,r19
000019e8 0110           4682 	mov	r1,r2
000019ea d311           4683 	add	r19,r2
000019ec c212           4684 	shl	2,r2
000019ee 330600000000*  4685 	mov	_g_can_hoh_pduid_txtbl,r19
000019f4 02f0           4686 	mov	r2,ep
000019f6 d3f1           4687 	add	r19,ep
000019f8 0112           4688 	mov	1,r2
000019fa 8213           4689 	sst.b	r2,2[ep]
000019fc 410a           4690 	add	1,r1
000019fe 8100           4691 	zxb	r1
00001a00 6a0a           4692 	cmp	10,r1
00001a02 c1e5*          4693 	bl	.L1755
                        4694 --1611: 		}
                        4695 --1612: 		g_can_hoh_pduid_txbuf_tbl[phy_chn_idx] = (PduIdType) 0U;
                        4696 --line1612
                        4697 ..lin.D.3A.5CCANFDGwMcuFirmRH850F1x.5Ccode.5CCANFDGwMcuFirmRH850F1x.5CCANFDGwMcuFirmRH850F1x.5Cprj.5CGHS.20MULTI.5CCAN.20Gateway.5Coutput.5Cobj.5Cpe1.5CCan.177::
                        4698 .LDWlin177:
00001a04 1d08           4699 	mov	r29,r1
00001a06 c10a           4700 	shl	1,r1
00001a08 220600000000*  4701 	mov	_g_can_hoh_pduid_txbuf_tbl,r2
00001a0e 01f0           4702 	mov	r1,ep
00001a10 c2f1           4703 	add	r2,ep
00001a12 8004           4704 	sst.h	zero,0[ep]
                        4705 --1614: #ifdef INTERRUPT_MODE
                        4706 --1615: 		/*** Enable channel interrupt ***/
                        4707 --1616: 		Can_EnableControllerInterrupts(phy_chn_idx);
00001a14 1d30           4708 	mov	r29,r6
                        4709 	jarl	_Can_EnableControllerInterrupts,lp
                        4709 <EXPANSION BEGIN>
                        4709 jarl22 _Can_EnableControllerInterrupts , lp 
00001a16 bfff46fe*      4709 <EXPANSION END>
                        4710 --line1598
                        4711 ..lin.D.3A.5CCANFDGwMcuFirmRH850F1x.5Ccode.5CCANFDGwMcuFirmRH850F1x.5CCANFDGwMcuFirmRH850F1x.5Cprj.5CGHS.20MULTI.5CCAN.20Gateway.5Coutput.5Cobj.5Cpe1.5CCan.178::
                        4712 .LDWlin178:
00001a1a 41ea           4713 	add	1,r29

                                                                      Page 82
                                                              C:\Users\TIEZHU~1\AppData\Local\Temp\gh_00006hc1.si
00001a1c 9d00           4714 	zxb	r29
00001a1e 66ea           4715 	cmp	6,r29
00001a20 e1bd*          4716 	bl	.L1750
                        4717 --1617: #else
                        4718 --1618: 		Can_DisableControllerInterrupts(phy_chn_idx);
                        4719 --1619: #endif
                        4720 --1620: 	}
                        4721 --1621: #ifdef INTERRUPT_MODE
                        4722 --1622: 	/* ---- 4 Initialize  interrupt ---- */
                        4723 --1623: 	can_set_interrupt();
                        4724 --line1623
                        4725 ..lin.D.3A.5CCANFDGwMcuFirmRH850F1x.5Ccode.5CCANFDGwMcuFirmRH850F1x.5CCANFDGwMcuFirmRH850F1x.5Cprj.5CGHS.20MULTI.5CCAN.20Gateway.5Coutput.5Cobj.5Cpe1.5CCan.179::
                        4726 .LDWlin179:
                        4727 	jarl	_can_set_interrupt,lp
                        4727 <EXPANSION BEGIN>
                        4727 jarl22 _can_set_interrupt , lp 
00001a22 bfff44f9*      4727 <EXPANSION END>
                        4728 --1624: #endif
                        4729 --1626: 	/* ---- 5 Switch to global communication mode ---- */
                        4730 --1627: 	RSCFD_SwitchGlobalMode(RSCFD_MODE_OPERATION);
                        4731 --line1627
                        4732 ..lin.D.3A.5CCANFDGwMcuFirmRH850F1x.5Ccode.5CCANFDGwMcuFirmRH850F1x.5CCANFDGwMcuFirmRH850F1x.5Cprj.5CGHS.20MULTI.5CCAN.20Gateway.5Coutput.5Cobj.5Cpe1.5CCan.180::
                        4733 .LDWlin180:
00001a26 0232           4734 	mov	2,r6
                        4735 	jarl	_RSCFD_SwitchGlobalMode,lp
                        4735 <EXPANSION BEGIN>
                        4735 jarl22 _RSCFD_SwitchGlobalMode , lp 
00001a28 80ff0000*      4735 <EXPANSION END>
                        4736 --1629: } /* End of function Can_Init() */
                        4737 --	    .ef
                        4738 .LDW59:
                        4739 --line1629
                        4740 ..lin.D.3A.5CCANFDGwMcuFirmRH850F1x.5Ccode.5CCANFDGwMcuFirmRH850F1x.5CCANFDGwMcuFirmRH850F1x.5Cprj.5CGHS.20MULTI.5CCAN.20Gateway.5Coutput.5Cobj.5Cpe1.5CCan.181::
                        4741 .LDWlin181:
00001a2c 23ff0900       4742 	ld.w	8[sp],lp
00001a30 23ef0100       4743 	ld.w	0[sp],r29
00001a34 23e70500       4744 	ld.w	4[sp],r28
00001a38 4c1a           4745 	add	12,sp
00001a3a 7f00           4746 	jmp	[lp]
                        4747 	.type	_Can_Init,@function
                        4748 	.size	_Can_Init,.-_Can_Init
                        4749 	.align	2
                        4750 .LDW69:
                        4751 --_phy_chn_idx	r29	local
                        4752 --_txq_buf_idx	r1	local
                        4753 --_cur_chn_cfgtbl_index	r1	local
                        4754 
                        4755 --_Config	r28	param
                        4756 
                        4757 	.data
                        4758 	.text
                        4759 
                        4760 
                        4761 --1631: /***********************************************************************************************************************
                        4762 --1632:  * Function Name: Can_SetControllerMode
                        4763 --1633:  * Description  : This function performs software triggered state transitions of the CAN controller state machine.
                        4764 --1634:  * Arguments    : Controller -
                        4765 --1635:  *                    Controller for which status shall be changed
                        4766 --1636:  *                Transition -
                        4767 --1637:  *                    Transition to new CAN controller state
                        4768 --1638:  * Return Value : CAN_OK -

                                                                      Page 83
                                                              C:\Users\TIEZHU~1\AppData\Local\Temp\gh_00006hc1.si
                        4769 --1639:  *                    request accepted
                        4770 --1640:  *                CAN_NOT_OK -
                        4771 --1641:  *                    request not accepted
                        4772 --1642:  ***********************************************************************************************************************/
                        4773 --1643: Can_ReturnType Can_SetControllerMode(uint8 Controller, Can_StateTransitionType Transition)
                        4774 	.align	2
                        4775 	.align	2
                        4776 	.global	_Can_SetControllerMode
                        4777 _Can_SetControllerMode:
00001a3c 031ee8ff       4778 	addi	-24,sp,sp
00001a40 63ff1500       4779 	st.w	lp,20[sp]
00001a44 63cf1100       4780 	st.w	r25,16[sp]
00001a48 63d70d00       4781 	st.w	r26,12[sp]
00001a4c 63df0900       4782 	st.w	r27,8[sp]
00001a50 63e70500       4783 	st.w	r28,4[sp]
00001a54 63ef0100       4784 	st.w	r29,0[sp]
00001a58 c6deff00       4785 	andi	255,r6,r27
                        4786 --	    .bf
                        4787 .LDW79:
                        4788 --1644: {
                        4789 --1645: 	Can_ReturnType rtn_value = CAN_OK;
00001a5c 00ca           4790 	mov	0,r25
                        4791 --1646: 	const can_controller_cfg_t* p_can_cfg;
                        4792 --1647: 	uint8_t unit_id;
                        4793 --1648: 	uint8_t channel_id;
                        4794 --1649: 	uint8_t rxfifo_idx;
                        4795 --1650: 	const can_rx_fifo_cfg_t* p_can_rxfifo_cfgtbl;
                        4796 --1651: 	uint8_t phy_id;
                        4797 --1653: 	/*** Get unit Id & channel Id for specified configuration table ***/
                        4798 --1654: 	phy_id = Can_PbConfig.CanPhysicalIdToSystemIdTable[Controller];
00001a5e 210600000000*  4799 	mov	_Can_PbConfig,r1
00001a64 010e1800       4800 	addi	24,r1,r1
00001a68 1bf0           4801 	mov	r27,ep
00001a6a c1f1           4802 	add	r1,ep
00001a6c 6008           4803 	sld.bu	0[ep],r1
                        4804 --1655: 	p_can_cfg = &Can_PbConfig.CanControllerTable[phy_id];
00001a6e e10e2400       4805 	mulhi	36,r1,r1
00001a72 2b0600000000*  4806 	mov	_Can_PbConfig+4,r11
00001a78 2b170100       4807 	ld.w	0[r11],r2
00001a7c 01d0           4808 	mov	r1,r26
00001a7e c2d1           4809 	add	r2,r26
                        4810 --1656: 	unit_id = p_can_cfg->UnitIdx;
00001a80 9aef0500       4811 	ld.bu	4[r26],r29
                        4812 --1657: 	channel_id = p_can_cfg->ControllerId;
00001a84 bae70500       4813 	ld.bu	5[r26],r28
                        4814 --1659: 	switch (Transition)
00001a88 0708           4815 	mov	r7,r1
00001a8a 610a           4816 	cmp	1,r1
00001a8c e105*          4817 	bl	.L1843
00001a8e b245*          4818 	be	.L1848
00001a90 630a           4819 	cmp	3,r1
00001a92 b14d*          4820 	bl	.L1849
00001a94 925d*          4821 	be	.L1850
00001a96 f565*          4822 	br	.L1851
                        4823 .L1843:
                        4824 --1660: 	{
                        4825 --1661: 		/* ---- STOPPED -> STARTED ---- */
                        4826 --1662: 		case CAN_T_START:
                        4827 --1663: 			/* ---- 5 Switch to global communication mode ---- */
                        4828 --1664: 			RSCFD_SwitchGlobalMode(RSCFD_MODE_OPERATION);
                        4829 --line1664

                                                                      Page 84
                                                              C:\Users\TIEZHU~1\AppData\Local\Temp\gh_00006hc1.si
                        4830 ..lin.D.3A.5CCANFDGwMcuFirmRH850F1x.5Ccode.5CCANFDGwMcuFirmRH850F1x.5CCANFDGwMcuFirmRH850F1x.5Cprj.5CGHS.20MULTI.5CCAN.20Gateway.5Coutput.5Cobj.5Cpe1.5CCan.182::
                        4831 .LDWlin182:
00001a98 0232           4832 	mov	2,r6
                        4833 	jarl	_RSCFD_SwitchGlobalMode,lp
                        4833 <EXPANSION BEGIN>
                        4833 jarl22 _RSCFD_SwitchGlobalMode , lp 
00001a9a 80ff0000*      4833 <EXPANSION END>
                        4834 --1665: 			can_init_channel(Controller, p_can_cfg);
                        4835 --line1665
                        4836 ..lin.D.3A.5CCANFDGwMcuFirmRH850F1x.5Ccode.5CCANFDGwMcuFirmRH850F1x.5CCANFDGwMcuFirmRH850F1x.5Cprj.5CGHS.20MULTI.5CCAN.20Gateway.5Coutput.5Cobj.5Cpe1.5CCan.183::
                        4837 .LDWlin183:
00001a9e 1b30           4838 	mov	r27,r6
00001aa0 1a38           4839 	mov	r26,r7
                        4840 	jarl	_can_init_channel,lp
                        4840 <EXPANSION BEGIN>
                        4840 jarl22 _can_init_channel , lp 
00001aa2 bfffd8f7*      4840 <EXPANSION END>
                        4841 --1666: 			/*** Switch to communication mode ***/
                        4842 --1667: 			RSCFD_SwitchChannelMode(unit_id, channel_id, RSCFD_MODE_OPERATION);
                        4843 --line1667
                        4844 ..lin.D.3A.5CCANFDGwMcuFirmRH850F1x.5Ccode.5CCANFDGwMcuFirmRH850F1x.5CCANFDGwMcuFirmRH850F1x.5Cprj.5CGHS.20MULTI.5CCAN.20Gateway.5Coutput.5Cobj.5Cpe1.5CCan.184::
                        4845 .LDWlin184:
00001aa6 1d30           4846 	mov	r29,r6
00001aa8 1c38           4847 	mov	r28,r7
00001aaa 0242           4848 	mov	2,r8
                        4849 	jarl	_RSCFD_SwitchChannelMode,lp
                        4849 <EXPANSION BEGIN>
                        4849 jarl22 _RSCFD_SwitchChannelMode , lp 
00001aac 80ff0000*      4849 <EXPANSION END>
                        4850 --1668: 			CanIf_ControllerModeIndication(Controller, CANIF_CS_STARTED);
                        4851 --line1668
                        4852 ..lin.D.3A.5CCANFDGwMcuFirmRH850F1x.5Ccode.5CCANFDGwMcuFirmRH850F1x.5CCANFDGwMcuFirmRH850F1x.5Cprj.5CGHS.20MULTI.5CCAN.20Gateway.5Coutput.5Cobj.5Cpe1.5CCan.185::
                        4853 .LDWlin185:
00001ab0 1b30           4854 	mov	r27,r6
00001ab2 023a           4855 	mov	2,r7
                        4856 	jarl	_CanIf_ControllerModeIndication,lp
                        4856 <EXPANSION BEGIN>
                        4856 jarl22 _CanIf_ControllerModeIndication , lp 
00001ab4 80ff0000*      4856 <EXPANSION END>
                        4857 --1670: 			/* Enable Tx & Rx Resources */
                        4858 --1671: 			RSCFD_EnableTxQ(unit_id, channel_id, RSCFD_TRUE);
                        4859 --line1671
                        4860 ..lin.D.3A.5CCANFDGwMcuFirmRH850F1x.5Ccode.5CCANFDGwMcuFirmRH850F1x.5CCANFDGwMcuFirmRH850F1x.5Cprj.5CGHS.20MULTI.5CCAN.20Gateway.5Coutput.5Cobj.5Cpe1.5CCan.186::
                        4861 .LDWlin186:
00001ab8 1d30           4862 	mov	r29,r6
00001aba 1c38           4863 	mov	r28,r7
00001abc 0142           4864 	mov	1,r8
                        4865 	jarl	_RSCFD_EnableTxQ,lp
                        4865 <EXPANSION BEGIN>
                        4865 jarl22 _RSCFD_EnableTxQ , lp 
00001abe 80ff0000*      4865 <EXPANSION END>
                        4866 --1672: 			RSCFD_EnableCFIFO(unit_id, channel_id,
                        4867 --line1672
                        4868 ..lin.D.3A.5CCANFDGwMcuFirmRH850F1x.5Ccode.5CCANFDGwMcuFirmRH850F1x.5CCANFDGwMcuFirmRH850F1x.5Cprj.5CGHS.20MULTI.5CCAN.20Gateway.5Coutput.5Cobj.5Cpe1.5CCan.187::
                        4869 .LDWlin187:
00001ac2 1d30           4870 	mov	r29,r6
00001ac4 1c38           4871 	mov	r28,r7
00001ac6 0042           4872 	mov	0,r8
00001ac8 014a           4873 	mov	1,r9
                        4874 	jarl	_RSCFD_EnableCFIFO,lp
                        4874 <EXPANSION BEGIN>

                                                                      Page 85
                                                              C:\Users\TIEZHU~1\AppData\Local\Temp\gh_00006hc1.si
                        4874 jarl22 _RSCFD_EnableCFIFO , lp 
00001aca 80ff0000*      4874 <EXPANSION END>
                        4875 --1673: 			RSCAN_FIXED_GWFIFO_INDEX,
                        4876 --1674: 			                  RSCFD_TRUE);
                        4877 --1675: 			RSCFD_EnableTHL(unit_id, channel_id, RSCFD_TRUE);
                        4878 --line1675
                        4879 ..lin.D.3A.5CCANFDGwMcuFirmRH850F1x.5Ccode.5CCANFDGwMcuFirmRH850F1x.5CCANFDGwMcuFirmRH850F1x.5Cprj.5CGHS.20MULTI.5CCAN.20Gateway.5Coutput.5Cobj.5Cpe1.5CCan.188::
                        4880 .LDWlin188:
00001ace 1d30           4881 	mov	r29,r6
00001ad0 1c38           4882 	mov	r28,r7
00001ad2 0142           4883 	mov	1,r8
                        4884 	jarl	_RSCFD_EnableTHL,lp
                        4884 <EXPANSION BEGIN>
                        4884 jarl22 _RSCFD_EnableTHL , lp 
00001ad4 80ff0000*      4884 <EXPANSION END>
                        4885 --1676: 			p_can_rxfifo_cfgtbl = Can_PbConfig.CanRxFIFOConfigTable;
                        4886 --line1676
                        4887 ..lin.D.3A.5CCANFDGwMcuFirmRH850F1x.5Ccode.5CCANFDGwMcuFirmRH850F1x.5CCANFDGwMcuFirmRH850F1x.5Cprj.5CGHS.20MULTI.5CCAN.20Gateway.5Coutput.5Cobj.5Cpe1.5CCan.189::
                        4888 .LDWlin189:
00001ad8 2b0600000000*  4889 	mov	_Can_PbConfig+12,r11
00001ade 2be70100       4890 	ld.w	0[r11],r28
                        4891 --1677: 			for (rxfifo_idx = (uint8_t) 0U; rxfifo_idx < Can_PbConfig.NumberOfRxFifoObject; rxfifo_idx++)
00001ae2 00ea           4892 	mov	0,r29
00001ae4 8515*          4893 	br	.L1847
                        4894 .L1846:
                        4895 --1678: 			{
                        4896 --1679: 				RSCFD_EnableRFIFO(p_can_rxfifo_cfgtbl[rxfifo_idx].UnitIdx, p_can_rxfifo_cfgtbl[rxfifo_idx].FifoIdx,
                        4897 --line1679
                        4898 ..lin.D.3A.5CCANFDGwMcuFirmRH850F1x.5Ccode.5CCANFDGwMcuFirmRH850F1x.5CCANFDGwMcuFirmRH850F1x.5Cprj.5CGHS.20MULTI.5CCAN.20Gateway.5Coutput.5Cobj.5Cpe1.5CCan.190::
                        4899 .LDWlin190:
00001ae6 1d08           4900 	mov	r29,r1
00001ae8 c30a           4901 	shl	3,r1
00001aea 01f0           4902 	mov	r1,ep
00001aec dcf1           4903 	add	r28,ep
00001aee 6030           4904 	sld.bu	0[ep],r6
00001af0 1d08           4905 	mov	r29,r1
00001af2 c30a           4906 	shl	3,r1
00001af4 01f0           4907 	mov	r1,ep
00001af6 dcf1           4908 	add	r28,ep
00001af8 6138           4909 	sld.bu	1[ep],r7
00001afa 0142           4910 	mov	1,r8
                        4911 	jarl	_RSCFD_EnableRFIFO,lp
                        4911 <EXPANSION BEGIN>
                        4911 jarl22 _RSCFD_EnableRFIFO , lp 
00001afc 80ff0000*      4911 <EXPANSION END>
                        4912 --line1677
                        4913 ..lin.D.3A.5CCANFDGwMcuFirmRH850F1x.5Ccode.5CCANFDGwMcuFirmRH850F1x.5CCANFDGwMcuFirmRH850F1x.5Cprj.5CGHS.20MULTI.5CCAN.20Gateway.5Coutput.5Cobj.5Cpe1.5CCan.191::
                        4914 .LDWlin191:
00001b00 41ea           4915 	add	1,r29
00001b02 9d00           4916 	zxb	r29
                        4917 .L1847:
00001b04 2b0600000000*  4918 	mov	_Can_PbConfig+8,r11
00001b0a 8b0f0100       4919 	ld.bu	0[r11],r1
00001b0e e1e9           4920 	cmp	r1,r29
00001b10 b1ed*          4921 	bl	.L1846
00001b12 a52d*          4922 	br	.L1841
                        4923 .L1848:
                        4924 --1680: 				RSCFD_TRUE);
                        4925 --1681: 			} /* End of RxFifo */
                        4926 --1683: 			break;
                        4927 --1684: 			/* ---- STARTED -> STOPPED ---- */

                                                                      Page 86
                                                              C:\Users\TIEZHU~1\AppData\Local\Temp\gh_00006hc1.si
                        4928 --1685: 		case CAN_T_STOP:
                        4929 --1686: 			RSCFD_SwitchChannelMode(unit_id, channel_id, RSCFD_MODE_HALT);
                        4930 --line1686
                        4931 ..lin.D.3A.5CCANFDGwMcuFirmRH850F1x.5Ccode.5CCANFDGwMcuFirmRH850F1x.5CCANFDGwMcuFirmRH850F1x.5Cprj.5CGHS.20MULTI.5CCAN.20Gateway.5Coutput.5Cobj.5Cpe1.5CCan.192::
                        4932 .LDWlin192:
00001b14 1d30           4933 	mov	r29,r6
00001b16 1c38           4934 	mov	r28,r7
00001b18 0342           4935 	mov	3,r8
                        4936 	jarl	_RSCFD_SwitchChannelMode,lp
                        4936 <EXPANSION BEGIN>
                        4936 jarl22 _RSCFD_SwitchChannelMode , lp 
00001b1a 80ff0000*      4936 <EXPANSION END>
                        4937 --1687: 			CanIf_ControllerModeIndication(Controller, CANIF_CS_STOPPED);
                        4938 --line1687
                        4939 ..lin.D.3A.5CCANFDGwMcuFirmRH850F1x.5Ccode.5CCANFDGwMcuFirmRH850F1x.5CCANFDGwMcuFirmRH850F1x.5Cprj.5CGHS.20MULTI.5CCAN.20Gateway.5Coutput.5Cobj.5Cpe1.5CCan.193::
                        4940 .LDWlin193:
00001b1e 1b30           4941 	mov	r27,r6
00001b20 013a           4942 	mov	1,r7
                        4943 	jarl	_CanIf_ControllerModeIndication,lp
                        4943 <EXPANSION BEGIN>
                        4943 jarl22 _CanIf_ControllerModeIndication , lp 
00001b22 80ff0000*      4943 <EXPANSION END>
                        4944 --line1689
                        4945 ..lin.D.3A.5CCANFDGwMcuFirmRH850F1x.5Ccode.5CCANFDGwMcuFirmRH850F1x.5CCANFDGwMcuFirmRH850F1x.5Cprj.5CGHS.20MULTI.5CCAN.20Gateway.5Coutput.5Cobj.5Cpe1.5CCan.194::
                        4946 .LDWlin194:
00001b26 8525*          4947 	br	.L1841
                        4948 .L1849:
                        4949 --1689: 			break;
                        4950 --1690: 			/* ---- STOPPED -> SLEEP ---- */
                        4951 --1691: 		case CAN_T_SLEEP:
                        4952 --1692: 			RSCFD_SwitchChannelMode(unit_id, channel_id, RSCFD_MODE_RESET);
                        4953 --line1692
                        4954 ..lin.D.3A.5CCANFDGwMcuFirmRH850F1x.5Ccode.5CCANFDGwMcuFirmRH850F1x.5CCANFDGwMcuFirmRH850F1x.5Cprj.5CGHS.20MULTI.5CCAN.20Gateway.5Coutput.5Cobj.5Cpe1.5CCan.195::
                        4955 .LDWlin195:
00001b28 1d30           4956 	mov	r29,r6
00001b2a 1c38           4957 	mov	r28,r7
00001b2c 0142           4958 	mov	1,r8
                        4959 	jarl	_RSCFD_SwitchChannelMode,lp
                        4959 <EXPANSION BEGIN>
                        4959 jarl22 _RSCFD_SwitchChannelMode , lp 
00001b2e 80ff0000*      4959 <EXPANSION END>
                        4960 --1693: 			RSCFD_SwitchChannelMode(unit_id, channel_id, RSCFD_MODE_SLEEP);
                        4961 --line1693
                        4962 ..lin.D.3A.5CCANFDGwMcuFirmRH850F1x.5Ccode.5CCANFDGwMcuFirmRH850F1x.5CCANFDGwMcuFirmRH850F1x.5Cprj.5CGHS.20MULTI.5CCAN.20Gateway.5Coutput.5Cobj.5Cpe1.5CCan.196::
                        4963 .LDWlin196:
00001b32 1d30           4964 	mov	r29,r6
00001b34 1c38           4965 	mov	r28,r7
00001b36 0042           4966 	mov	0,r8
                        4967 	jarl	_RSCFD_SwitchChannelMode,lp
                        4967 <EXPANSION BEGIN>
                        4967 jarl22 _RSCFD_SwitchChannelMode , lp 
00001b38 80ff0000*      4967 <EXPANSION END>
                        4968 --1694: 			CanIf_ControllerModeIndication(Controller, CANIF_CS_SLEEP);
                        4969 --line1694
                        4970 ..lin.D.3A.5CCANFDGwMcuFirmRH850F1x.5Ccode.5CCANFDGwMcuFirmRH850F1x.5CCANFDGwMcuFirmRH850F1x.5Cprj.5CGHS.20MULTI.5CCAN.20Gateway.5Coutput.5Cobj.5Cpe1.5CCan.197::
                        4971 .LDWlin197:
00001b3c 1b30           4972 	mov	r27,r6
00001b3e 033a           4973 	mov	3,r7
                        4974 	jarl	_CanIf_ControllerModeIndication,lp
                        4974 <EXPANSION BEGIN>
                        4974 jarl22 _CanIf_ControllerModeIndication , lp 

                                                                      Page 87
                                                              C:\Users\TIEZHU~1\AppData\Local\Temp\gh_00006hc1.si
00001b40 80ff0000*      4974 <EXPANSION END>
                        4975 --line1696
                        4976 ..lin.D.3A.5CCANFDGwMcuFirmRH850F1x.5Ccode.5CCANFDGwMcuFirmRH850F1x.5CCANFDGwMcuFirmRH850F1x.5Cprj.5CGHS.20MULTI.5CCAN.20Gateway.5Coutput.5Cobj.5Cpe1.5CCan.198::
                        4977 .LDWlin198:
00001b44 9515*          4978 	br	.L1841
                        4979 .L1850:
                        4980 --1696: 			break;
                        4981 --1697: 			/* ---- SLEEP -> STOPPED ---- */
                        4982 --1698: 		case CAN_T_WAKEUP:
                        4983 --1699: 			RSCFD_SwitchChannelMode(unit_id, channel_id, RSCFD_MODE_RESET);
                        4984 --line1699
                        4985 ..lin.D.3A.5CCANFDGwMcuFirmRH850F1x.5Ccode.5CCANFDGwMcuFirmRH850F1x.5CCANFDGwMcuFirmRH850F1x.5Cprj.5CGHS.20MULTI.5CCAN.20Gateway.5Coutput.5Cobj.5Cpe1.5CCan.199::
                        4986 .LDWlin199:
00001b46 1d30           4987 	mov	r29,r6
00001b48 1c38           4988 	mov	r28,r7
00001b4a 0142           4989 	mov	1,r8
                        4990 	jarl	_RSCFD_SwitchChannelMode,lp
                        4990 <EXPANSION BEGIN>
                        4990 jarl22 _RSCFD_SwitchChannelMode , lp 
00001b4c 80ff0000*      4990 <EXPANSION END>
                        4991 --1700: 			RSCFD_SwitchChannelMode(unit_id, channel_id, RSCFD_MODE_HALT);
                        4992 --line1700
                        4993 ..lin.D.3A.5CCANFDGwMcuFirmRH850F1x.5Ccode.5CCANFDGwMcuFirmRH850F1x.5CCANFDGwMcuFirmRH850F1x.5Cprj.5CGHS.20MULTI.5CCAN.20Gateway.5Coutput.5Cobj.5Cpe1.5CCan.200::
                        4994 .LDWlin200:
00001b50 1d30           4995 	mov	r29,r6
00001b52 1c38           4996 	mov	r28,r7
00001b54 0342           4997 	mov	3,r8
                        4998 	jarl	_RSCFD_SwitchChannelMode,lp
                        4998 <EXPANSION BEGIN>
                        4998 jarl22 _RSCFD_SwitchChannelMode , lp 
00001b56 80ff0000*      4998 <EXPANSION END>
                        4999 --1701: 			CanIf_ControllerModeIndication(Controller, CANIF_CS_STOPPED);
                        5000 --line1701
                        5001 ..lin.D.3A.5CCANFDGwMcuFirmRH850F1x.5Ccode.5CCANFDGwMcuFirmRH850F1x.5CCANFDGwMcuFirmRH850F1x.5Cprj.5CGHS.20MULTI.5CCAN.20Gateway.5Coutput.5Cobj.5Cpe1.5CCan.201::
                        5002 .LDWlin201:
00001b5a 1b30           5003 	mov	r27,r6
00001b5c 013a           5004 	mov	1,r7
                        5005 	jarl	_CanIf_ControllerModeIndication,lp
                        5005 <EXPANSION BEGIN>
                        5005 jarl22 _CanIf_ControllerModeIndication , lp 
00001b5e 80ff0000*      5005 <EXPANSION END>
                        5006 --line1703
                        5007 ..lin.D.3A.5CCANFDGwMcuFirmRH850F1x.5Ccode.5CCANFDGwMcuFirmRH850F1x.5CCANFDGwMcuFirmRH850F1x.5Cprj.5CGHS.20MULTI.5CCAN.20Gateway.5Coutput.5Cobj.5Cpe1.5CCan.202::
                        5008 .LDWlin202:
00001b62 a505*          5009 	br	.L1841
                        5010 .L1851:
                        5011 --1703: 			break;
                        5012 --1704: 		default:
                        5013 --1705: 			rtn_value = CAN_NOT_OK;
                        5014 --line1705
                        5015 ..lin.D.3A.5CCANFDGwMcuFirmRH850F1x.5Ccode.5CCANFDGwMcuFirmRH850F1x.5CCANFDGwMcuFirmRH850F1x.5Cprj.5CGHS.20MULTI.5CCAN.20Gateway.5Coutput.5Cobj.5Cpe1.5CCan.203::
                        5016 .LDWlin203:
00001b64 01ca           5017 	mov	1,r25
                        5018 .L1841:
                        5019 --1706: 			break;
                        5020 --1707: 	}
                        5021 --1709: 	return rtn_value;
00001b66 1950           5022 	mov	r25,r10
                        5023 --	    .ef
                        5024 .LDW89:
00001b68 23ff1500       5025 	ld.w	20[sp],lp

                                                                      Page 88
                                                              C:\Users\TIEZHU~1\AppData\Local\Temp\gh_00006hc1.si
00001b6c 23ef0100       5026 	ld.w	0[sp],r29
00001b70 23e70500       5027 	ld.w	4[sp],r28
00001b74 23df0900       5028 	ld.w	8[sp],r27
00001b78 23d70d00       5029 	ld.w	12[sp],r26
00001b7c 23cf1100       5030 	ld.w	16[sp],r25
00001b80 031e1800       5031 	addi	24,sp,sp
00001b84 7f00           5032 	jmp	[lp]
                        5033 	.type	_Can_SetControllerMode,@function
                        5034 	.size	_Can_SetControllerMode,.-_Can_SetControllerMode
                        5035 	.align	2
                        5036 .LDW99:
                        5037 --_rtn_value	r25	local
                        5038 --_p_can_cfg	r26	local
                        5039 --_unit_id	r29	local
                        5040 --_channel_id	r28	local
                        5041 --_rxfifo_idx	r29	local
                        5042 --_p_can_rxfifo_cfgtbl	r28	local
                        5043 --_phy_id	r1	local
                        5044 
                        5045 --_Controller	r27	param
                        5046 --_Transition	r7	param
                        5047 
                        5048 	.data
                        5049 	.text
                        5050 
                        5051 --1710: } /* End of function Can_SetControllerMode() */
                        5052 
                        5053 --1712: /***********************************************************************************************************************
                        5054 --1713:  * Function Name: Can_Write
                        5055 --1714:  * Description  : This function writes a PDU to a given hardware object and request to transmit.
                        5056 --1715:  * Arguments    : Hth -
                        5057 --1716:  *                    Information which HW-transmit handle shall be used for transmit
                        5058 --1717:  *               PduInfo -
                        5059 --1718:  *                   Pointer to SDU user memory, DLC and Identifier
                        5060 --1719:  * Return Value : CAN_OK -
                        5061 --1720:  *                    Write command has been accepted
                        5062 --1721:  *                CAN_NOT_OK -
                        5063 --1722:  *                    development error occurred
                        5064 --1723:  *                CAN_BUSY -
                        5065 --1724:  *                    No TX hardware buffer available or pre-emptive call of Can_Write that can't be implemented
                        5066 --1725:  *                    re-entrant
                        5067 --1726:  ***********************************************************************************************************************/
                        5068 --1727: Can_ReturnType Can_Write(Can_HwHandleType Hth, const Can_PduType* PduInfo)
                        5069 	.align	2
                        5070 	.align	2
                        5071 	.global	_Can_Write
                        5072 _Can_Write:
00001b86 031e44ff       5073 	addi	-188,sp,sp
00001b8a 63ffb900       5074 	st.w	lp,184[sp]
00001b8e 63dfb500       5075 	st.w	r27,180[sp]
00001b92 63e7b100       5076 	st.w	r28,176[sp]
00001b96 63efad00       5077 	st.w	r29,172[sp]
00001b9a c6eeffff       5078 	andi	65535,r6,r29
00001b9e 07e0           5079 	mov	r7,r28
                        5080 --	    .bf
                        5081 .LDW001:
                        5082 --1728: {
                        5083 --1729: 	Can_ReturnType rtn_value;
                        5084 --1730: 	const can_hw_obj_tx_t* p_hw_obj_txcfg;
                        5085 --1731: 	RSCFD_Frame txmsg;
                        5086 --1732: 	uint8_t tx_pointer;

                                                                      Page 89
                                                              C:\Users\TIEZHU~1\AppData\Local\Temp\gh_00006hc1.si
                        5087 --1733: 	uint8_t phy_chn_id;
                        5088 --1734: 	uint8_t txbuf_status;
                        5089 --1736: 	/* check validity of parameters */
                        5090 --1737: 	if (NULL_PTR == PduInfo)
00001ba0 e0e1           5091 	cmp	zero,r28
00001ba2 fa05*          5092 	bne	.L1921
                        5093 --1738: 	{
                        5094 --1739: 		User_ReportError((uint16_t) CAN_DRV_MODULE_ID, (uint8_t) 0U, (uint8_t) CanServiceId_Write,
                        5095 --line1739
                        5096 ..lin.D.3A.5CCANFDGwMcuFirmRH850F1x.5Ccode.5CCANFDGwMcuFirmRH850F1x.5CCANFDGwMcuFirmRH850F1x.5Cprj.5CGHS.20MULTI.5CCAN.20Gateway.5Coutput.5Cobj.5Cpe1.5CCan.204::
                        5097 .LDWlin204:
00001ba4 0032           5098 	mov	0,r6
00001ba6 003a           5099 	mov	0,r7
00001ba8 0642           5100 	mov	6,r8
00001baa 014a           5101 	mov	1,r9
                        5102 	jarl	_User_ReportError,lp
                        5102 <EXPANSION BEGIN>
                        5102 jarl22 _User_ReportError , lp 
00001bac 80ff0000*      5102 <EXPANSION END>
                        5103 .L1921:
                        5104 --1740: 		                 (uint8_t) CAN_E_PARAM_POINTER);
                        5105 --1741: 	}
                        5106 --1743: 	/* ---- Locate corresponding message buffer ---- */
                        5107 --1744: 	p_hw_obj_txcfg = &Can_PbConfig.TxHwObjectTable[Hth];
                        5108 --line1744
                        5109 ..lin.D.3A.5CCANFDGwMcuFirmRH850F1x.5Ccode.5CCANFDGwMcuFirmRH850F1x.5CCANFDGwMcuFirmRH850F1x.5Cprj.5CGHS.20MULTI.5CCAN.20Gateway.5Coutput.5Cobj.5Cpe1.5CCan.205::
                        5110 .LDWlin205:
00001bb0 1d08           5111 	mov	r29,r1
00001bb2 c10a           5112 	shl	1,r1
00001bb4 2b0600000000*  5113 	mov	_Can_PbConfig+20,r11
00001bba 2b170100       5114 	ld.w	0[r11],r2
00001bbe 01e8           5115 	mov	r1,r29
00001bc0 c2e9           5116 	add	r2,r29
                        5117 --1746: 	/* ---- Write message to buffer ---- */
                        5118 --1747: 	txmsg = can_get_txmsg(PduInfo, p_hw_obj_txcfg->UnitIdx, p_hw_obj_txcfg->ControllerId);
00001bc2 1c38           5119 	mov	r28,r7
00001bc4 9d470100       5120 	ld.bu	0[r29],r8
00001bc8 bd4f0100       5121 	ld.bu	1[r29],r9
00001bcc 23360c00       5122 	movea	12,sp,r6
                        5123 	jarl	_can_get_txmsg,lp
                        5123 <EXPANSION BEGIN>
                        5123 jarl22 _can_get_txmsg , lp 
00001bd0 bfffd4fa*      5123 <EXPANSION END>
00001bd4 230e0c00       5124 	movea	12,sp,r1
00001bd8 23165c00       5125 	movea	92,sp,r2
00001bdc 019e5000       5126 	addi	80,r1,r19
                        5127 .L2018:
00001be0 a10709800000   5128 	ld.dw	0[r1],r16
00001be6 a2070f800000   5129 	st.dw	r16,0[r2]
00001bec 480a           5130 	add	8,r1
00001bee 4812           5131 	add	8,r2
00001bf0 e199           5132 	cmp	r1,r19
00001bf2 faf5*          5133 	bne	.L2018
                        5134 --1748: 	phy_chn_id = can_get_chn_cfgtbl_index(p_hw_obj_txcfg->UnitIdx, p_hw_obj_txcfg->ControllerId);
                        5135 --line1748
                        5136 ..lin.D.3A.5CCANFDGwMcuFirmRH850F1x.5Ccode.5CCANFDGwMcuFirmRH850F1x.5CCANFDGwMcuFirmRH850F1x.5Cprj.5CGHS.20MULTI.5CCAN.20Gateway.5Coutput.5Cobj.5Cpe1.5CCan.206::
                        5137 .LDWlin206:
00001bf4 9d370100       5138 	ld.bu	0[r29],r6
00001bf8 bd3f0100       5139 	ld.bu	1[r29],r7
                        5140 	jarl	_can_get_chn_cfgtbl_index,lp
                        5140 <EXPANSION BEGIN>

                                                                      Page 90
                                                              C:\Users\TIEZHU~1\AppData\Local\Temp\gh_00006hc1.si
                        5140 jarl22 _can_get_chn_cfgtbl_index , lp 
00001bfc bfff18fc*      5140 <EXPANSION END>
00001c00 0ad8           5141 	mov	r10,r27
                        5142 --1749: 	/* MISRA C:2012 Violation - Rule 1.3 */
                        5143 --1750: 	/* Justification - Taking address of near auto variable is unavoidable */
                        5144 --1751: 	if (CAN_TX_OBJ_TXQ == can_select_tx_obj(&txmsg))
                        5145 --line1751
                        5146 ..lin.D.3A.5CCANFDGwMcuFirmRH850F1x.5Ccode.5CCANFDGwMcuFirmRH850F1x.5CCANFDGwMcuFirmRH850F1x.5Cprj.5CGHS.20MULTI.5CCAN.20Gateway.5Coutput.5Cobj.5Cpe1.5CCan.207::
                        5147 .LDWlin207:
00001c02 23365c00       5148 	movea	92,sp,r6
                        5149 	jarl	_can_select_tx_obj,lp
                        5149 <EXPANSION BEGIN>
                        5149 jarl22 _can_select_tx_obj , lp 
00001c06 bfffc8fc*      5149 <EXPANSION END>
00001c0a e051           5150 	cmp	zero,r10
00001c0c da3d*          5151 	bne	.L1923
                        5152 --1752: 	{
                        5153 --1753: 		/* Tx by Tx Queue */
                        5154 --1754: 		/* Get free Tx Queue buffer pointer */
                        5155 --1755: 		/* MISRA C:2012 Violation - Rule 1.3 */
                        5156 --1756: 		/* Justification - Taking address of near auto variable is unavoidable */
                        5157 --1757: 		if (FALSE == can_get_txpointer(phy_chn_id, PduInfo->SwPduHandle, &tx_pointer))
                        5158 --line1757
                        5159 ..lin.D.3A.5CCANFDGwMcuFirmRH850F1x.5Ccode.5CCANFDGwMcuFirmRH850F1x.5CCANFDGwMcuFirmRH850F1x.5Cprj.5CGHS.20MULTI.5CCAN.20Gateway.5Coutput.5Cobj.5Cpe1.5CCan.208::
                        5160 .LDWlin208:
00001c0e 1b30           5161 	mov	r27,r6
00001c10 fc3f0100       5162 	ld.hu	0[r28],r7
00001c14 23460b00       5163 	movea	11,sp,r8
                        5164 	jarl	_can_get_txpointer,lp
                        5164 <EXPANSION BEGIN>
                        5164 jarl22 _can_get_txpointer , lp 
00001c18 bfff94fb*      5164 <EXPANSION END>
00001c1c e051           5165 	cmp	zero,r10
00001c1e ba05*          5166 	bne	.L1925
                        5167 --1758: 		{
                        5168 --1759: 			/* Tx not complete, so no space to transmit */
                        5169 --1760: 			rtn_value = CAN_NOT_OK;
                        5170 --line1760
                        5171 ..lin.D.3A.5CCANFDGwMcuFirmRH850F1x.5Ccode.5CCANFDGwMcuFirmRH850F1x.5CCANFDGwMcuFirmRH850F1x.5Cprj.5CGHS.20MULTI.5CCAN.20Gateway.5Coutput.5Cobj.5Cpe1.5CCan.209::
                        5172 .LDWlin209:
00001c20 010a           5173 	mov	1,r1
00001c22 f575*          5174 	br	.L1931
                        5175 .L1925:
                        5176 --1761: 		}
                        5177 --1762: 		else
                        5178 --1763: 		{
                        5179 --1764: 			/* Write Tx message to Tx Queue buffer */
                        5180 --1765: 			/* MISRA C:2012 Violation - Rule 1.3 */
                        5181 --1766: 			/* Justification - Taking address of near auto variable is unavoidable */
                        5182 --1767: 			if (RSCFD_FALSE
                        5183 --line1767
                        5184 ..lin.D.3A.5CCANFDGwMcuFirmRH850F1x.5Ccode.5CCANFDGwMcuFirmRH850F1x.5CCANFDGwMcuFirmRH850F1x.5Cprj.5CGHS.20MULTI.5CCAN.20Gateway.5Coutput.5Cobj.5Cpe1.5CCan.210::
                        5185 .LDWlin210:
00001c24 9d370100       5186 	ld.bu	0[r29],r6
00001c28 bd3f0100       5187 	ld.bu	1[r29],r7
00001c2c a30f0b00       5188 	ld.bu	11[sp],r1
00001c30 630f0100       5189 	st.w	r1,0[sp]
00001c34 23465c00       5190 	movea	92,sp,r8
00001c38 014a           5191 	mov	1,r9
                        5192 	jarl	_RSCFD_WriteTxQ,lp
                        5192 <EXPANSION BEGIN>

                                                                      Page 91
                                                              C:\Users\TIEZHU~1\AppData\Local\Temp\gh_00006hc1.si
                        5192 jarl22 _RSCFD_WriteTxQ , lp 
00001c3a 80ff0000*      5192 <EXPANSION END>
00001c3e e051           5193 	cmp	zero,r10
00001c40 ba05*          5194 	bne	.L1928
                        5195 --1768: 			    == RSCFD_WriteTxQ(p_hw_obj_txcfg->UnitIdx, p_hw_obj_txcfg->ControllerId, &txmsg, RSCFD_TRUE,
                        5196 --1769: 			                      tx_pointer))
                        5197 --1770: 			{
                        5198 --1771: 				rtn_value = CAN_NOT_OK;
                        5199 --line1771
                        5200 ..lin.D.3A.5CCANFDGwMcuFirmRH850F1x.5Ccode.5CCANFDGwMcuFirmRH850F1x.5CCANFDGwMcuFirmRH850F1x.5Cprj.5CGHS.20MULTI.5CCAN.20Gateway.5Coutput.5Cobj.5Cpe1.5CCan.211::
                        5201 .LDWlin211:
00001c42 010a           5202 	mov	1,r1
00001c44 e565*          5203 	br	.L1931
                        5204 .L1928:
                        5205 --1772: 			}
                        5206 --1773: 			else
                        5207 --1774: 			{
                        5208 --1775: 				/* ---- Record current PduId for Tx confirmation ---- */
                        5209 --1776: 				g_can_hoh_pduid_txtbl[p_hw_obj_txcfg->ControllerId][tx_pointer].PduId = PduInfo->SwPduHandle;
                        5210 --line1776
                        5211 ..lin.D.3A.5CCANFDGwMcuFirmRH850F1x.5Ccode.5CCANFDGwMcuFirmRH850F1x.5CCANFDGwMcuFirmRH850F1x.5Cprj.5CGHS.20MULTI.5CCAN.20Gateway.5Coutput.5Cobj.5Cpe1.5CCan.212::
                        5212 .LDWlin212:
00001c46 bd0f0100       5213 	ld.bu	1[r29],r1
00001c4a e1160a00       5214 	mulhi	10,r1,r2
00001c4e a30f0b00       5215 	ld.bu	11[sp],r1
00001c52 c209           5216 	add	r2,r1
00001c54 c20a           5217 	shl	2,r1
00001c56 220600000000*  5218 	mov	_g_can_hoh_pduid_txtbl,r2
00001c5c 01f0           5219 	mov	r1,ep
00001c5e c2f1           5220 	add	r2,ep
00001c60 fc0f0100       5221 	ld.hu	0[r28],r1
00001c64 800c           5222 	sst.h	r1,0[ep]
                        5223 --1777: 				g_can_hoh_pduid_txtbl[p_hw_obj_txcfg->ControllerId][tx_pointer].IsFree = RSCFD_FALSE;
00001c66 bd0f0100       5224 	ld.bu	1[r29],r1
00001c6a e1160a00       5225 	mulhi	10,r1,r2
00001c6e a30f0b00       5226 	ld.bu	11[sp],r1
00001c72 c209           5227 	add	r2,r1
00001c74 c20a           5228 	shl	2,r1
00001c76 220600000000*  5229 	mov	_g_can_hoh_pduid_txtbl,r2
00001c7c 01f0           5230 	mov	r1,ep
00001c7e c2f1           5231 	add	r2,ep
00001c80 8203           5232 	sst.b	zero,2[ep]
                        5233 --1778: 				rtn_value = CAN_OK;
00001c82 000a           5234 	mov	0,r1
00001c84 e545*          5235 	br	.L1931
                        5236 .L1923:
                        5237 --1779: 			}
                        5238 --1780: 		}
                        5239 --1781: 	}
                        5240 --1782: 	else
                        5241 --1783: 	{
                        5242 --1784: 		/* Tx by TxBuf in merge mode */
                        5243 --1785: 		if (CAN_BUSY
                        5244 --line1785
                        5245 ..lin.D.3A.5CCANFDGwMcuFirmRH850F1x.5Ccode.5CCANFDGwMcuFirmRH850F1x.5CCANFDGwMcuFirmRH850F1x.5Cprj.5CGHS.20MULTI.5CCAN.20Gateway.5Coutput.5Cobj.5Cpe1.5CCan.213::
                        5246 .LDWlin213:
00001c86 9d370100       5247 	ld.bu	0[r29],r6
00001c8a bd3f0100       5248 	ld.bu	1[r29],r7
00001c8e 0342           5249 	mov	3,r8
                        5250 	jarl	_can_is_txbuf_ongoing,lp
                        5250 <EXPANSION BEGIN>

                                                                      Page 92
                                                              C:\Users\TIEZHU~1\AppData\Local\Temp\gh_00006hc1.si
                        5250 jarl22 _can_is_txbuf_ongoing , lp 
00001c90 bfff66fc*      5250 <EXPANSION END>
00001c94 6252           5251 	cmp	2,r10
00001c96 ba05*          5252 	bne	.L1932
                        5253 --1786: 		    == can_is_txbuf_ongoing(p_hw_obj_txcfg->UnitIdx, p_hw_obj_txcfg->ControllerId, RSCAN_DEFAULT_TXBUF_MERGED))
                        5254 --1787: 		{
                        5255 --1788: 			/* Tx not complete, so no space to transmit */
                        5256 --1789: 			rtn_value = CAN_NOT_OK;
                        5257 --line1789
                        5258 ..lin.D.3A.5CCANFDGwMcuFirmRH850F1x.5Ccode.5CCANFDGwMcuFirmRH850F1x.5CCANFDGwMcuFirmRH850F1x.5Cprj.5CGHS.20MULTI.5CCAN.20Gateway.5Coutput.5Cobj.5Cpe1.5CCan.214::
                        5259 .LDWlin214:
00001c98 010a           5260 	mov	1,r1
00001c9a b53d*          5261 	br	.L1931
                        5262 .L1932:
                        5263 --1790: 		}
                        5264 --1791: 		else
                        5265 --1792: 		{
                        5266 --1793: 			/* Write Tx message to Tx Queue buffer */
                        5267 --1794: 			/* MISRA C:2012 Violation - Rule 1.3 */
                        5268 --1795: 			/* Justification - Taking address of near auto variable is unavoidable */
                        5269 --1796: 			RSCFD_WriteTMB(p_hw_obj_txcfg->UnitIdx, p_hw_obj_txcfg->ControllerId, RSCAN_DEFAULT_TXBUF_MERGED, &txmsg,
                        5270 --line1796
                        5271 ..lin.D.3A.5CCANFDGwMcuFirmRH850F1x.5Ccode.5CCANFDGwMcuFirmRH850F1x.5CCANFDGwMcuFirmRH850F1x.5Cprj.5CGHS.20MULTI.5CCAN.20Gateway.5Coutput.5Cobj.5Cpe1.5CCan.215::
                        5272 .LDWlin215:
00001c9c 9d370100       5273 	ld.bu	0[r29],r6
00001ca0 bd3f0100       5274 	ld.bu	1[r29],r7
00001ca4 010a           5275 	mov	1,r1
00001ca6 630f0100       5276 	st.w	r1,0[sp]
00001caa 9c0f0100       5277 	ld.bu	0[r28],r1
00001cae 630f0500       5278 	st.w	r1,4[sp]
00001cb2 0342           5279 	mov	3,r8
00001cb4 234e5c00       5280 	movea	92,sp,r9
                        5281 	jarl	_RSCFD_WriteTMB,lp
                        5281 <EXPANSION BEGIN>
                        5281 jarl22 _RSCFD_WriteTMB , lp 
00001cb8 80ff0000*      5281 <EXPANSION END>
                        5282 --1797: 			RSCFD_TRUE,
                        5283 --1798: 			               (uint8_t) (PduInfo->SwPduHandle));
                        5284 --1799: 			RSCFD_EnableTMB(p_hw_obj_txcfg->UnitIdx, p_hw_obj_txcfg->ControllerId, RSCAN_DEFAULT_TXBUF_MERGED,
                        5285 --line1799
                        5286 ..lin.D.3A.5CCANFDGwMcuFirmRH850F1x.5Ccode.5CCANFDGwMcuFirmRH850F1x.5CCANFDGwMcuFirmRH850F1x.5Cprj.5CGHS.20MULTI.5CCAN.20Gateway.5Coutput.5Cobj.5Cpe1.5CCan.216::
                        5287 .LDWlin216:
00001cbc 9d370100       5288 	ld.bu	0[r29],r6
00001cc0 bd3f0100       5289 	ld.bu	1[r29],r7
00001cc4 010a           5290 	mov	1,r1
00001cc6 630f0100       5291 	st.w	r1,0[sp]
00001cca 0342           5292 	mov	3,r8
00001ccc 014a           5293 	mov	1,r9
                        5294 	jarl	_RSCFD_EnableTMB,lp
                        5294 <EXPANSION BEGIN>
                        5294 jarl22 _RSCFD_EnableTMB , lp 
00001cce 80ff0000*      5294 <EXPANSION END>
                        5295 --1800: 			RSCFD_TRUE,
                        5296 --1801: 			                RSCFD_TRUE);
                        5297 --1802: 			/* check Txbuf Abort */
                        5298 --1803: 			txbuf_status = RSCFD_GetTMSTS(p_hw_obj_txcfg->UnitIdx, p_hw_obj_txcfg->ControllerId,
                        5299 --line1803
                        5300 ..lin.D.3A.5CCANFDGwMcuFirmRH850F1x.5Ccode.5CCANFDGwMcuFirmRH850F1x.5CCANFDGwMcuFirmRH850F1x.5Cprj.5CGHS.20MULTI.5CCAN.20Gateway.5Coutput.5Cobj.5Cpe1.5CCan.217::
                        5301 .LDWlin217:
00001cd2 9d370100       5302 	ld.bu	0[r29],r6
00001cd6 bd3f0100       5303 	ld.bu	1[r29],r7

                                                                      Page 93
                                                              C:\Users\TIEZHU~1\AppData\Local\Temp\gh_00006hc1.si
00001cda 0342           5304 	mov	3,r8
                        5305 	jarl	_RSCFD_GetTMSTS,lp
                        5305 <EXPANSION BEGIN>
                        5305 jarl22 _RSCFD_GetTMSTS , lp 
00001cdc 80ff0000*      5305 <EXPANSION END>
00001ce0 0a08           5306 	mov	r10,r1
                        5307 --1804: 			RSCAN_DEFAULT_TXBUF_MERGED);
                        5308 --1805: 			txbuf_status &= 0x06U;
                        5309 --line1805
                        5310 ..lin.D.3A.5CCANFDGwMcuFirmRH850F1x.5Ccode.5CCANFDGwMcuFirmRH850F1x.5CCANFDGwMcuFirmRH850F1x.5Cprj.5CGHS.20MULTI.5CCAN.20Gateway.5Coutput.5Cobj.5Cpe1.5CCan.218::
                        5311 .LDWlin218:
00001ce2 c10e0600       5312 	andi	6,r1,r1
00001ce6 8100           5313 	zxb	r1
                        5314 --1806: 			txbuf_status = txbuf_status >> 1U;
00001ce8 a10a           5315 	sar	1,r1
00001cea 8100           5316 	zxb	r1
                        5317 --1807: 			if ((uint8_t) TXBUF_STS_ABORTED == (txbuf_status & 0x03U))
00001cec c10e0300       5318 	andi	3,r1,r1
00001cf0 610a           5319 	cmp	1,r1
00001cf2 ba05*          5320 	bne	.L1935
                        5321 --1808: 			{
                        5322 --1809: 				/* Transmission Aborted */
                        5323 --1810: 				rtn_value = CAN_NOT_OK;
                        5324 --line1810
                        5325 ..lin.D.3A.5CCANFDGwMcuFirmRH850F1x.5Ccode.5CCANFDGwMcuFirmRH850F1x.5CCANFDGwMcuFirmRH850F1x.5Cprj.5CGHS.20MULTI.5CCAN.20Gateway.5Coutput.5Cobj.5Cpe1.5CCan.219::
                        5326 .LDWlin219:
00001cf4 010a           5327 	mov	1,r1
00001cf6 d50d*          5328 	br	.L1931
                        5329 .L1935:
                        5330 --1811: 			}
                        5331 --1812: 			else
                        5332 --1813: 			{
                        5333 --1814: 				g_can_hoh_pduid_txbuf_tbl[p_hw_obj_txcfg->ControllerId] =
                        5334 --line1814
                        5335 ..lin.D.3A.5CCANFDGwMcuFirmRH850F1x.5Ccode.5CCANFDGwMcuFirmRH850F1x.5CCANFDGwMcuFirmRH850F1x.5Cprj.5CGHS.20MULTI.5CCAN.20Gateway.5Coutput.5Cobj.5Cpe1.5CCan.220::
                        5336 .LDWlin220:
00001cf8 bd0f0100       5337 	ld.bu	1[r29],r1
00001cfc c10a           5338 	shl	1,r1
00001cfe 220600000000*  5339 	mov	_g_can_hoh_pduid_txbuf_tbl,r2
00001d04 01f0           5340 	mov	r1,ep
00001d06 c2f1           5341 	add	r2,ep
00001d08 fc0f0100       5342 	ld.hu	0[r28],r1
00001d0c 800c           5343 	sst.h	r1,0[ep]
                        5344 --1815: 				    PduInfo->SwPduHandle;
                        5345 --1816: 				rtn_value = CAN_OK;
00001d0e 000a           5346 	mov	0,r1
                        5347 .L1931:
                        5348 --1817: 			}
                        5349 --1818: 		}
                        5350 --1819: 	}
                        5351 --1820: 	return rtn_value;
00001d10 0150           5352 	mov	r1,r10
                        5353 --	    .ef
                        5354 .LDW101:
00001d12 23ffb900       5355 	ld.w	184[sp],lp
00001d16 23efad00       5356 	ld.w	172[sp],r29
00001d1a 23e7b100       5357 	ld.w	176[sp],r28
00001d1e 23dfb500       5358 	ld.w	180[sp],r27
00001d22 031ebc00       5359 	addi	188,sp,sp
00001d26 7f00           5360 	jmp	[lp]
                        5361 	.type	_Can_Write,@function

                                                                      Page 94
                                                              C:\Users\TIEZHU~1\AppData\Local\Temp\gh_00006hc1.si
                        5362 	.size	_Can_Write,.-_Can_Write
                        5363 	.align	2
                        5364 .LDW201:
                        5365 --_rtn_value	r1	local
                        5366 --_p_hw_obj_txcfg	r29	local
                        5367 --_txmsg	92[sp]	local
                        5368 --_tx_pointer	11[sp]	local
                        5369 --_phy_chn_id	r27	local
                        5370 --_txbuf_status	r1	local
                        5371 
                        5372 --_Hth	r29	param
                        5373 --_PduInfo	r28	param
                        5374 
                        5375 	.data
                        5376 	.text
                        5377 
                        5378 --1821: } /* End of function Can_Write() */
                        5379 
                        5380 --1823: /***********************************************************************************************************************
                        5381 --1824:  * Function Name: Can_MainFunction_Write
                        5382 --1825:  * Description  : This function confirm transmission by polling.
                        5383 --1826:  * Arguments    : none
                        5384 --1827:  * Return Value : none
                        5385 --1828:  ***********************************************************************************************************************/
                        5386 --1829: void Can_MainFunction_Write(void)
                        5387 	.align	2
                        5388 	.align	2
                        5389 	.global	_Can_MainFunction_Write
                        5390 _Can_MainFunction_Write:
00001d28 581a           5391 	add	-8,sp
00001d2a 63ff0500       5392 	st.w	lp,4[sp]
00001d2e 63ef0100       5393 	st.w	r29,0[sp]
                        5394 --	    .bf
                        5395 .LDW301:
                        5396 --1830: {
                        5397 --1831: 	uint8_t chn;
                        5398 --1833: 	/* ==== Check channel one by one ==== */
                        5399 --1834: 	for (chn = (uint8_t) 0U; chn < Can_PbConfig.NumOfUsedController; chn++)
00001d32 00ea           5400 	mov	0,r29
00001d34 e505*          5401 	br	.L2045
                        5402 .L2044:
                        5403 --1835: 	{
                        5404 --1836: 		/* Judge if transmission history has message record
                        5405 --1837: 		 * then Send Tx confirmation to upper layer (CanIf). */
                        5406 --1838: 		can_check_tx_completion(chn);
                        5407 --line1838
                        5408 ..lin.D.3A.5CCANFDGwMcuFirmRH850F1x.5Ccode.5CCANFDGwMcuFirmRH850F1x.5CCANFDGwMcuFirmRH850F1x.5Cprj.5CGHS.20MULTI.5CCAN.20Gateway.5Coutput.5Cobj.5Cpe1.5CCan.221::
                        5409 .LDWlin221:
00001d36 1d30           5410 	mov	r29,r6
                        5411 	jarl	_can_check_tx_completion,lp
                        5411 <EXPANSION BEGIN>
                        5411 jarl22 _can_check_tx_completion , lp 
00001d38 bfff40f0*      5411 <EXPANSION END>
                        5412 --line1834
                        5413 ..lin.D.3A.5CCANFDGwMcuFirmRH850F1x.5Ccode.5CCANFDGwMcuFirmRH850F1x.5CCANFDGwMcuFirmRH850F1x.5Cprj.5CGHS.20MULTI.5CCAN.20Gateway.5Coutput.5Cobj.5Cpe1.5CCan.222::
                        5414 .LDWlin222:
00001d3c 41ea           5415 	add	1,r29
00001d3e 9d00           5416 	zxb	r29
                        5417 .L2045:
00001d40 2b0600000000*  5418 	mov	_Can_PbConfig,r11
00001d46 8b0f0100       5419 	ld.bu	0[r11],r1

                                                                      Page 95
                                                              C:\Users\TIEZHU~1\AppData\Local\Temp\gh_00006hc1.si
00001d4a e1e9           5420 	cmp	r1,r29
00001d4c d1f5*          5421 	bl	.L2044
                        5422 --1839: 	}
                        5423 --1840: } /* End of function Can_MainFunction_Write() */
                        5424 --	    .ef
                        5425 .LDW401:
                        5426 --line1840
                        5427 ..lin.D.3A.5CCANFDGwMcuFirmRH850F1x.5Ccode.5CCANFDGwMcuFirmRH850F1x.5CCANFDGwMcuFirmRH850F1x.5Cprj.5CGHS.20MULTI.5CCAN.20Gateway.5Coutput.5Cobj.5Cpe1.5CCan.223::
                        5428 .LDWlin223:
00001d4e 23ff0500       5429 	ld.w	4[sp],lp
00001d52 23ef0100       5430 	ld.w	0[sp],r29
00001d56 481a           5431 	add	8,sp
00001d58 7f00           5432 	jmp	[lp]
                        5433 	.type	_Can_MainFunction_Write,@function
                        5434 	.size	_Can_MainFunction_Write,.-_Can_MainFunction_Write
                        5435 	.align	2
                        5436 .LDW501:
                        5437 --_chn	r29	local
                        5438 
                        5439 	.data
                        5440 	.text
                        5441 
                        5442 
                        5443 --1842: /***********************************************************************************************************************
                        5444 --1843:  * Function Name: Can_MainFunction_Read
                        5445 --1844:  * Description  : This function checks completed message reception and notify CanIf.
                        5446 --1845:  * Arguments    : none
                        5447 --1846:  * Return Value : none
                        5448 --1847:  ***********************************************************************************************************************/
                        5449 --1848: void Can_MainFunction_Read(void)
                        5450 	.align	2
                        5451 	.align	2
                        5452 	.global	_Can_MainFunction_Read
                        5453 _Can_MainFunction_Read:
00001d5a 5c1a           5454 	add	-4,sp
00001d5c 63ff0100       5455 	st.w	lp,0[sp]
                        5456 --	    .bf
                        5457 .LDW601:
                        5458 --1849: {
                        5459 --1850: 	can_check_rx_completion();
                        5460 	jarl	_can_check_rx_completion,lp
                        5460 <EXPANSION BEGIN>
                        5460 jarl22 _can_check_rx_completion , lp 
00001d60 bfff2ef1*      5460 <EXPANSION END>
                        5461 --1851: } /* End of function Can_MainFunction_Read() */
                        5462 --	    .ef
                        5463 .LDW701:
                        5464 --line1851
                        5465 ..lin.D.3A.5CCANFDGwMcuFirmRH850F1x.5Ccode.5CCANFDGwMcuFirmRH850F1x.5CCANFDGwMcuFirmRH850F1x.5Cprj.5CGHS.20MULTI.5CCAN.20Gateway.5Coutput.5Cobj.5Cpe1.5CCan.224::
                        5466 .LDWlin224:
00001d64 23ff0100       5467 	ld.w	0[sp],lp
00001d68 441a           5468 	add	4,sp
00001d6a 7f00           5469 	jmp	[lp]
                        5470 	.type	_Can_MainFunction_Read,@function
                        5471 	.size	_Can_MainFunction_Read,.-_Can_MainFunction_Read
                        5472 	.align	2
                        5473 .LDW801:
                        5474 
                        5475 	.data
                        5476 	.text
                        5477 

                                                                      Page 96
                                                              C:\Users\TIEZHU~1\AppData\Local\Temp\gh_00006hc1.si
                        5478 
                        5479 --1853: /***********************************************************************************************************************
                        5480 --1854:  * Function Name: Can_MainFunction_BusOff
                        5481 --1855:  * Description  : This function checks if bus-off happens then notify to CanIf.
                        5482 --1856:  * Arguments    : none
                        5483 --1857:  * Return Value : none
                        5484 --1858:  ***********************************************************************************************************************/
                        5485 --1859: void Can_MainFunction_BusOff(void)
                        5486 	.align	2
                        5487 	.align	2
                        5488 	.global	_Can_MainFunction_BusOff
                        5489 _Can_MainFunction_BusOff:
00001d6c 581a           5490 	add	-8,sp
00001d6e 63ff0500       5491 	st.w	lp,4[sp]
00001d72 63ef0100       5492 	st.w	r29,0[sp]
                        5493 --	    .bf
                        5494 .LDW901:
                        5495 --1860: {
                        5496 --1861: 	uint8_t chn;
                        5497 --1862: 	uint8_t unit_id;
                        5498 --1863: 	uint8_t channel_id;
                        5499 --1865: 	/* ==== Check channel one by one ==== */
                        5500 --1866: 	for (chn = (uint8_t) 0U; chn < Can_PbConfig.NumOfUsedController; chn++)
00001d76 00ea           5501 	mov	0,r29
00001d78 a525*          5502 	br	.L2104
                        5503 .L2103:
                        5504 --1867: 	{
                        5505 --1868: 		unit_id = Can_PbConfig.CanControllerTable[chn].UnitIdx;
                        5506 --line1868
                        5507 ..lin.D.3A.5CCANFDGwMcuFirmRH850F1x.5Ccode.5CCANFDGwMcuFirmRH850F1x.5CCANFDGwMcuFirmRH850F1x.5Cprj.5CGHS.20MULTI.5CCAN.20Gateway.5Coutput.5Cobj.5Cpe1.5CCan.225::
                        5508 .LDWlin225:
00001d7a 1d08           5509 	mov	r29,r1
00001d7c e40f4402       5510 	mul	36,r1,zero
00001d80 2b0600000000*  5511 	mov	_Can_PbConfig+4,r11
00001d86 2b170100       5512 	ld.w	0[r11],r2
00001d8a 01f0           5513 	mov	r1,ep
00001d8c c2f1           5514 	add	r2,ep
00001d8e 6410           5515 	sld.bu	4[ep],r2
                        5516 --1869: 		channel_id = Can_PbConfig.CanControllerTable[chn].ControllerId;
00001d90 1d08           5517 	mov	r29,r1
00001d92 e40f4402       5518 	mul	36,r1,zero
00001d96 2c0600000000*  5519 	mov	_Can_PbConfig+4,r12
00001d9c 2c9f0100       5520 	ld.w	0[r12],r19
00001da0 01f0           5521 	mov	r1,ep
00001da2 d3f1           5522 	add	r19,ep
00001da4 6508           5523 	sld.bu	5[ep],r1
                        5524 --1870: 		/* ---- Check if it is bus-off ---- */
                        5525 --1871: 		if (RSCFD_TRUE == RSCFD_IsChannelBusOff(unit_id, channel_id))
00001da6 0230           5526 	mov	r2,r6
00001da8 0138           5527 	mov	r1,r7
                        5528 	jarl	_RSCFD_IsChannelBusOff,lp
                        5528 <EXPANSION BEGIN>
                        5528 jarl22 _RSCFD_IsChannelBusOff , lp 
00001daa 80ff0000*      5528 <EXPANSION END>
00001dae 6152           5529 	cmp	1,r10
00001db0 ca05*          5530 	bne	.L2102
                        5531 --1872: 		{
                        5532 --1873: 			/* Notify CanIf */
                        5533 --1874: 			CanIf_ControllerBusOff(chn);
                        5534 --line1874
                        5535 ..lin.D.3A.5CCANFDGwMcuFirmRH850F1x.5Ccode.5CCANFDGwMcuFirmRH850F1x.5CCANFDGwMcuFirmRH850F1x.5Cprj.5CGHS.20MULTI.5CCAN.20Gateway.5Coutput.5Cobj.5Cpe1.5CCan.226::

                                                                      Page 97
                                                              C:\Users\TIEZHU~1\AppData\Local\Temp\gh_00006hc1.si
                        5536 .LDWlin226:
00001db2 1d30           5537 	mov	r29,r6
                        5538 	jarl	_CanIf_ControllerBusOff,lp
                        5538 <EXPANSION BEGIN>
                        5538 jarl22 _CanIf_ControllerBusOff , lp 
00001db4 80ff0000*      5538 <EXPANSION END>
                        5539 .L2102:
                        5540 --line1866
                        5541 ..lin.D.3A.5CCANFDGwMcuFirmRH850F1x.5Ccode.5CCANFDGwMcuFirmRH850F1x.5CCANFDGwMcuFirmRH850F1x.5Cprj.5CGHS.20MULTI.5CCAN.20Gateway.5Coutput.5Cobj.5Cpe1.5CCan.227::
                        5542 .LDWlin227:
00001db8 41ea           5543 	add	1,r29
00001dba 9d00           5544 	zxb	r29
                        5545 .L2104:
00001dbc 2b0600000000*  5546 	mov	_Can_PbConfig,r11
00001dc2 8b0f0100       5547 	ld.bu	0[r11],r1
00001dc6 e1e9           5548 	cmp	r1,r29
00001dc8 91dd*          5549 	bl	.L2103
                        5550 --1875: 		}
                        5551 --1876: 	}
                        5552 --1877: } /* End of function Can_MainFunction_BusOff() */
                        5553 --	    .ef
                        5554 .LDW011:
                        5555 --line1877
                        5556 ..lin.D.3A.5CCANFDGwMcuFirmRH850F1x.5Ccode.5CCANFDGwMcuFirmRH850F1x.5CCANFDGwMcuFirmRH850F1x.5Cprj.5CGHS.20MULTI.5CCAN.20Gateway.5Coutput.5Cobj.5Cpe1.5CCan.228::
                        5557 .LDWlin228:
00001dca 23ff0500       5558 	ld.w	4[sp],lp
00001dce 23ef0100       5559 	ld.w	0[sp],r29
00001dd2 481a           5560 	add	8,sp
00001dd4 7f00           5561 	jmp	[lp]
                        5562 	.type	_Can_MainFunction_BusOff,@function
                        5563 	.size	_Can_MainFunction_BusOff,.-_Can_MainFunction_BusOff
                        5564 	.align	2
                        5565 .LDW111:
                        5566 --_chn	r29	local
                        5567 --_unit_id	r2	local
                        5568 --_channel_id	r1	local
                        5569 
                        5570 	.data
                        5571 	.text
                        5572 
                        5573 
                        5574 --1879: /***********************************************************************************************************************
                        5575 --1880:  * Function Name: Can_MainFunction_Wakeup
                        5576 --1881:  * Description  : This function checks if channel has wake-uped then notify CanIf.
                        5577 --1882:  * Arguments    : none
                        5578 --1883:  * Return Value : none
                        5579 --1884:  ***********************************************************************************************************************/
                        5580 --1885: void Can_MainFunction_Wakeup(void)
                        5581 	.align	2
                        5582 	.align	2
                        5583 	.global	_Can_MainFunction_Wakeup
                        5584 _Can_MainFunction_Wakeup:
                        5585 --	    .bf
                        5586 .LDW211:
                        5587 --1886: {
                        5588 --1887: 	/* TODO: check wake-up flag and notify */
                        5589 --1888: } /* End of function Can_MainFunction_Wakeup() */
                        5590 --	    .ef
                        5591 .LDW311:
00001dd6 7f00           5592 	jmp	[lp]
                        5593 	.type	_Can_MainFunction_Wakeup,@function

                                                                      Page 98
                                                              C:\Users\TIEZHU~1\AppData\Local\Temp\gh_00006hc1.si
                        5594 	.size	_Can_MainFunction_Wakeup,.-_Can_MainFunction_Wakeup
                        5595 	.align	2
                        5596 .LDW411:
                        5597 
                        5598 	.data
                        5599 	.text
                        5600 
                        5601 
                        5602 --1890: /***********************************************************************************************************************
                        5603 --1891:  * Function Name: Can_ISR_RxFifo
                        5604 --1892:  * Description  : This function handles Rx Fifo receive complete interrupt.
                        5605 --1893:  * Arguments    : CanUnit -
                        5606 --1894:  *                    specified CAN unit Id
                        5607 --1895:  * Return Value : none
                        5608 --1896:  ***********************************************************************************************************************/
                        5609 --1897: void Can_ISR_RxFifo(uint8 CanUnit)
                        5610 	.align	2
                        5611 	.align	2
                        5612 	.global	_Can_ISR_RxFifo
                        5613 _Can_ISR_RxFifo:
00001dd8 031ee8ff       5614 	addi	-24,sp,sp
00001ddc 63ff1500       5615 	st.w	lp,20[sp]
00001de0 63cf1100       5616 	st.w	r25,16[sp]
00001de4 63d70d00       5617 	st.w	r26,12[sp]
00001de8 63df0900       5618 	st.w	r27,8[sp]
00001dec 63e70500       5619 	st.w	r28,4[sp]
00001df0 63ef0100       5620 	st.w	r29,0[sp]
00001df4 c6ceff00       5621 	andi	255,r6,r25
                        5622 --	    .bf
                        5623 .LDW511:
                        5624 --1898: {
                        5625 --1899: 	const can_rx_fifo_cfg_t* p_can_rxfifo_cfgtbl;
                        5626 --1900: 	uint8_t fifo_idx;
                        5627 --1901: 	uint8_t unit_idx;
                        5628 --1902: 	uint8_t rxfifo_idx;
                        5629 --1904: 	/* ==== Check RxFifo one by one ==== */
                        5630 --1905: 	p_can_rxfifo_cfgtbl = Can_PbConfig.CanRxFIFOConfigTable;
00001df8 2b0600000000*  5631 	mov	_Can_PbConfig+12,r11
00001dfe 2bd70100       5632 	ld.w	0[r11],r26
                        5633 --1906: 	for (fifo_idx = (uint8_t) 0U; fifo_idx < Can_PbConfig.NumberOfRxFifoObject; fifo_idx++)
00001e02 00ea           5634 	mov	0,r29
00001e04 a52d*          5635 	br	.L2184
                        5636 .L2183:
                        5637 --1907: 	{
                        5638 --1908: 		/* Get physical Unit Id & Rx Fifo Id */
                        5639 --1909: 		unit_idx = p_can_rxfifo_cfgtbl[fifo_idx].UnitIdx;
                        5640 --line1909
                        5641 ..lin.D.3A.5CCANFDGwMcuFirmRH850F1x.5Ccode.5CCANFDGwMcuFirmRH850F1x.5CCANFDGwMcuFirmRH850F1x.5Cprj.5CGHS.20MULTI.5CCAN.20Gateway.5Coutput.5Cobj.5Cpe1.5CCan.229::
                        5642 .LDWlin229:
00001e06 1d08           5643 	mov	r29,r1
00001e08 c30a           5644 	shl	3,r1
00001e0a 01f0           5645 	mov	r1,ep
00001e0c daf1           5646 	add	r26,ep
00001e0e 60e0           5647 	sld.bu	0[ep],r28
                        5648 --1910: 		rxfifo_idx = p_can_rxfifo_cfgtbl[fifo_idx].FifoIdx;
00001e10 1d08           5649 	mov	r29,r1
00001e12 c30a           5650 	shl	3,r1
00001e14 01f0           5651 	mov	r1,ep
00001e16 daf1           5652 	add	r26,ep
00001e18 61d8           5653 	sld.bu	1[ep],r27
                        5654 --1912: 		/* Check current unit only */

                                                                      Page 99
                                                              C:\Users\TIEZHU~1\AppData\Local\Temp\gh_00006hc1.si
                        5655 --1913: 		if (CanUnit == unit_idx)
00001e1a fcc9           5656 	cmp	r28,r25
00001e1c ca1d*          5657 	bne	.L2182
                        5658 --1914: 		{
                        5659 --1915: 			/* check Rx interrupt request */
                        5660 --1916: 			if (TRUE == RSCFD_HasRxFifoRxCompleteInt(unit_idx, rxfifo_idx))
                        5661 --line1916
                        5662 ..lin.D.3A.5CCANFDGwMcuFirmRH850F1x.5Ccode.5CCANFDGwMcuFirmRH850F1x.5CCANFDGwMcuFirmRH850F1x.5Cprj.5CGHS.20MULTI.5CCAN.20Gateway.5Coutput.5Cobj.5Cpe1.5CCan.230::
                        5663 .LDWlin230:
00001e1e 1c30           5664 	mov	r28,r6
00001e20 1b38           5665 	mov	r27,r7
                        5666 	jarl	_RSCFD_HasRxFifoRxCompleteInt,lp
                        5666 <EXPANSION BEGIN>
                        5666 jarl22 _RSCFD_HasRxFifoRxCompleteInt , lp 
00001e22 80ff0000*      5666 <EXPANSION END>
00001e26 6152           5667 	cmp	1,r10
00001e28 ea15*          5668 	bne	.L2182
                        5669 --1917: 			{
                        5670 --1918: 				User_StartTimeCount();
                        5671 --line1918
                        5672 ..lin.D.3A.5CCANFDGwMcuFirmRH850F1x.5Ccode.5CCANFDGwMcuFirmRH850F1x.5CCANFDGwMcuFirmRH850F1x.5Cprj.5CGHS.20MULTI.5CCAN.20Gateway.5Coutput.5Cobj.5Cpe1.5CCan.231::
                        5673 .LDWlin231:
                        5674 	jarl	_User_StartTimeCount,lp
                        5674 <EXPANSION BEGIN>
                        5674 jarl22 _User_StartTimeCount , lp 
00001e2a 80ff0000*      5674 <EXPANSION END>
                        5675 --1919: 				while (0U != RSCFD_GetRFIFOCount(unit_idx, rxfifo_idx))
                        5676 --line1919
                        5677 ..lin.D.3A.5CCANFDGwMcuFirmRH850F1x.5Ccode.5CCANFDGwMcuFirmRH850F1x.5CCANFDGwMcuFirmRH850F1x.5Cprj.5CGHS.20MULTI.5CCAN.20Gateway.5Coutput.5Cobj.5Cpe1.5CCan.232::
                        5678 .LDWlin232:
00001e2e 950d*          5679 	br	.L2189
                        5680 .L2191:
                        5681 --1920: 				{
                        5682 --1921: 					if (TRUE == User_IsTimeOut())
                        5683 --line1921
                        5684 ..lin.D.3A.5CCANFDGwMcuFirmRH850F1x.5Ccode.5CCANFDGwMcuFirmRH850F1x.5CCANFDGwMcuFirmRH850F1x.5Cprj.5CGHS.20MULTI.5CCAN.20Gateway.5Coutput.5Cobj.5Cpe1.5CCan.233::
                        5685 .LDWlin233:
                        5686 	jarl	_User_IsTimeOut,lp
                        5686 <EXPANSION BEGIN>
                        5686 jarl22 _User_IsTimeOut , lp 
00001e30 80ff0000*      5686 <EXPANSION END>
00001e34 6152           5687 	cmp	1,r10
00001e36 b20d*          5688 	be	.L2194
                        5689 --1922: 					{
                        5690 --1923: 						/* exit if timeout */
                        5691 --1924: 						break;
                        5692 --1925: 					}
                        5693 --1927: 					/* ---- Receive from Rx FIFO ---- */
                        5694 --1928: 					can_read_rxfifo(unit_idx, rxfifo_idx);
                        5695 --line1928
                        5696 ..lin.D.3A.5CCANFDGwMcuFirmRH850F1x.5Ccode.5CCANFDGwMcuFirmRH850F1x.5CCANFDGwMcuFirmRH850F1x.5Cprj.5CGHS.20MULTI.5CCAN.20Gateway.5Coutput.5Cobj.5Cpe1.5CCan.234::
                        5697 .LDWlin234:
00001e38 1c30           5698 	mov	r28,r6
00001e3a 1b38           5699 	mov	r27,r7
                        5700 	jarl	_can_read_rxfifo,lp
                        5700 <EXPANSION BEGIN>
                        5700 jarl22 _can_read_rxfifo , lp 
00001e3c bfff94ee*      5700 <EXPANSION END>
                        5701 .L2189:
                        5702 --line1919
                        5703 ..lin.D.3A.5CCANFDGwMcuFirmRH850F1x.5Ccode.5CCANFDGwMcuFirmRH850F1x.5CCANFDGwMcuFirmRH850F1x.5Cprj.5CGHS.20MULTI.5CCAN.20Gateway.5Coutput.5Cobj.5Cpe1.5CCan.235::

                                                                      Page 100
                                                              C:\Users\TIEZHU~1\AppData\Local\Temp\gh_00006hc1.si
                        5704 .LDWlin235:
00001e40 1c30           5705 	mov	r28,r6
00001e42 1b38           5706 	mov	r27,r7
                        5707 	jarl	_RSCFD_GetRFIFOCount,lp
                        5707 <EXPANSION BEGIN>
                        5707 jarl22 _RSCFD_GetRFIFOCount , lp 
00001e44 80ff0000*      5707 <EXPANSION END>
00001e48 e051           5708 	cmp	zero,r10
00001e4a baf5*          5709 	bne	.L2191
                        5710 .L2194:
                        5711 --1929: 				}
                        5712 --1931: 				/* Clear Rx Fifo receive complete interrupt */
                        5713 --1932: 				RSCFD_ClearRFIFORxFlag(unit_idx, rxfifo_idx);
                        5714 --line1932
                        5715 ..lin.D.3A.5CCANFDGwMcuFirmRH850F1x.5Ccode.5CCANFDGwMcuFirmRH850F1x.5CCANFDGwMcuFirmRH850F1x.5Cprj.5CGHS.20MULTI.5CCAN.20Gateway.5Coutput.5Cobj.5Cpe1.5CCan.236::
                        5716 .LDWlin236:
00001e4c 1c30           5717 	mov	r28,r6
00001e4e 1b38           5718 	mov	r27,r7
                        5719 	jarl	_RSCFD_ClearRFIFORxFlag,lp
                        5719 <EXPANSION BEGIN>
                        5719 jarl22 _RSCFD_ClearRFIFORxFlag , lp 
00001e50 80ff0000*      5719 <EXPANSION END>
                        5720 .L2182:
                        5721 --line1906
                        5722 ..lin.D.3A.5CCANFDGwMcuFirmRH850F1x.5Ccode.5CCANFDGwMcuFirmRH850F1x.5CCANFDGwMcuFirmRH850F1x.5Cprj.5CGHS.20MULTI.5CCAN.20Gateway.5Coutput.5Cobj.5Cpe1.5CCan.237::
                        5723 .LDWlin237:
00001e54 41ea           5724 	add	1,r29
00001e56 9d00           5725 	zxb	r29
                        5726 .L2184:
00001e58 2b0600000000*  5727 	mov	_Can_PbConfig+8,r11
00001e5e 8b0f0100       5728 	ld.bu	0[r11],r1
00001e62 e1e9           5729 	cmp	r1,r29
00001e64 91d5*          5730 	bl	.L2183
                        5731 --1933: 			}
                        5732 --1934: 		}
                        5733 --1935: 	}
                        5734 --1936: } /* End of function Can_ISR_RxFifo() */
                        5735 --	    .ef
                        5736 .LDW611:
                        5737 --line1936
                        5738 ..lin.D.3A.5CCANFDGwMcuFirmRH850F1x.5Ccode.5CCANFDGwMcuFirmRH850F1x.5CCANFDGwMcuFirmRH850F1x.5Cprj.5CGHS.20MULTI.5CCAN.20Gateway.5Coutput.5Cobj.5Cpe1.5CCan.238::
                        5739 .LDWlin238:
00001e66 23ff1500       5740 	ld.w	20[sp],lp
00001e6a 23ef0100       5741 	ld.w	0[sp],r29
00001e6e 23e70500       5742 	ld.w	4[sp],r28
00001e72 23df0900       5743 	ld.w	8[sp],r27
00001e76 23d70d00       5744 	ld.w	12[sp],r26
00001e7a 23cf1100       5745 	ld.w	16[sp],r25
00001e7e 031e1800       5746 	addi	24,sp,sp
00001e82 7f00           5747 	jmp	[lp]
                        5748 	.type	_Can_ISR_RxFifo,@function
                        5749 	.size	_Can_ISR_RxFifo,.-_Can_ISR_RxFifo
                        5750 	.align	2
                        5751 .LDW711:
                        5752 --_p_can_rxfifo_cfgtbl	r26	local
                        5753 --_fifo_idx	r29	local
                        5754 --_unit_idx	r28	local
                        5755 --_rxfifo_idx	r27	local
                        5756 
                        5757 --_CanUnit	r25	param
                        5758 

                                                                      Page 101
                                                              C:\Users\TIEZHU~1\AppData\Local\Temp\gh_00006hc1.si
                        5759 	.data
                        5760 	.text
                        5761 
                        5762 
                        5763 --1938: /***********************************************************************************************************************
                        5764 --1939:  * Function Name: Can_ISR_THL
                        5765 --1940:  * Description  : This function handles transmission history list interrupt.
                        5766 --1941:  * Arguments    : UnitId -
                        5767 --1942:  *                    unit Id for CAN channel index.
                        5768 --1943:  *               ChannelId -
                        5769 --1944:  *                   CAN channel Id
                        5770 --1945:  * Return Value : none
                        5771 --1946:  ***********************************************************************************************************************/
                        5772 --1947: void Can_ISR_THL(uint8 UnitId, uint8 ChannelId)
                        5773 	.align	2
                        5774 	.align	2
                        5775 	.global	_Can_ISR_THL
                        5776 _Can_ISR_THL:
00001e84 501a           5777 	add	-16,sp
00001e86 63ff0d00       5778 	st.w	lp,12[sp]
00001e8a 63df0900       5779 	st.w	r27,8[sp]
00001e8e 63e70500       5780 	st.w	r28,4[sp]
00001e92 63ef0100       5781 	st.w	r29,0[sp]
00001e96 c6e6ff00       5782 	andi	255,r6,r28
00001e9a c7deff00       5783 	andi	255,r7,r27
                        5784 --	    .bf
                        5785 .LDW811:
                        5786 --1948: {
                        5787 --1949: 	uint8_t can_cfg_id;
                        5788 --1951: 	/* Clear GWFIFO transmission interrupt flag */
                        5789 --1952: 	RSCFD_ClearTHLIntFlag(UnitId, ChannelId);
00001e9e 1c30           5790 	mov	r28,r6
00001ea0 1b38           5791 	mov	r27,r7
                        5792 	jarl	_RSCFD_ClearTHLIntFlag,lp
                        5792 <EXPANSION BEGIN>
                        5792 jarl22 _RSCFD_ClearTHLIntFlag , lp 
00001ea2 80ff0000*      5792 <EXPANSION END>
                        5793 --1954: 	/* ---- Check if current channel GW FIFO has completed transmission ---- */
                        5794 --1955: 	for (can_cfg_id = (uint8_t) 0U; can_cfg_id < Can_PbConfig.NumOfUsedController; can_cfg_id++)
                        5795 --line1955
                        5796 ..lin.D.3A.5CCANFDGwMcuFirmRH850F1x.5Ccode.5CCANFDGwMcuFirmRH850F1x.5CCANFDGwMcuFirmRH850F1x.5Cprj.5CGHS.20MULTI.5CCAN.20Gateway.5Coutput.5Cobj.5Cpe1.5CCan.239::
                        5797 .LDWlin239:
00001ea6 00ea           5798 	mov	0,r29
00001ea8 8525*          5799 	br	.L2277
                        5800 .L2276:
                        5801 --1956: 	{
                        5802 --1957: 		if ((UnitId == Can_PbConfig.CanControllerTable[can_cfg_id].UnitIdx)
                        5803 --line1957
                        5804 ..lin.D.3A.5CCANFDGwMcuFirmRH850F1x.5Ccode.5CCANFDGwMcuFirmRH850F1x.5CCANFDGwMcuFirmRH850F1x.5Cprj.5CGHS.20MULTI.5CCAN.20Gateway.5Coutput.5Cobj.5Cpe1.5CCan.240::
                        5805 .LDWlin240:
00001eaa 1d08           5806 	mov	r29,r1
00001eac e40f4402       5807 	mul	36,r1,zero
00001eb0 2b0600000000*  5808 	mov	_Can_PbConfig+4,r11
00001eb6 2b170100       5809 	ld.w	0[r11],r2
00001eba 01f0           5810 	mov	r1,ep
00001ebc c2f1           5811 	add	r2,ep
00001ebe 6408           5812 	sld.bu	4[ep],r1
00001ec0 e1e1           5813 	cmp	r1,r28
00001ec2 9a15*          5814 	bne	.L2275
00001ec4 1d08           5815 	mov	r29,r1
00001ec6 e40f4402       5816 	mul	36,r1,zero

                                                                      Page 102
                                                              C:\Users\TIEZHU~1\AppData\Local\Temp\gh_00006hc1.si
00001eca 2b0600000000*  5817 	mov	_Can_PbConfig+4,r11
00001ed0 2b170100       5818 	ld.w	0[r11],r2
00001ed4 01f0           5819 	mov	r1,ep
00001ed6 c2f1           5820 	add	r2,ep
00001ed8 6508           5821 	sld.bu	5[ep],r1
00001eda e1d9           5822 	cmp	r1,r27
00001edc ca05*          5823 	bne	.L2275
                        5824 --1958: 		    && (ChannelId == Can_PbConfig.CanControllerTable[can_cfg_id].ControllerId))
                        5825 --1959: 		{
                        5826 --1960: 			can_check_tx_completion(can_cfg_id);
                        5827 --line1960
                        5828 ..lin.D.3A.5CCANFDGwMcuFirmRH850F1x.5Ccode.5CCANFDGwMcuFirmRH850F1x.5CCANFDGwMcuFirmRH850F1x.5Cprj.5CGHS.20MULTI.5CCAN.20Gateway.5Coutput.5Cobj.5Cpe1.5CCan.241::
                        5829 .LDWlin241:
00001ede 1d30           5830 	mov	r29,r6
                        5831 	jarl	_can_check_tx_completion,lp
                        5831 <EXPANSION BEGIN>
                        5831 jarl22 _can_check_tx_completion , lp 
00001ee0 bfff98ee*      5831 <EXPANSION END>
                        5832 .L2275:
                        5833 --line1955
                        5834 ..lin.D.3A.5CCANFDGwMcuFirmRH850F1x.5Ccode.5CCANFDGwMcuFirmRH850F1x.5CCANFDGwMcuFirmRH850F1x.5Cprj.5CGHS.20MULTI.5CCAN.20Gateway.5Coutput.5Cobj.5Cpe1.5CCan.242::
                        5835 .LDWlin242:
00001ee4 41ea           5836 	add	1,r29
00001ee6 9d00           5837 	zxb	r29
                        5838 .L2277:
00001ee8 2b0600000000*  5839 	mov	_Can_PbConfig,r11
00001eee 8b0f0100       5840 	ld.bu	0[r11],r1
00001ef2 e1e9           5841 	cmp	r1,r29
00001ef4 b1dd*          5842 	bl	.L2276
                        5843 --1961: 		}
                        5844 --1962: 	}
                        5845 --1963: } /* End of function Can_ISR_THL() */
                        5846 --	    .ef
                        5847 .LDW911:
                        5848 --line1963
                        5849 ..lin.D.3A.5CCANFDGwMcuFirmRH850F1x.5Ccode.5CCANFDGwMcuFirmRH850F1x.5CCANFDGwMcuFirmRH850F1x.5Cprj.5CGHS.20MULTI.5CCAN.20Gateway.5Coutput.5Cobj.5Cpe1.5CCan.243::
                        5850 .LDWlin243:
00001ef6 23ff0d00       5851 	ld.w	12[sp],lp
00001efa 23ef0100       5852 	ld.w	0[sp],r29
00001efe 23e70500       5853 	ld.w	4[sp],r28
00001f02 23df0900       5854 	ld.w	8[sp],r27
00001f06 031e1000       5855 	addi	16,sp,sp
00001f0a 7f00           5856 	jmp	[lp]
                        5857 	.type	_Can_ISR_THL,@function
                        5858 	.size	_Can_ISR_THL,.-_Can_ISR_THL
                        5859 	.align	2
                        5860 .LDW021:
                        5861 --_can_cfg_id	r29	local
                        5862 
                        5863 --_UnitId	r28	param
                        5864 --_ChannelId	r27	param
                        5865 
                        5866 	.data
                        5867 	.text
                        5868 
                        5869 
                        5870 --1965: /***********************************************************************************************************************
                        5871 --1966:  * Function Name: Can_ISR_GlobalErr
                        5872 --1967:  * Description  : This function handles CAN global error interrupt.
                        5873 --1968:  * Arguments    : CanUnit -
                        5874 --1969:  *                    specified CAN unit.

                                                                      Page 103
                                                              C:\Users\TIEZHU~1\AppData\Local\Temp\gh_00006hc1.si
                        5875 --1970:  * Return Value : none
                        5876 --1971:  ***********************************************************************************************************************/
                        5877 --1972: void Can_ISR_GlobalErr(uint8 CanUnit)
                        5878 	.align	2
                        5879 	.align	2
                        5880 	.global	_Can_ISR_GlobalErr
                        5881 _Can_ISR_GlobalErr:
00001f0c 5c1a           5882 	add	-4,sp
00001f0e 63ff0100       5883 	st.w	lp,0[sp]
00001f12 8600           5884 	zxb	r6
                        5885 --	    .bf
                        5886 .LDW121:
                        5887 --1973: {
                        5888 --1974: 	uint32_t temp_GERFL;
                        5889 --1975: 	uint8_t ecc_value;
                        5890 --1977: 	temp_GERFL = RSCFD_GetGlobalErrFlag(CanUnit);
                        5891 	jarl	_RSCFD_GetGlobalErrFlag,lp
                        5891 <EXPANSION BEGIN>
                        5891 jarl22 _RSCFD_GetGlobalErrFlag , lp 
00001f14 80ff0000*      5891 <EXPANSION END>
00001f18 0a10           5892 	mov	r10,r2
                        5893 --1979: 	/*** TODO: 1. Transmit history buffer overflow ***/
                        5894 --1980: 	/*** TODO: 2. Rx Fifo message lost error ***/
                        5895 --1981: 	/*** TODO: 3. DLC error ***/
                        5896 --1983: 	/*** TODO: 4. ECC error ***/
                        5897 --1984: 	if (0UL != (0x00ff0000UL & temp_GERFL))
                        5898 --line1984
                        5899 ..lin.D.3A.5CCANFDGwMcuFirmRH850F1x.5Ccode.5CCANFDGwMcuFirmRH850F1x.5CCANFDGwMcuFirmRH850F1x.5Cprj.5CGHS.20MULTI.5CCAN.20Gateway.5Coutput.5Cobj.5Cpe1.5CCan.244::
                        5900 .LDWlin244:
00001f1a 409eff00       5901 	movhi	hi(16711680),zero,r19
00001f1e 0208           5902 	mov	r2,r1
00001f20 5309           5903 	and	r19,r1
00001f22 e009           5904 	cmp	zero,r1
00001f24 820d*          5905 	be	.L2332
                        5906 --1985: 	{
                        5907 --1986: 		/* Notify CanIf */
                        5908 --1987: 		ecc_value = (uint8_t) ((temp_GERFL >> 16) & 0x00ffU);
                        5909 --line1987
                        5910 ..lin.D.3A.5CCANFDGwMcuFirmRH850F1x.5Ccode.5CCANFDGwMcuFirmRH850F1x.5CCANFDGwMcuFirmRH850F1x.5Cprj.5CGHS.20MULTI.5CCAN.20Gateway.5Coutput.5Cobj.5Cpe1.5CCan.245::
                        5911 .LDWlin245:
00001f26 0208           5912 	mov	r2,r1
00001f28 900a           5913 	shr	16,r1
00001f2a 8100           5914 	zxb	r1
00001f2c 8100           5915 	zxb	r1
                        5916 --1988: 		CanIf_GlobalECC(ecc_value);
00001f2e 0130           5917 	mov	r1,r6
                        5918 	jarl	_CanIf_GlobalECC,lp
                        5918 <EXPANSION BEGIN>
                        5918 jarl22 _CanIf_GlobalECC , lp 
00001f30 80ff0000*      5918 <EXPANSION END>
                        5919 .L2332:
                        5920 --1989: 	}
                        5921 --1990: } /* End of function Can_ISR_GlobalErr() */
                        5922 --	    .ef
                        5923 .LDW221:
                        5924 --line1990
                        5925 ..lin.D.3A.5CCANFDGwMcuFirmRH850F1x.5Ccode.5CCANFDGwMcuFirmRH850F1x.5CCANFDGwMcuFirmRH850F1x.5Cprj.5CGHS.20MULTI.5CCAN.20Gateway.5Coutput.5Cobj.5Cpe1.5CCan.246::
                        5926 .LDWlin246:
00001f34 23ff0100       5927 	ld.w	0[sp],lp
00001f38 441a           5928 	add	4,sp
00001f3a 7f00           5929 	jmp	[lp]

                                                                      Page 104
                                                              C:\Users\TIEZHU~1\AppData\Local\Temp\gh_00006hc1.si
                        5930 	.type	_Can_ISR_GlobalErr,@function
                        5931 	.size	_Can_ISR_GlobalErr,.-_Can_ISR_GlobalErr
                        5932 	.align	2
                        5933 .LDW321:
                        5934 --_temp_GERFL	r2	local
                        5935 --_ecc_value	r1	local
                        5936 
                        5937 --_CanUnit	r6	param
                        5938 
                        5939 	.data
                        5940 	.text
                        5941 
                        5942 
                        5943 --1992: /***********************************************************************************************************************
                        5944 --1993:  * Function Name: Can_ISR_ChnErr
                        5945 --1994:  * Description  : This function handles CAN channel error interrupt.
                        5946 --1995:  * Arguments    : UnitId -
                        5947 --1996:  *                    CAN channel index.
                        5948 --1997:  *               ChannelId -
                        5949 --1998:  *                   CAN channel index.
                        5950 --1999:  * Return Value : none
                        5951 --2000:  ***********************************************************************************************************************/
                        5952 --2001: void Can_ISR_ChnErr(uint8 UnitId, uint8 ChannelId)
                        5953 	.align	2
                        5954 	.align	2
                        5955 	.global	_Can_ISR_ChnErr
                        5956 _Can_ISR_ChnErr:
00001f3c 541a           5957 	add	-12,sp
00001f3e 63ff0900       5958 	st.w	lp,8[sp]
00001f42 63e70500       5959 	st.w	r28,4[sp]
00001f46 63ef0100       5960 	st.w	r29,0[sp]
00001f4a c6eeff00       5961 	andi	255,r6,r29
00001f4e c7e6ff00       5962 	andi	255,r7,r28
                        5963 --	    .bf
                        5964 .LDW421:
                        5965 --2002: {
                        5966 --2003: 	/*** TODO: 1. Arbitration lost ***/
                        5967 --2004: 	/*** TODO: 2. Bus lock ***/
                        5968 --2005: 	/*** TODO: 3. Over load ***/
                        5969 --2006: 	/*** TODO: 4. Bus Off Recovery ***/
                        5970 --2007: 	/*** 5. Bus Off Entry ***/
                        5971 --2008: 	if (RSCFD_TRUE == RSCFD_IsChannelBusOff(UnitId, ChannelId))
00001f52 1d30           5972 	mov	r29,r6
00001f54 1c38           5973 	mov	r28,r7
                        5974 	jarl	_RSCFD_IsChannelBusOff,lp
                        5974 <EXPANSION BEGIN>
                        5974 jarl22 _RSCFD_IsChannelBusOff , lp 
00001f56 80ff0000*      5974 <EXPANSION END>
00001f5a 6152           5975 	cmp	1,r10
00001f5c 8a0d*          5976 	bne	.L2360
                        5977 --2009: 	{
                        5978 --2010: 		/* Notify CanIf */
                        5979 --2011: 		CanIf_ControllerBusOff(can_get_chn_cfgtbl_index(UnitId, ChannelId));
                        5980 --line2011
                        5981 ..lin.D.3A.5CCANFDGwMcuFirmRH850F1x.5Ccode.5CCANFDGwMcuFirmRH850F1x.5CCANFDGwMcuFirmRH850F1x.5Cprj.5CGHS.20MULTI.5CCAN.20Gateway.5Coutput.5Cobj.5Cpe1.5CCan.247::
                        5982 .LDWlin247:
00001f5e 1d30           5983 	mov	r29,r6
00001f60 1c38           5984 	mov	r28,r7
                        5985 	jarl	_can_get_chn_cfgtbl_index,lp
                        5985 <EXPANSION BEGIN>
                        5985 jarl22 _can_get_chn_cfgtbl_index , lp 

                                                                      Page 105
                                                              C:\Users\TIEZHU~1\AppData\Local\Temp\gh_00006hc1.si
00001f62 bfffb2f8*      5985 <EXPANSION END>
00001f66 0a30           5986 	mov	r10,r6
                        5987 	jarl	_CanIf_ControllerBusOff,lp
                        5987 <EXPANSION BEGIN>
                        5987 jarl22 _CanIf_ControllerBusOff , lp 
00001f68 80ff0000*      5987 <EXPANSION END>
                        5988 .L2360:
                        5989 --2012: 	}
                        5990 --2013: 	/*** TODO: 6. Error Passive ***/
                        5991 --2014: 	/*** TODO: 7. Error Warning ***/
                        5992 --2015: 	/*** TODO: 8. Bus error ***/
                        5993 --2016: } /* End of function Can_ISR_ChnErr() */
                        5994 --	    .ef
                        5995 .LDW521:
                        5996 --line2016
                        5997 ..lin.D.3A.5CCANFDGwMcuFirmRH850F1x.5Ccode.5CCANFDGwMcuFirmRH850F1x.5CCANFDGwMcuFirmRH850F1x.5Cprj.5CGHS.20MULTI.5CCAN.20Gateway.5Coutput.5Cobj.5Cpe1.5CCan.248::
                        5998 .LDWlin248:
00001f6c 23ff0900       5999 	ld.w	8[sp],lp
00001f70 23ef0100       6000 	ld.w	0[sp],r29
00001f74 23e70500       6001 	ld.w	4[sp],r28
00001f78 4c1a           6002 	add	12,sp
00001f7a 7f00           6003 	jmp	[lp]
                        6004 	.type	_Can_ISR_ChnErr,@function
                        6005 	.size	_Can_ISR_ChnErr,.-_Can_ISR_ChnErr
                        6006 	.align	2
                        6007 .LDW621:
                        6008 
                        6009 --_UnitId	r29	param
                        6010 --_ChannelId	r28	param
                        6011 
                        6012 	.data
                        6013 	.text
                        6014 
                        6015 	.align	2
                        6016 --_Can_PbConfig	_Can_PbConfig	import
                        6017 --_can_if_can_mode	_can_if_can_mode	import
                        6018 --_PODC0	4290856192	import
                        6019 --_PPCMD0	4290857984	import
                        6020 --_PFSSIMR0	4294896368	import
                        6021 --_g_can_hoh_pduid_txtbl	_g_can_hoh_pduid_txtbl	static
                        6022 --_g_can_hoh_pduid_txbuf_tbl	_g_can_hoh_pduid_txbuf_tbl	static
                        6023 
                        6024 	.data
                        6025 	.ghsnote version,15
                        6026 	.ghsnote tools,3
                        6027 	.ghsnote options,144
                        6028 	.text
                        6029 	.align	2
                        6030 ..eof.D.3A.5CCANFDGwMcuFirmRH850F1x.5Ccode.5CCANFDGwMcuFirmRH850F1x.5CCANFDGwMcuFirmRH850F1x.5Cprj.5CGHS.20MULTI.5CCAN.20Gateway.5Coutput.5Cobj.5Cpe1.5CCan...44.3A.5CCANFDGwMcuFirmRH850F1x.5Ccode.5CCANFDGwMcuFirmRH850F1x.5CCANFDGwMcuFirmRH850F1x.5Cprj.5CGHS.20MULTI.5CCAN.20Gateway..5641940B..0::
                        6031 .rh850_flags REGMODE32,DATA_ALIGN8,GP_FIX,EP_NONFIX,TP_FIX,REG2_NONRESERVE,G3M
